
Robot.elf:     file format elf32-avr

Sections:
Idx Name          Size      VMA       LMA       File off  Algn
  0 .data         00000014  00800100  00003e7a  00003f0e  2**0
                  CONTENTS, ALLOC, LOAD, DATA
  1 .text         00003e7a  00000000  00000000  00000094  2**1
                  CONTENTS, ALLOC, LOAD, READONLY, CODE
  2 .bss          00000249  00800114  00800114  00003f22  2**0
                  ALLOC
  3 .stab         000006cc  00000000  00000000  00003f24  2**2
                  CONTENTS, READONLY, DEBUGGING
  4 .stabstr      00000097  00000000  00000000  000045f0  2**0
                  CONTENTS, READONLY, DEBUGGING
  5 .debug_aranges 00000280  00000000  00000000  00004687  2**0
                  CONTENTS, READONLY, DEBUGGING
  6 .debug_pubnames 00001f86  00000000  00000000  00004907  2**0
                  CONTENTS, READONLY, DEBUGGING
  7 .debug_info   0000546c  00000000  00000000  0000688d  2**0
                  CONTENTS, READONLY, DEBUGGING
  8 .debug_abbrev 000014b2  00000000  00000000  0000bcf9  2**0
                  CONTENTS, READONLY, DEBUGGING
  9 .debug_line   000079be  00000000  00000000  0000d1ab  2**0
                  CONTENTS, READONLY, DEBUGGING
 10 .debug_frame  00000f20  00000000  00000000  00014b6c  2**2
                  CONTENTS, READONLY, DEBUGGING
 11 .debug_str    00003366  00000000  00000000  00015a8c  2**0
                  CONTENTS, READONLY, DEBUGGING
 12 .debug_loc    000025fd  00000000  00000000  00018df2  2**0
                  CONTENTS, READONLY, DEBUGGING
 13 .debug_macinfo 0009f39e  00000000  00000000  0001b3ef  2**0
                  CONTENTS, READONLY, DEBUGGING
 14 .debug_pubtypes 00000b4a  00000000  00000000  000ba78d  2**0
                  CONTENTS, READONLY, DEBUGGING
 15 .debug_ranges 00000688  00000000  00000000  000bb2d7  2**0
                  CONTENTS, READONLY, DEBUGGING

Disassembly of section .text:

00000000 <__vectors>:
       0:	0c 94 46 00 	jmp	0x8c	; 0x8c <__ctors_end>
       4:	0c 94 65 00 	jmp	0xca	; 0xca <__bad_interrupt>
       8:	0c 94 65 00 	jmp	0xca	; 0xca <__bad_interrupt>
       c:	0c 94 65 00 	jmp	0xca	; 0xca <__bad_interrupt>
      10:	0c 94 65 00 	jmp	0xca	; 0xca <__bad_interrupt>
      14:	0c 94 65 00 	jmp	0xca	; 0xca <__bad_interrupt>
      18:	0c 94 65 00 	jmp	0xca	; 0xca <__bad_interrupt>
      1c:	0c 94 65 00 	jmp	0xca	; 0xca <__bad_interrupt>
      20:	0c 94 65 00 	jmp	0xca	; 0xca <__bad_interrupt>
      24:	0c 94 65 00 	jmp	0xca	; 0xca <__bad_interrupt>
      28:	0c 94 65 00 	jmp	0xca	; 0xca <__bad_interrupt>
      2c:	0c 94 65 00 	jmp	0xca	; 0xca <__bad_interrupt>
      30:	0c 94 65 00 	jmp	0xca	; 0xca <__bad_interrupt>
      34:	0c 94 b7 11 	jmp	0x236e	; 0x236e <__vector_13>
      38:	0c 94 65 00 	jmp	0xca	; 0xca <__bad_interrupt>
      3c:	0c 94 65 00 	jmp	0xca	; 0xca <__bad_interrupt>
      40:	0c 94 b9 14 	jmp	0x2972	; 0x2972 <__vector_16>
      44:	0c 94 65 00 	jmp	0xca	; 0xca <__bad_interrupt>
      48:	0c 94 65 00 	jmp	0xca	; 0xca <__bad_interrupt>
      4c:	0c 94 65 00 	jmp	0xca	; 0xca <__bad_interrupt>
      50:	0c 94 a8 15 	jmp	0x2b50	; 0x2b50 <__vector_20>
      54:	0c 94 65 00 	jmp	0xca	; 0xca <__bad_interrupt>
      58:	0c 94 65 00 	jmp	0xca	; 0xca <__bad_interrupt>
      5c:	0c 94 65 00 	jmp	0xca	; 0xca <__bad_interrupt>
      60:	0c 94 65 00 	jmp	0xca	; 0xca <__bad_interrupt>
      64:	0c 94 65 00 	jmp	0xca	; 0xca <__bad_interrupt>
      68:	0c 94 65 00 	jmp	0xca	; 0xca <__bad_interrupt>
      6c:	0c 94 65 00 	jmp	0xca	; 0xca <__bad_interrupt>
      70:	0c 94 0e 16 	jmp	0x2c1c	; 0x2c1c <__vector_28>
      74:	0c 94 65 00 	jmp	0xca	; 0xca <__bad_interrupt>
      78:	0c 94 65 00 	jmp	0xca	; 0xca <__bad_interrupt>
      7c:	0c 94 65 00 	jmp	0xca	; 0xca <__bad_interrupt>
      80:	0c 94 65 00 	jmp	0xca	; 0xca <__bad_interrupt>
      84:	0c 94 65 00 	jmp	0xca	; 0xca <__bad_interrupt>
      88:	0c 94 65 00 	jmp	0xca	; 0xca <__bad_interrupt>

0000008c <__ctors_end>:
      8c:	11 24       	eor	r1, r1
      8e:	1f be       	out	0x3f, r1	; 63
      90:	c0 e0       	ldi	r28, 0x00	; 0
      92:	d0 e4       	ldi	r29, 0x40	; 64
      94:	de bf       	out	0x3e, r29	; 62
      96:	cd bf       	out	0x3d, r28	; 61

00000098 <__do_copy_data>:
      98:	11 e0       	ldi	r17, 0x01	; 1
      9a:	a0 e0       	ldi	r26, 0x00	; 0
      9c:	b1 e0       	ldi	r27, 0x01	; 1
      9e:	ea e7       	ldi	r30, 0x7A	; 122
      a0:	fe e3       	ldi	r31, 0x3E	; 62
      a2:	00 e0       	ldi	r16, 0x00	; 0
      a4:	0b bf       	out	0x3b, r16	; 59
      a6:	02 c0       	rjmp	.+4      	; 0xac <__do_copy_data+0x14>
      a8:	07 90       	elpm	r0, Z+
      aa:	0d 92       	st	X+, r0
      ac:	a4 31       	cpi	r26, 0x14	; 20
      ae:	b1 07       	cpc	r27, r17
      b0:	d9 f7       	brne	.-10     	; 0xa8 <__do_copy_data+0x10>

000000b2 <__do_clear_bss>:
      b2:	13 e0       	ldi	r17, 0x03	; 3
      b4:	a4 e1       	ldi	r26, 0x14	; 20
      b6:	b1 e0       	ldi	r27, 0x01	; 1
      b8:	01 c0       	rjmp	.+2      	; 0xbc <.do_clear_bss_start>

000000ba <.do_clear_bss_loop>:
      ba:	1d 92       	st	X+, r1

000000bc <.do_clear_bss_start>:
      bc:	ad 35       	cpi	r26, 0x5D	; 93
      be:	b1 07       	cpc	r27, r17
      c0:	e1 f7       	brne	.-8      	; 0xba <.do_clear_bss_loop>
      c2:	0e 94 74 16 	call	0x2ce8	; 0x2ce8 <main>
      c6:	0c 94 3b 1f 	jmp	0x3e76	; 0x3e76 <_exit>

000000ca <__bad_interrupt>:
      ca:	0c 94 00 00 	jmp	0	; 0x0 <__vectors>

000000ce <RobotLifeInit>:
//lancement du debut de vie du robot
Boolean RobotLifeInit(void) 
{
	Boolean o_success = TRUE;
	//on init la structure du robot
	robot.life.init = FALSE;
      ce:	10 92 14 01 	sts	0x0114, r1
	robot.life.prox_obj_dectected = FALSE;
      d2:	10 92 15 01 	sts	0x0115, r1
	robot.life.prox_obj_distance = UNKNOWN_DISTANCE;
      d6:	8f ef       	ldi	r24, 0xFF	; 255
      d8:	9f ef       	ldi	r25, 0xFF	; 255
      da:	90 93 18 01 	sts	0x0118, r25
      de:	80 93 17 01 	sts	0x0117, r24
	robot.life.old_prox_obj_distance = UNKNOWN_DISTANCE;
      e2:	90 93 1a 01 	sts	0x011A, r25
      e6:	80 93 19 01 	sts	0x0119, r24
	robot.life.angle_prox_obj_dectected = NEUTRE_TETE_HORIZONTAL;
      ea:	8a e5       	ldi	r24, 0x5A	; 90
      ec:	80 93 16 01 	sts	0x0116, r24
	robot.body = CtrlMarcheGetStruct();
      f0:	0e 94 ec 07 	call	0xfd8	; 0xfd8 <CtrlMarcheGetStruct>
      f4:	90 93 1c 01 	sts	0x011C, r25
      f8:	80 93 1b 01 	sts	0x011B, r24
	robot.head = CtrlTeteGetStruct();
      fc:	0e 94 37 09 	call	0x126e	; 0x126e <CtrlTeteGetStruct>
     100:	90 93 1e 01 	sts	0x011E, r25
     104:	80 93 1d 01 	sts	0x011D, r24
	
	return o_success;
}	
     108:	81 e0       	ldi	r24, 0x01	; 1
     10a:	08 95       	ret

0000010c <RobotLife>:

//on reagit aux evenements
void RobotLife ( Event_t event ) 
{
     10c:	cf 93       	push	r28
     10e:	df 93       	push	r29
     110:	ec 01       	movw	r28, r24
	// a l'init on lance un scan
	if ( DrvEventTestEvent(event ,CONF_EVENT_TIMER_1S ))
     112:	62 e0       	ldi	r22, 0x02	; 2
     114:	0e 94 4c 0a 	call	0x1498	; 0x1498 <DrvEventTestEvent>
     118:	88 23       	and	r24, r24
     11a:	51 f0       	breq	.+20     	; 0x130 <RobotLife+0x24>
	{
		//si on est pas encore initialise
		if(RobotLifeCheckInit() == FALSE)
     11c:	80 91 14 01 	lds	r24, 0x0114
     120:	88 23       	and	r24, r24
     122:	09 f4       	brne	.+2      	; 0x126 <RobotLife+0x1a>
     124:	54 c0       	rjmp	.+168    	; 0x1ce <RobotLife+0xc2>
			//on est maintenant initialiser 
			robot.life.init = TRUE;
		}
		
		//si on a detecter un objet est qu'on joue l action correspondante
		if( robot.life.prox_obj_dectected == TRUE )
     126:	80 91 15 01 	lds	r24, 0x0115
     12a:	81 30       	cpi	r24, 0x01	; 1
     12c:	09 f4       	brne	.+2      	; 0x130 <RobotLife+0x24>
     12e:	59 c0       	rjmp	.+178    	; 0x1e2 <RobotLife+0xd6>
		}
		
	}	
	
	//on rescan toutes les 10 sec si on est stop
	if ( DrvEventTestEvent(event ,CONF_EVENT_TIMER_10S ))
     130:	ce 01       	movw	r24, r28
     132:	64 e0       	ldi	r22, 0x04	; 4
     134:	0e 94 4c 0a 	call	0x1498	; 0x1498 <DrvEventTestEvent>
     138:	88 23       	and	r24, r24
     13a:	39 f0       	breq	.+14     	; 0x14a <RobotLife+0x3e>
	{
		//si le dernier scan est fini et que l'on est pas en mouvement 
		if(( robot.head->is_scaning == FALSE ) && ( robot.body->move == E_MOVE_STOP ) && (robot.life.prox_obj_dectected == FALSE))
     13c:	e0 91 1d 01 	lds	r30, 0x011D
     140:	f0 91 1e 01 	lds	r31, 0x011E
     144:	82 81       	ldd	r24, Z+2	; 0x02
     146:	88 23       	and	r24, r24
     148:	49 f0       	breq	.+18     	; 0x15c <RobotLife+0x50>
		}
	}			
	
	
	//si on recois l'event alert US on stop
	if ( DrvEventTestEvent(event, CONF_EVENT_ALERT_US_PROX ))
     14a:	ce 01       	movw	r24, r28
     14c:	67 e0       	ldi	r22, 0x07	; 7
     14e:	0e 94 4c 0a 	call	0x1498	; 0x1498 <DrvEventTestEvent>
     152:	88 23       	and	r24, r24
     154:	89 f4       	brne	.+34     	; 0x178 <RobotLife+0x6c>
					}	
				}	
			}
		}			
	}					
}
     156:	df 91       	pop	r29
     158:	cf 91       	pop	r28
     15a:	08 95       	ret
	
	//on rescan toutes les 10 sec si on est stop
	if ( DrvEventTestEvent(event ,CONF_EVENT_TIMER_10S ))
	{
		//si le dernier scan est fini et que l'on est pas en mouvement 
		if(( robot.head->is_scaning == FALSE ) && ( robot.body->move == E_MOVE_STOP ) && (robot.life.prox_obj_dectected == FALSE))
     15c:	e0 91 1b 01 	lds	r30, 0x011B
     160:	f0 91 1c 01 	lds	r31, 0x011C
     164:	80 81       	ld	r24, Z
     166:	88 23       	and	r24, r24
     168:	81 f7       	brne	.-32     	; 0x14a <RobotLife+0x3e>
     16a:	80 91 15 01 	lds	r24, 0x0115
     16e:	88 23       	and	r24, r24
     170:	61 f7       	brne	.-40     	; 0x14a <RobotLife+0x3e>
		{
			CtrlTeteStartScan();
     172:	0e 94 2e 09 	call	0x125c	; 0x125c <CtrlTeteStartScan>
     176:	e9 cf       	rjmp	.-46     	; 0x14a <RobotLife+0x3e>
	
	
	//si on recois l'event alert US on stop
	if ( DrvEventTestEvent(event, CONF_EVENT_ALERT_US_PROX ))
	{
		robot.life.prox_obj_distance = CtrlUartProtocoleReadHeadUs() ;
     178:	0e 94 12 0a 	call	0x1424	; 0x1424 <CtrlUartProtocoleReadHeadUs>
     17c:	90 93 18 01 	sts	0x0118, r25
     180:	80 93 17 01 	sts	0x0117, r24
		//on viens de detecter un objet
		if(robot.life.prox_obj_dectected == FALSE)
     184:	20 91 15 01 	lds	r18, 0x0115
     188:	22 23       	and	r18, r18
     18a:	29 f7       	brne	.-54     	; 0x156 <RobotLife+0x4a>
		{
			//on a detecter un objet
			robot.life.prox_obj_dectected = TRUE;
     18c:	21 e0       	ldi	r18, 0x01	; 1
     18e:	20 93 15 01 	sts	0x0115, r18
			//on garde l'angle de detection
			robot.life.angle_prox_obj_dectected = robot.head->angle_h;
     192:	e0 91 1d 01 	lds	r30, 0x011D
     196:	f0 91 1e 01 	lds	r31, 0x011E
     19a:	20 81       	ld	r18, Z
     19c:	20 93 16 01 	sts	0x0116, r18
			//si on est entrain de scanner on stop
			if( robot.head->is_scaning == TRUE )
     1a0:	22 81       	ldd	r18, Z+2	; 0x02
     1a2:	21 30       	cpi	r18, 0x01	; 1
     1a4:	09 f4       	brne	.+2      	; 0x1a8 <RobotLife+0x9c>
     1a6:	5a c0       	rjmp	.+180    	; 0x25c <RobotLife+0x150>
				CtrlTeteStopScan();
			}
			else 
			{
				//si on était en mouvement
				if( robot.body->move != E_MOVE_STOP )
     1a8:	e0 91 1b 01 	lds	r30, 0x011B
     1ac:	f0 91 1c 01 	lds	r31, 0x011C
     1b0:	20 81       	ld	r18, Z
     1b2:	22 23       	and	r18, r18
     1b4:	09 f0       	breq	.+2      	; 0x1b8 <RobotLife+0xac>
     1b6:	4a c0       	rjmp	.+148    	; 0x24c <RobotLife+0x140>
				}	
				//si on était en stop on recul
				else
				{
					//si l'objet est trop prés on recul 10cm
					if(robot.life.prox_obj_distance <= 10U)
     1b8:	8b 30       	cpi	r24, 0x0B	; 11
     1ba:	91 05       	cpc	r25, r1
     1bc:	08 f4       	brcc	.+2      	; 0x1c0 <RobotLife+0xb4>
     1be:	41 c0       	rjmp	.+130    	; 0x242 <RobotLife+0x136>
						CtrlMarcheMove( E_MOVE_BACKWARD , E_SERVO_VITESSE_5);	
					}
					else
					{
						//on se met en etoile
						CtrlMarcheMove( E_MOVE_STAR , E_SERVO_VITESSE_5);	
     1c0:	86 e0       	ldi	r24, 0x06	; 6
     1c2:	60 e0       	ldi	r22, 0x00	; 0
     1c4:	0e 94 ef 07 	call	0xfde	; 0xfde <CtrlMarcheMove>
					}	
				}	
			}
		}			
	}					
}
     1c8:	df 91       	pop	r29
     1ca:	cf 91       	pop	r28
     1cc:	08 95       	ret
	if ( DrvEventTestEvent(event ,CONF_EVENT_TIMER_1S ))
	{
		//si on est pas encore initialise
		if(RobotLifeCheckInit() == FALSE)
		{
			CtrlTeteStartScan();
     1ce:	0e 94 2e 09 	call	0x125c	; 0x125c <CtrlTeteStartScan>
			//on est maintenant initialiser 
			robot.life.init = TRUE;
     1d2:	81 e0       	ldi	r24, 0x01	; 1
     1d4:	80 93 14 01 	sts	0x0114, r24
		}
		
		//si on a detecter un objet est qu'on joue l action correspondante
		if( robot.life.prox_obj_dectected == TRUE )
     1d8:	80 91 15 01 	lds	r24, 0x0115
     1dc:	81 30       	cpi	r24, 0x01	; 1
     1de:	09 f0       	breq	.+2      	; 0x1e2 <RobotLife+0xd6>
     1e0:	a7 cf       	rjmp	.-178    	; 0x130 <RobotLife+0x24>
		{
			//si on est pas en scan
			if( robot.head->is_scaning == FALSE )
     1e2:	e0 91 1d 01 	lds	r30, 0x011D
     1e6:	f0 91 1e 01 	lds	r31, 0x011E
     1ea:	82 81       	ldd	r24, Z+2	; 0x02
     1ec:	88 23       	and	r24, r24
     1ee:	09 f0       	breq	.+2      	; 0x1f2 <RobotLife+0xe6>
     1f0:	9f cf       	rjmp	.-194    	; 0x130 <RobotLife+0x24>
			{
				if(robot.life.prox_obj_distance < SECURITY_PERIMETER)
     1f2:	80 91 17 01 	lds	r24, 0x0117
     1f6:	90 91 18 01 	lds	r25, 0x0118
     1fa:	8e 31       	cpi	r24, 0x1E	; 30
     1fc:	91 05       	cpc	r25, r1
     1fe:	58 f5       	brcc	.+86     	; 0x256 <RobotLife+0x14a>
				{
					//si l'objet s'eloigne
					if( robot.life.old_prox_obj_distance < robot.life.prox_obj_distance)
     200:	20 91 19 01 	lds	r18, 0x0119
     204:	30 91 1a 01 	lds	r19, 0x011A
     208:	28 17       	cp	r18, r24
     20a:	39 07       	cpc	r19, r25
     20c:	50 f1       	brcs	.+84     	; 0x262 <RobotLife+0x156>
					}
					//il se rapproche
					else
					{
						//si le dernier scanner est a gauche
						if( robot.life.angle_prox_obj_dectected > NEUTRE_TETE_HORIZONTAL )
     20e:	80 91 16 01 	lds	r24, 0x0116
     212:	8b 35       	cpi	r24, 0x5B	; 91
     214:	90 f5       	brcc	.+100    	; 0x27a <RobotLife+0x16e>
						{
							//on avance
							CtrlMarcheMove( E_MOVE_RIGHT , E_SERVO_VITESSE_5);		
						}
						else if( robot.life.angle_prox_obj_dectected < NEUTRE_TETE_HORIZONTAL )
     216:	8a 35       	cpi	r24, 0x5A	; 90
     218:	a9 f5       	brne	.+106    	; 0x284 <RobotLife+0x178>
							CtrlMarcheMove( E_MOVE_LEFT, E_SERVO_VITESSE_5);		
						}
						else
						{
							//si on est en marche 
							if(( robot.body->move != E_MOVE_BACKWARD ) && ( robot.body->move != E_MOVE_STOP ))
     21a:	e0 91 1b 01 	lds	r30, 0x011B
     21e:	f0 91 1c 01 	lds	r31, 0x011C
     222:	80 81       	ld	r24, Z
     224:	82 30       	cpi	r24, 0x02	; 2
     226:	11 f0       	breq	.+4      	; 0x22c <RobotLife+0x120>
     228:	88 23       	and	r24, r24
     22a:	89 f5       	brne	.+98     	; 0x28e <RobotLife+0x182>
				
					//si on est pas en scan
					if( robot.head->is_scaning == FALSE )
					{
						//on renvois une mesure US 
						CtrlUartProtocoleSendReadHeadUs();	
     22c:	0e 94 17 0a 	call	0x142e	; 0x142e <CtrlUartProtocoleSendReadHeadUs>
					}
					//on memorise la distance de l'objet
					robot.life.old_prox_obj_distance = robot.life.prox_obj_distance;	
     230:	80 91 17 01 	lds	r24, 0x0117
     234:	90 91 18 01 	lds	r25, 0x0118
     238:	90 93 1a 01 	sts	0x011A, r25
     23c:	80 93 19 01 	sts	0x0119, r24
     240:	77 cf       	rjmp	.-274    	; 0x130 <RobotLife+0x24>
				{
					//si l'objet est trop prés on recul 10cm
					if(robot.life.prox_obj_distance <= 10U)
					{
						//on stop
						CtrlMarcheMove( E_MOVE_BACKWARD , E_SERVO_VITESSE_5);	
     242:	82 e0       	ldi	r24, 0x02	; 2
     244:	60 e0       	ldi	r22, 0x00	; 0
     246:	0e 94 ef 07 	call	0xfde	; 0xfde <CtrlMarcheMove>
     24a:	85 cf       	rjmp	.-246    	; 0x156 <RobotLife+0x4a>
			{
				//si on était en mouvement
				if( robot.body->move != E_MOVE_STOP )
				{
					//on stop
					CtrlMarcheMove( E_MOVE_STOP , E_SERVO_VITESSE_5);	
     24c:	80 e0       	ldi	r24, 0x00	; 0
     24e:	60 e0       	ldi	r22, 0x00	; 0
     250:	0e 94 ef 07 	call	0xfde	; 0xfde <CtrlMarcheMove>
     254:	80 cf       	rjmp	.-256    	; 0x156 <RobotLife+0x4a>
					robot.life.old_prox_obj_distance = robot.life.prox_obj_distance;	
				}	
				//il n'y a plus d'objet
				else
				{
					robot.life.prox_obj_dectected = FALSE;
     256:	10 92 15 01 	sts	0x0115, r1
     25a:	6a cf       	rjmp	.-300    	; 0x130 <RobotLife+0x24>
			robot.life.angle_prox_obj_dectected = robot.head->angle_h;
			//si on est entrain de scanner on stop
			if( robot.head->is_scaning == TRUE )
			{
				//on stop le scan
				CtrlTeteStopScan();
     25c:	0e 94 34 09 	call	0x1268	; 0x1268 <CtrlTeteStopScan>
     260:	7a cf       	rjmp	.-268    	; 0x156 <RobotLife+0x4a>
				{
					//si l'objet s'eloigne
					if( robot.life.old_prox_obj_distance < robot.life.prox_obj_distance)
					{
						//on avance
						CtrlMarcheMove( E_MOVE_FORWARD , E_SERVO_VITESSE_5);					
     262:	81 e0       	ldi	r24, 0x01	; 1
     264:	60 e0       	ldi	r22, 0x00	; 0
     266:	0e 94 ef 07 	call	0xfde	; 0xfde <CtrlMarcheMove>
						
						
					}
				
					//si on est pas en scan
					if( robot.head->is_scaning == FALSE )
     26a:	e0 91 1d 01 	lds	r30, 0x011D
     26e:	f0 91 1e 01 	lds	r31, 0x011E
     272:	82 81       	ldd	r24, Z+2	; 0x02
     274:	88 23       	and	r24, r24
     276:	e1 f6       	brne	.-72     	; 0x230 <RobotLife+0x124>
     278:	d9 cf       	rjmp	.-78     	; 0x22c <RobotLife+0x120>
					{
						//si le dernier scanner est a gauche
						if( robot.life.angle_prox_obj_dectected > NEUTRE_TETE_HORIZONTAL )
						{
							//on avance
							CtrlMarcheMove( E_MOVE_RIGHT , E_SERVO_VITESSE_5);		
     27a:	84 e0       	ldi	r24, 0x04	; 4
     27c:	60 e0       	ldi	r22, 0x00	; 0
     27e:	0e 94 ef 07 	call	0xfde	; 0xfde <CtrlMarcheMove>
     282:	f3 cf       	rjmp	.-26     	; 0x26a <RobotLife+0x15e>
						}
						else if( robot.life.angle_prox_obj_dectected < NEUTRE_TETE_HORIZONTAL )
						{
							//on avance
							CtrlMarcheMove( E_MOVE_LEFT, E_SERVO_VITESSE_5);		
     284:	83 e0       	ldi	r24, 0x03	; 3
     286:	60 e0       	ldi	r22, 0x00	; 0
     288:	0e 94 ef 07 	call	0xfde	; 0xfde <CtrlMarcheMove>
     28c:	ee cf       	rjmp	.-36     	; 0x26a <RobotLife+0x15e>
						{
							//si on est en marche 
							if(( robot.body->move != E_MOVE_BACKWARD ) && ( robot.body->move != E_MOVE_STOP ))
							{
								//on marche arriere
								CtrlMarcheMove( E_MOVE_BACKWARD , E_SERVO_VITESSE_5);	
     28e:	82 e0       	ldi	r24, 0x02	; 2
     290:	60 e0       	ldi	r22, 0x00	; 0
     292:	0e 94 ef 07 	call	0xfde	; 0xfde <CtrlMarcheMove>
     296:	e9 cf       	rjmp	.-46     	; 0x26a <RobotLife+0x15e>

00000298 <CtrlMarcheSequenceStop>:
		return FALSE;
	}
}			

static Boolean CtrlMarcheSequenceStop( void )
{
     298:	1f 93       	push	r17
		/-| |-\				mid mid |  | mid mid
		/-| |-\		step 0	mid mid |  | mid mid
		/-| |-\				mid mid |  | mid mid
	*/
	//on mets les pattes aux neutre
	if( CtrlPatteDirectMove(AVANT_GAUCHE		,	ANGLE_MID_EPAULE	,	ANGLE_MID_COUDE	,	E_SERVO_VITESSE_5 ) == TRUE )
     29a:	80 e0       	ldi	r24, 0x00	; 0
     29c:	6a e5       	ldi	r22, 0x5A	; 90
     29e:	4a e5       	ldi	r20, 0x5A	; 90
     2a0:	20 e0       	ldi	r18, 0x00	; 0
     2a2:	0e 94 c4 08 	call	0x1188	; 0x1188 <CtrlPatteDirectMove>
	}
}			

static Boolean CtrlMarcheSequenceStop( void )
{
	Int8U ret = 0x00;
     2a6:	11 e0       	ldi	r17, 0x01	; 1
     2a8:	81 30       	cpi	r24, 0x01	; 1
     2aa:	09 f0       	breq	.+2      	; 0x2ae <CtrlMarcheSequenceStop+0x16>
     2ac:	10 e0       	ldi	r17, 0x00	; 0
	//on mets les pattes aux neutre
	if( CtrlPatteDirectMove(AVANT_GAUCHE		,	ANGLE_MID_EPAULE	,	ANGLE_MID_COUDE	,	E_SERVO_VITESSE_5 ) == TRUE )
	{
		ret |= (1U<<0U);
	}	
	if( CtrlPatteDirectMove(MILIEU_GAUCHE		,	ANGLE_MID_EPAULE	,	ANGLE_MID_COUDE	,	E_SERVO_VITESSE_5 ) == TRUE )
     2ae:	81 e0       	ldi	r24, 0x01	; 1
     2b0:	6a e5       	ldi	r22, 0x5A	; 90
     2b2:	4a e5       	ldi	r20, 0x5A	; 90
     2b4:	20 e0       	ldi	r18, 0x00	; 0
     2b6:	0e 94 c4 08 	call	0x1188	; 0x1188 <CtrlPatteDirectMove>
     2ba:	81 30       	cpi	r24, 0x01	; 1
     2bc:	69 f1       	breq	.+90     	; 0x318 <CtrlMarcheSequenceStop+0x80>
	{
		ret |= (1U<<1U);
	}	
	if( CtrlPatteDirectMove(ARRIERE_GAUCHE	,	ANGLE_MID_EPAULE	,	ANGLE_MID_COUDE	,	E_SERVO_VITESSE_5 ) == TRUE )
     2be:	82 e0       	ldi	r24, 0x02	; 2
     2c0:	6a e5       	ldi	r22, 0x5A	; 90
     2c2:	4a e5       	ldi	r20, 0x5A	; 90
     2c4:	20 e0       	ldi	r18, 0x00	; 0
     2c6:	0e 94 c4 08 	call	0x1188	; 0x1188 <CtrlPatteDirectMove>
     2ca:	81 30       	cpi	r24, 0x01	; 1
     2cc:	19 f1       	breq	.+70     	; 0x314 <CtrlMarcheSequenceStop+0x7c>
	{
		ret |= (1U<<2U);
	}	
	if( CtrlPatteDirectMove(AVANT_DROITE		,	ANGLE_MID_EPAULE	,	ANGLE_MID_COUDE	,	E_SERVO_VITESSE_5 ) == TRUE )
     2ce:	83 e0       	ldi	r24, 0x03	; 3
     2d0:	6a e5       	ldi	r22, 0x5A	; 90
     2d2:	4a e5       	ldi	r20, 0x5A	; 90
     2d4:	20 e0       	ldi	r18, 0x00	; 0
     2d6:	0e 94 c4 08 	call	0x1188	; 0x1188 <CtrlPatteDirectMove>
     2da:	81 30       	cpi	r24, 0x01	; 1
     2dc:	c9 f0       	breq	.+50     	; 0x310 <CtrlMarcheSequenceStop+0x78>
	{
		ret |= (1U<<3U);
	}	
	if( CtrlPatteDirectMove(MILIEU_DROITE		,	ANGLE_MID_EPAULE	,	ANGLE_MID_COUDE	,	E_SERVO_VITESSE_5 ) == TRUE )
     2de:	84 e0       	ldi	r24, 0x04	; 4
     2e0:	6a e5       	ldi	r22, 0x5A	; 90
     2e2:	4a e5       	ldi	r20, 0x5A	; 90
     2e4:	20 e0       	ldi	r18, 0x00	; 0
     2e6:	0e 94 c4 08 	call	0x1188	; 0x1188 <CtrlPatteDirectMove>
     2ea:	81 30       	cpi	r24, 0x01	; 1
     2ec:	79 f0       	breq	.+30     	; 0x30c <CtrlMarcheSequenceStop+0x74>
	{
		ret |= (1U<<4U);
	}	
	if( CtrlPatteDirectMove(ARRIERE_DROITE	,	ANGLE_MID_EPAULE	,	ANGLE_MID_COUDE	,	E_SERVO_VITESSE_5 ) == TRUE )
     2ee:	85 e0       	ldi	r24, 0x05	; 5
     2f0:	6a e5       	ldi	r22, 0x5A	; 90
     2f2:	4a e5       	ldi	r20, 0x5A	; 90
     2f4:	20 e0       	ldi	r18, 0x00	; 0
     2f6:	0e 94 c4 08 	call	0x1188	; 0x1188 <CtrlPatteDirectMove>
     2fa:	81 30       	cpi	r24, 0x01	; 1
     2fc:	19 f0       	breq	.+6      	; 0x304 <CtrlMarcheSequenceStop+0x6c>
	{
		return TRUE;
	}
	else
	{
		return FALSE;
     2fe:	80 e0       	ldi	r24, 0x00	; 0
	}
}	
     300:	1f 91       	pop	r17
     302:	08 95       	ret
	{
		ret |= (1U<<4U);
	}	
	if( CtrlPatteDirectMove(ARRIERE_DROITE	,	ANGLE_MID_EPAULE	,	ANGLE_MID_COUDE	,	E_SERVO_VITESSE_5 ) == TRUE )
	{
		ret |= (1U<<5U);
     304:	10 62       	ori	r17, 0x20	; 32
	{
		return FALSE;
	}
}			

static Boolean CtrlMarcheSequenceStop( void )
     306:	1f 33       	cpi	r17, 0x3F	; 63
     308:	d1 f7       	brne	.-12     	; 0x2fe <CtrlMarcheSequenceStop+0x66>
     30a:	fa cf       	rjmp	.-12     	; 0x300 <CtrlMarcheSequenceStop+0x68>
	{
		ret |= (1U<<3U);
	}	
	if( CtrlPatteDirectMove(MILIEU_DROITE		,	ANGLE_MID_EPAULE	,	ANGLE_MID_COUDE	,	E_SERVO_VITESSE_5 ) == TRUE )
	{
		ret |= (1U<<4U);
     30c:	10 61       	ori	r17, 0x10	; 16
     30e:	ef cf       	rjmp	.-34     	; 0x2ee <CtrlMarcheSequenceStop+0x56>
	{
		ret |= (1U<<2U);
	}	
	if( CtrlPatteDirectMove(AVANT_DROITE		,	ANGLE_MID_EPAULE	,	ANGLE_MID_COUDE	,	E_SERVO_VITESSE_5 ) == TRUE )
	{
		ret |= (1U<<3U);
     310:	18 60       	ori	r17, 0x08	; 8
     312:	e5 cf       	rjmp	.-54     	; 0x2de <CtrlMarcheSequenceStop+0x46>
	{
		ret |= (1U<<1U);
	}	
	if( CtrlPatteDirectMove(ARRIERE_GAUCHE	,	ANGLE_MID_EPAULE	,	ANGLE_MID_COUDE	,	E_SERVO_VITESSE_5 ) == TRUE )
	{
		ret |= (1U<<2U);
     314:	14 60       	ori	r17, 0x04	; 4
     316:	db cf       	rjmp	.-74     	; 0x2ce <CtrlMarcheSequenceStop+0x36>
	{
		ret |= (1U<<0U);
	}	
	if( CtrlPatteDirectMove(MILIEU_GAUCHE		,	ANGLE_MID_EPAULE	,	ANGLE_MID_COUDE	,	E_SERVO_VITESSE_5 ) == TRUE )
	{
		ret |= (1U<<1U);
     318:	12 60       	ori	r17, 0x02	; 2
     31a:	d1 cf       	rjmp	.-94     	; 0x2be <CtrlMarcheSequenceStop+0x26>

0000031c <CtrlMarche>:
static body_member_t body;
/////////////////////////////////////////PUBLIC FUNCTIONS/////////////////////////////////////////
//init
void CtrlMarche( void ) 
{
	body.move = E_MOVE_STOP;
     31c:	10 92 20 01 	sts	0x0120, r1
	body.speed = E_SERVO_VITESSE_5;
     320:	10 92 21 01 	sts	0x0121, r1
	//on ajoute les pattes
	CtrlPatte();
     324:	0e 94 f6 07 	call	0xfec	; 0xfec <CtrlPatte>
	//on nenvoie la sequence d'arret
	CtrlMarcheSequenceStop();
     328:	0e 94 4c 01 	call	0x298	; 0x298 <CtrlMarcheSequenceStop>
}
     32c:	08 95       	ret

0000032e <CtrlMarcheDispatcher>:

//dispatcher
void CtrlMarcheDispatcher( Event_t event )  
{
     32e:	1f 93       	push	r17
     330:	cf 93       	push	r28
     332:	df 93       	push	r29
     334:	ec 01       	movw	r28, r24
	if ( DrvEventTestEvent(event, CONF_EVENT_TIMER_100MS ))
     336:	61 e0       	ldi	r22, 0x01	; 1
     338:	0e 94 4c 0a 	call	0x1498	; 0x1498 <DrvEventTestEvent>
     33c:	88 23       	and	r24, r24
     33e:	a1 f4       	brne	.+40     	; 0x368 <CtrlMarcheDispatcher+0x3a>
		//on envoie vers la machine d'etat de la marche
		CtrlMarcheSequence();
	}
	
	//on envoie la position des servo tte les sec quand on est en stop
	if ( DrvEventTestEvent(event, CONF_EVENT_TIMER_1S ))
     340:	ce 01       	movw	r24, r28
     342:	62 e0       	ldi	r22, 0x02	; 2
     344:	0e 94 4c 0a 	call	0x1498	; 0x1498 <DrvEventTestEvent>
     348:	88 23       	and	r24, r24
     34a:	21 f0       	breq	.+8      	; 0x354 <CtrlMarcheDispatcher+0x26>
	{
		if( body.move == E_MOVE_STOP )
     34c:	80 91 20 01 	lds	r24, 0x0120
     350:	88 23       	and	r24, r24
     352:	21 f0       	breq	.+8      	; 0x35c <CtrlMarcheDispatcher+0x2e>
		{
			DrvServoSendUartPosition();
		}			
	}
}
     354:	df 91       	pop	r29
     356:	cf 91       	pop	r28
     358:	1f 91       	pop	r17
     35a:	08 95       	ret
	//on envoie la position des servo tte les sec quand on est en stop
	if ( DrvEventTestEvent(event, CONF_EVENT_TIMER_1S ))
	{
		if( body.move == E_MOVE_STOP )
		{
			DrvServoSendUartPosition();
     35c:	0e 94 5b 11 	call	0x22b6	; 0x22b6 <DrvServoSendUartPosition>
		}			
	}
}
     360:	df 91       	pop	r29
     362:	cf 91       	pop	r28
     364:	1f 91       	pop	r17
     366:	08 95       	ret


//on lance les sequence de mouvements du robot
static void CtrlMarcheSequence( void )
{
	if( body.move == E_MOVE_STOP )
     368:	80 91 20 01 	lds	r24, 0x0120
     36c:	88 23       	and	r24, r24
     36e:	71 f1       	breq	.+92     	; 0x3cc <CtrlMarcheDispatcher+0x9e>
				old_move = body.move;
				DrvServoSendUartPosition();
			}
		}		
	}			
	else if( body.move == E_MOVE_SIT_DOWN )
     370:	85 30       	cpi	r24, 0x05	; 5
     372:	09 f4       	brne	.+2      	; 0x376 <CtrlMarcheDispatcher+0x48>
     374:	53 c0       	rjmp	.+166    	; 0x41c <CtrlMarcheDispatcher+0xee>
				old_move = body.move;
				DrvServoSendUartPosition();
			}
		}
	}			
	else if( body.move == E_MOVE_STAR )
     376:	86 30       	cpi	r24, 0x06	; 6
     378:	09 f4       	brne	.+2      	; 0x37c <CtrlMarcheDispatcher+0x4e>
     37a:	91 c0       	rjmp	.+290    	; 0x49e <CtrlMarcheDispatcher+0x170>
				old_move = body.move;
				DrvServoSendUartPosition();
			}
		}
	}
	else if( body.move == E_MOVE_FORWARD )	
     37c:	81 30       	cpi	r24, 0x01	; 1
     37e:	09 f4       	brne	.+2      	; 0x382 <CtrlMarcheDispatcher+0x54>
     380:	cb c0       	rjmp	.+406    	; 0x518 <CtrlMarcheDispatcher+0x1ea>
			CtrlMarcheSequenceForward();
			old_move = body.move;
			DrvServoSendUartPosition();
		}
	}
	else if( body.move == E_MOVE_BACKWARD )
     382:	82 30       	cpi	r24, 0x02	; 2
     384:	a1 f1       	breq	.+104    	; 0x3ee <CtrlMarcheDispatcher+0xc0>
			CtrlMarcheSequenceBackward();
			old_move = body.move;
			DrvServoSendUartPosition();
		}
	}
	else if( body.move == E_MOVE_LEFT )
     386:	83 30       	cpi	r24, 0x03	; 3
     388:	09 f4       	brne	.+2      	; 0x38c <CtrlMarcheDispatcher+0x5e>
     38a:	de c0       	rjmp	.+444    	; 0x548 <CtrlMarcheDispatcher+0x21a>
			CtrlMarcheSequenceLeft();
			old_move = body.move;
			DrvServoSendUartPosition();
		}
	}	
	else if( body.move == E_MOVE_RIGHT )
     38c:	84 30       	cpi	r24, 0x04	; 4
     38e:	c1 f6       	brne	.-80     	; 0x340 <CtrlMarcheDispatcher+0x12>
	{
		//on passe par la sequence de stop avant d'enchainer sur le mouvement
		if( old_move != E_MOVE_RIGHT )
     390:	80 91 00 01 	lds	r24, 0x0100
     394:	84 30       	cpi	r24, 0x04	; 4
     396:	f9 f4       	brne	.+62     	; 0x3d6 <CtrlMarcheDispatcher+0xa8>
}	

static void CtrlMarcheSequenceRight( void ) 
{
	Int8U ret = 0x00U;
	if(step == 0U)
     398:	80 91 1f 01 	lds	r24, 0x011F
     39c:	88 23       	and	r24, r24
     39e:	09 f4       	brne	.+2      	; 0x3a2 <CtrlMarcheDispatcher+0x74>
     3a0:	7f c1       	rjmp	.+766    	; 0x6a0 <CtrlMarcheDispatcher+0x372>
		if( ret == 0x3FU )
		{
			step = 1U;
		}
	}
	else if(step == 1U)
     3a2:	81 30       	cpi	r24, 0x01	; 1
     3a4:	09 f4       	brne	.+2      	; 0x3a8 <CtrlMarcheDispatcher+0x7a>
     3a6:	6e c3       	rjmp	.+1756   	; 0xa84 <CtrlMarcheDispatcher+0x756>
		if( ret == 0x3FU )
		{
			step = 2U;
		}
	}
	else if(step == 2U)
     3a8:	82 30       	cpi	r24, 0x02	; 2
     3aa:	09 f4       	brne	.+2      	; 0x3ae <CtrlMarcheDispatcher+0x80>
     3ac:	2f c4       	rjmp	.+2142   	; 0xc0c <CtrlMarcheDispatcher+0x8de>
		if( ret == 0x3FU )
		{
			step = 3U;
		}
	}
	else if(step == 3U)
     3ae:	83 30       	cpi	r24, 0x03	; 3
     3b0:	09 f4       	brne	.+2      	; 0x3b4 <CtrlMarcheDispatcher+0x86>
     3b2:	e7 c3       	rjmp	.+1998   	; 0xb82 <CtrlMarcheDispatcher+0x854>
		if( ret == 0x3FU )
		{
			step = 4U;
		}
	}
	else if(step == 4U)
     3b4:	84 30       	cpi	r24, 0x04	; 4
     3b6:	09 f4       	brne	.+2      	; 0x3ba <CtrlMarcheDispatcher+0x8c>
     3b8:	9f c3       	rjmp	.+1854   	; 0xaf8 <CtrlMarcheDispatcher+0x7ca>
		if( ret == 0x3FU )
		{
			step = 5U;
		}
	}	
	else if(step == 5U)
     3ba:	85 30       	cpi	r24, 0x05	; 5
     3bc:	09 f4       	brne	.+2      	; 0x3c0 <CtrlMarcheDispatcher+0x92>
     3be:	75 c4       	rjmp	.+2282   	; 0xcaa <CtrlMarcheDispatcher+0x97c>
     3c0:	84 e0       	ldi	r24, 0x04	; 4
			}
		}
		else
		{
			CtrlMarcheSequenceRight();
			old_move = body.move;
     3c2:	80 93 00 01 	sts	0x0100, r24
			DrvServoSendUartPosition();
     3c6:	0e 94 5b 11 	call	0x22b6	; 0x22b6 <DrvServoSendUartPosition>
     3ca:	ba cf       	rjmp	.-140    	; 0x340 <CtrlMarcheDispatcher+0x12>
static void CtrlMarcheSequence( void )
{
	if( body.move == E_MOVE_STOP )
	{
		//on attend que la sequence soit terminer pour ne plus l'entretenir
		if(body.move != old_move)
     3cc:	80 91 00 01 	lds	r24, 0x0100
     3d0:	88 23       	and	r24, r24
     3d2:	09 f4       	brne	.+2      	; 0x3d6 <CtrlMarcheDispatcher+0xa8>
     3d4:	b5 cf       	rjmp	.-150    	; 0x340 <CtrlMarcheDispatcher+0x12>
	else if( body.move == E_MOVE_RIGHT )
	{
		//on passe par la sequence de stop avant d'enchainer sur le mouvement
		if( old_move != E_MOVE_RIGHT )
		{
			if( TRUE == CtrlMarcheSequenceStop())
     3d6:	0e 94 4c 01 	call	0x298	; 0x298 <CtrlMarcheSequenceStop>
     3da:	81 30       	cpi	r24, 0x01	; 1
     3dc:	09 f0       	breq	.+2      	; 0x3e0 <CtrlMarcheDispatcher+0xb2>
     3de:	b0 cf       	rjmp	.-160    	; 0x340 <CtrlMarcheDispatcher+0x12>
			{
				old_move = body.move;
     3e0:	80 91 20 01 	lds	r24, 0x0120
     3e4:	80 93 00 01 	sts	0x0100, r24
				DrvServoSendUartPosition();
     3e8:	0e 94 5b 11 	call	0x22b6	; 0x22b6 <DrvServoSendUartPosition>
     3ec:	a9 cf       	rjmp	.-174    	; 0x340 <CtrlMarcheDispatcher+0x12>
		}
	}
	else if( body.move == E_MOVE_BACKWARD )
	{
		//on passe par la sequence de stop avant d'enchainer sur le mouvement
		if( old_move != E_MOVE_BACKWARD )
     3ee:	80 91 00 01 	lds	r24, 0x0100
     3f2:	82 30       	cpi	r24, 0x02	; 2
     3f4:	81 f7       	brne	.-32     	; 0x3d6 <CtrlMarcheDispatcher+0xa8>
}	

static void CtrlMarcheSequenceBackward( void ) 
{
	Int8U ret = 0x00;
	if(step == 0)
     3f6:	80 91 1f 01 	lds	r24, 0x011F
     3fa:	88 23       	and	r24, r24
     3fc:	09 f4       	brne	.+2      	; 0x400 <CtrlMarcheDispatcher+0xd2>
     3fe:	8d c1       	rjmp	.+794    	; 0x71a <CtrlMarcheDispatcher+0x3ec>
		if( ret == 0x3FU )
		{
			step = 1U;
		}
	}
	else if(step == 1U)
     400:	81 30       	cpi	r24, 0x01	; 1
     402:	09 f4       	brne	.+2      	; 0x406 <CtrlMarcheDispatcher+0xd8>
     404:	01 c3       	rjmp	.+1538   	; 0xa08 <CtrlMarcheDispatcher+0x6da>
		if( ret == 0x3FU )
		{
			step = 2U;
		}
	}
	else if(step == 2U)
     406:	82 30       	cpi	r24, 0x02	; 2
     408:	09 f4       	brne	.+2      	; 0x40c <CtrlMarcheDispatcher+0xde>
     40a:	b1 c1       	rjmp	.+866    	; 0x76e <CtrlMarcheDispatcher+0x440>
		if( ret == 0x3FU )
		{
			step = 3U;
		}
	}
	else if(step == 3U)
     40c:	83 30       	cpi	r24, 0x03	; 3
     40e:	09 f4       	brne	.+2      	; 0x412 <CtrlMarcheDispatcher+0xe4>
     410:	b0 c4       	rjmp	.+2400   	; 0xd72 <CtrlMarcheDispatcher+0xa44>
		if( ret == 0x3FU )
		{
			step = 4U;
		}
	}
	else if(step == 4U)
     412:	84 30       	cpi	r24, 0x04	; 4
     414:	09 f4       	brne	.+2      	; 0x418 <CtrlMarcheDispatcher+0xea>
     416:	ee c1       	rjmp	.+988    	; 0x7f4 <CtrlMarcheDispatcher+0x4c6>
     418:	82 e0       	ldi	r24, 0x02	; 2
     41a:	d3 cf       	rjmp	.-90     	; 0x3c2 <CtrlMarcheDispatcher+0x94>
		}		
	}			
	else if( body.move == E_MOVE_SIT_DOWN )
	{
		//on attend que la sequence soit terminer pour ne plus l'entretenir
		if(body.move != old_move)
     41c:	80 91 00 01 	lds	r24, 0x0100
     420:	85 30       	cpi	r24, 0x05	; 5
     422:	09 f4       	brne	.+2      	; 0x426 <CtrlMarcheDispatcher+0xf8>
     424:	8d cf       	rjmp	.-230    	; 0x340 <CtrlMarcheDispatcher+0x12>
	/*
		-/-| |-\-			max mid |  | mid min
		-/-| |-\-	step 0	max mid |  | mid min
		-/-| |-\-			max mid |  | mid min
	*/
	if( CtrlPatteMove(AVANT_GAUCHE		,	ANGLE_MID_EPAULE	,	ANGLE_MAX_COUDE	,	E_SERVO_VITESSE_5 ) == TRUE )
     426:	80 e0       	ldi	r24, 0x00	; 0
     428:	6a e5       	ldi	r22, 0x5A	; 90
     42a:	46 e4       	ldi	r20, 0x46	; 70
     42c:	20 e0       	ldi	r18, 0x00	; 0
     42e:	0e 94 99 08 	call	0x1132	; 0x1132 <CtrlPatteMove>
	}
}			

static Boolean CtrlMarcheSequenceSitDown( void )
{
	Int8U ret = 0x00;
     432:	11 e0       	ldi	r17, 0x01	; 1
     434:	81 30       	cpi	r24, 0x01	; 1
     436:	09 f0       	breq	.+2      	; 0x43a <CtrlMarcheDispatcher+0x10c>
     438:	10 e0       	ldi	r17, 0x00	; 0
	*/
	if( CtrlPatteMove(AVANT_GAUCHE		,	ANGLE_MID_EPAULE	,	ANGLE_MAX_COUDE	,	E_SERVO_VITESSE_5 ) == TRUE )
	{
		ret |= (1U<<0U);
	}	
	if( CtrlPatteMove(MILIEU_GAUCHE		,	ANGLE_MID_EPAULE	,	ANGLE_MAX_COUDE	,	E_SERVO_VITESSE_5 ) == TRUE )
     43a:	81 e0       	ldi	r24, 0x01	; 1
     43c:	6a e5       	ldi	r22, 0x5A	; 90
     43e:	46 e4       	ldi	r20, 0x46	; 70
     440:	20 e0       	ldi	r18, 0x00	; 0
     442:	0e 94 99 08 	call	0x1132	; 0x1132 <CtrlPatteMove>
     446:	81 30       	cpi	r24, 0x01	; 1
     448:	09 f4       	brne	.+2      	; 0x44c <CtrlMarcheDispatcher+0x11e>
     44a:	db c0       	rjmp	.+438    	; 0x602 <CtrlMarcheDispatcher+0x2d4>
	{
		ret |= (1U<<1U);
	}	
	if( CtrlPatteMove(ARRIERE_GAUCHE	,	ANGLE_MID_EPAULE	,	ANGLE_MAX_COUDE	,	E_SERVO_VITESSE_5 ) == TRUE )
     44c:	82 e0       	ldi	r24, 0x02	; 2
     44e:	6a e5       	ldi	r22, 0x5A	; 90
     450:	46 e4       	ldi	r20, 0x46	; 70
     452:	20 e0       	ldi	r18, 0x00	; 0
     454:	0e 94 99 08 	call	0x1132	; 0x1132 <CtrlPatteMove>
     458:	81 30       	cpi	r24, 0x01	; 1
     45a:	09 f4       	brne	.+2      	; 0x45e <CtrlMarcheDispatcher+0x130>
     45c:	d0 c0       	rjmp	.+416    	; 0x5fe <CtrlMarcheDispatcher+0x2d0>
	{
		ret |= (1U<<2U);
	}	
	if( CtrlPatteMove(AVANT_DROITE		,	ANGLE_MID_EPAULE	,	ANGLE_MIN_COUDE	,	E_SERVO_VITESSE_5 ) == TRUE )
     45e:	83 e0       	ldi	r24, 0x03	; 3
     460:	6a e5       	ldi	r22, 0x5A	; 90
     462:	4e e6       	ldi	r20, 0x6E	; 110
     464:	20 e0       	ldi	r18, 0x00	; 0
     466:	0e 94 99 08 	call	0x1132	; 0x1132 <CtrlPatteMove>
     46a:	81 30       	cpi	r24, 0x01	; 1
     46c:	09 f4       	brne	.+2      	; 0x470 <CtrlMarcheDispatcher+0x142>
     46e:	cb c0       	rjmp	.+406    	; 0x606 <CtrlMarcheDispatcher+0x2d8>
	{
		ret |= (1U<<3U);
	}	
	if( CtrlPatteMove(MILIEU_DROITE		,	ANGLE_MID_EPAULE	,	ANGLE_MIN_COUDE	,	E_SERVO_VITESSE_5 ) == TRUE )
     470:	84 e0       	ldi	r24, 0x04	; 4
     472:	6a e5       	ldi	r22, 0x5A	; 90
     474:	4e e6       	ldi	r20, 0x6E	; 110
     476:	20 e0       	ldi	r18, 0x00	; 0
     478:	0e 94 99 08 	call	0x1132	; 0x1132 <CtrlPatteMove>
     47c:	81 30       	cpi	r24, 0x01	; 1
     47e:	09 f4       	brne	.+2      	; 0x482 <CtrlMarcheDispatcher+0x154>
     480:	bc c0       	rjmp	.+376    	; 0x5fa <CtrlMarcheDispatcher+0x2cc>
	{
		ret |= (1U<<4U);
	}	
	if( CtrlPatteMove(ARRIERE_DROITE	,	ANGLE_MID_EPAULE	,	ANGLE_MIN_COUDE	,	E_SERVO_VITESSE_5 ) == TRUE )
     482:	85 e0       	ldi	r24, 0x05	; 5
     484:	6a e5       	ldi	r22, 0x5A	; 90
     486:	4e e6       	ldi	r20, 0x6E	; 110
     488:	20 e0       	ldi	r18, 0x00	; 0
     48a:	0e 94 99 08 	call	0x1132	; 0x1132 <CtrlPatteMove>
     48e:	81 30       	cpi	r24, 0x01	; 1
     490:	09 f0       	breq	.+2      	; 0x494 <CtrlMarcheDispatcher+0x166>
     492:	56 cf       	rjmp	.-340    	; 0x340 <CtrlMarcheDispatcher+0x12>
	{
		ret |= (1U<<4U);
	}	
	if( CtrlPatteMove(ARRIERE_DROITE	,	ANGLE_MIN_EPAULE	,	ANGLE_MID_COUDE	,	E_SERVO_VITESSE_5 ) == TRUE )
	{
		ret |= (1U<<5U);
     494:	10 62       	ori	r17, 0x20	; 32
	}	
	//quand on est arrivé a la bonne position on change de step	
	if( ret == 0x3FU )
     496:	1f 33       	cpi	r17, 0x3F	; 63
     498:	09 f4       	brne	.+2      	; 0x49c <CtrlMarcheDispatcher+0x16e>
     49a:	a2 cf       	rjmp	.-188    	; 0x3e0 <CtrlMarcheDispatcher+0xb2>
     49c:	51 cf       	rjmp	.-350    	; 0x340 <CtrlMarcheDispatcher+0x12>
		}
	}			
	else if( body.move == E_MOVE_STAR )
	{
		//on attend que la sequence soit terminer pour ne plus l'entretenir
		if(body.move != old_move)
     49e:	80 91 00 01 	lds	r24, 0x0100
     4a2:	86 30       	cpi	r24, 0x06	; 6
     4a4:	09 f4       	brne	.+2      	; 0x4a8 <CtrlMarcheDispatcher+0x17a>
     4a6:	4c cf       	rjmp	.-360    	; 0x340 <CtrlMarcheDispatcher+0x12>
	/*
		-\| |/-			mid min |  | max mid
		--| |--	step 0	mid mid |  | mid mid
		-/| |\-			mid max |  | min mid
	*/
	if( CtrlPatteMove(AVANT_GAUCHE		,	ANGLE_MIN_EPAULE	,	ANGLE_MID_COUDE	,	E_SERVO_VITESSE_5 ) == TRUE )
     4a8:	80 e0       	ldi	r24, 0x00	; 0
     4aa:	62 e8       	ldi	r22, 0x82	; 130
     4ac:	4a e5       	ldi	r20, 0x5A	; 90
     4ae:	20 e0       	ldi	r18, 0x00	; 0
     4b0:	0e 94 99 08 	call	0x1132	; 0x1132 <CtrlPatteMove>
}


static Boolean CtrlMarcheSequenceStar( void )
{
	Int8U ret = 0x00;
     4b4:	11 e0       	ldi	r17, 0x01	; 1
     4b6:	81 30       	cpi	r24, 0x01	; 1
     4b8:	09 f0       	breq	.+2      	; 0x4bc <CtrlMarcheDispatcher+0x18e>
     4ba:	10 e0       	ldi	r17, 0x00	; 0
	*/
	if( CtrlPatteMove(AVANT_GAUCHE		,	ANGLE_MIN_EPAULE	,	ANGLE_MID_COUDE	,	E_SERVO_VITESSE_5 ) == TRUE )
	{
		ret |= (1U<<0U);
	}	
	if( CtrlPatteMove(MILIEU_GAUCHE		,	ANGLE_MID_EPAULE	,	ANGLE_MID_COUDE	,	E_SERVO_VITESSE_5 ) == TRUE )
     4bc:	81 e0       	ldi	r24, 0x01	; 1
     4be:	6a e5       	ldi	r22, 0x5A	; 90
     4c0:	4a e5       	ldi	r20, 0x5A	; 90
     4c2:	20 e0       	ldi	r18, 0x00	; 0
     4c4:	0e 94 99 08 	call	0x1132	; 0x1132 <CtrlPatteMove>
     4c8:	81 30       	cpi	r24, 0x01	; 1
     4ca:	09 f4       	brne	.+2      	; 0x4ce <CtrlMarcheDispatcher+0x1a0>
     4cc:	a4 c0       	rjmp	.+328    	; 0x616 <CtrlMarcheDispatcher+0x2e8>
	{
		ret |= (1U<<1U);
	}	
	if( CtrlPatteMove(ARRIERE_GAUCHE	,	ANGLE_MAX_EPAULE	,	ANGLE_MID_COUDE	,	E_SERVO_VITESSE_5 ) == TRUE )
     4ce:	82 e0       	ldi	r24, 0x02	; 2
     4d0:	62 e3       	ldi	r22, 0x32	; 50
     4d2:	4a e5       	ldi	r20, 0x5A	; 90
     4d4:	20 e0       	ldi	r18, 0x00	; 0
     4d6:	0e 94 99 08 	call	0x1132	; 0x1132 <CtrlPatteMove>
     4da:	81 30       	cpi	r24, 0x01	; 1
     4dc:	09 f4       	brne	.+2      	; 0x4e0 <CtrlMarcheDispatcher+0x1b2>
     4de:	99 c0       	rjmp	.+306    	; 0x612 <CtrlMarcheDispatcher+0x2e4>
	{
		ret |= (1U<<2U);
	}	
	if( CtrlPatteMove(AVANT_DROITE		,	ANGLE_MAX_EPAULE	,	ANGLE_MID_COUDE	,	E_SERVO_VITESSE_5 ) == TRUE )
     4e0:	83 e0       	ldi	r24, 0x03	; 3
     4e2:	62 e3       	ldi	r22, 0x32	; 50
     4e4:	4a e5       	ldi	r20, 0x5A	; 90
     4e6:	20 e0       	ldi	r18, 0x00	; 0
     4e8:	0e 94 99 08 	call	0x1132	; 0x1132 <CtrlPatteMove>
     4ec:	81 30       	cpi	r24, 0x01	; 1
     4ee:	09 f4       	brne	.+2      	; 0x4f2 <CtrlMarcheDispatcher+0x1c4>
     4f0:	8e c0       	rjmp	.+284    	; 0x60e <CtrlMarcheDispatcher+0x2e0>
	{
		ret |= (1U<<3U);
	}	
	if( CtrlPatteMove(MILIEU_DROITE		,	ANGLE_MID_EPAULE	,	ANGLE_MID_COUDE	,	E_SERVO_VITESSE_5 ) == TRUE )
     4f2:	84 e0       	ldi	r24, 0x04	; 4
     4f4:	6a e5       	ldi	r22, 0x5A	; 90
     4f6:	4a e5       	ldi	r20, 0x5A	; 90
     4f8:	20 e0       	ldi	r18, 0x00	; 0
     4fa:	0e 94 99 08 	call	0x1132	; 0x1132 <CtrlPatteMove>
     4fe:	81 30       	cpi	r24, 0x01	; 1
     500:	09 f4       	brne	.+2      	; 0x504 <CtrlMarcheDispatcher+0x1d6>
     502:	83 c0       	rjmp	.+262    	; 0x60a <CtrlMarcheDispatcher+0x2dc>
	{
		ret |= (1U<<4U);
	}	
	if( CtrlPatteMove(ARRIERE_DROITE	,	ANGLE_MIN_EPAULE	,	ANGLE_MID_COUDE	,	E_SERVO_VITESSE_5 ) == TRUE )
     504:	85 e0       	ldi	r24, 0x05	; 5
     506:	62 e8       	ldi	r22, 0x82	; 130
     508:	4a e5       	ldi	r20, 0x5A	; 90
     50a:	20 e0       	ldi	r18, 0x00	; 0
     50c:	0e 94 99 08 	call	0x1132	; 0x1132 <CtrlPatteMove>
     510:	81 30       	cpi	r24, 0x01	; 1
     512:	09 f0       	breq	.+2      	; 0x516 <CtrlMarcheDispatcher+0x1e8>
     514:	15 cf       	rjmp	.-470    	; 0x340 <CtrlMarcheDispatcher+0x12>
     516:	be cf       	rjmp	.-132    	; 0x494 <CtrlMarcheDispatcher+0x166>
		}
	}
	else if( body.move == E_MOVE_FORWARD )	
	{
		//on passe par la sequence de stop avant d'enchainer sur le mouvement
		if( old_move != E_MOVE_FORWARD )
     518:	80 91 00 01 	lds	r24, 0x0100
     51c:	81 30       	cpi	r24, 0x01	; 1
     51e:	09 f0       	breq	.+2      	; 0x522 <CtrlMarcheDispatcher+0x1f4>
     520:	5a cf       	rjmp	.-332    	; 0x3d6 <CtrlMarcheDispatcher+0xa8>
}

static void CtrlMarcheSequenceForward( void )
{
	Int8U ret = 0x00;
	if(step == 0)
     522:	80 91 1f 01 	lds	r24, 0x011F
     526:	88 23       	and	r24, r24
     528:	09 f4       	brne	.+2      	; 0x52c <CtrlMarcheDispatcher+0x1fe>
     52a:	77 c0       	rjmp	.+238    	; 0x61a <CtrlMarcheDispatcher+0x2ec>
		if( ret == 0x3FU )
		{
			step = 1U;
		}
	}
	else if(step == 1U)
     52c:	81 30       	cpi	r24, 0x01	; 1
     52e:	09 f4       	brne	.+2      	; 0x532 <CtrlMarcheDispatcher+0x204>
     530:	df c1       	rjmp	.+958    	; 0x8f0 <CtrlMarcheDispatcher+0x5c2>
		if( ret == 0x3FU )
		{
			step = 2U;
		}
	}
	else if(step == 2U)
     532:	82 30       	cpi	r24, 0x02	; 2
     534:	09 f4       	brne	.+2      	; 0x538 <CtrlMarcheDispatcher+0x20a>
     536:	1b c1       	rjmp	.+566    	; 0x76e <CtrlMarcheDispatcher+0x440>
		if( ret == 0x3FU )
		{
			step = 3U;
		}
	}
	else if(step == 3U)
     538:	83 30       	cpi	r24, 0x03	; 3
     53a:	09 f4       	brne	.+2      	; 0x53e <CtrlMarcheDispatcher+0x210>
     53c:	20 c2       	rjmp	.+1088   	; 0x97e <CtrlMarcheDispatcher+0x650>
		if( ret == 0x3FU )
		{
			step = 4U;
		}
	}
	else if(step == 4U)
     53e:	84 30       	cpi	r24, 0x04	; 4
     540:	09 f4       	brne	.+2      	; 0x544 <CtrlMarcheDispatcher+0x216>
     542:	58 c1       	rjmp	.+688    	; 0x7f4 <CtrlMarcheDispatcher+0x4c6>
     544:	81 e0       	ldi	r24, 0x01	; 1
     546:	3d cf       	rjmp	.-390    	; 0x3c2 <CtrlMarcheDispatcher+0x94>
		}
	}
	else if( body.move == E_MOVE_LEFT )
	{
		//on passe par la sequence de stop avant d'enchainer sur le mouvement
		if( old_move != E_MOVE_LEFT )
     548:	90 91 00 01 	lds	r25, 0x0100
     54c:	93 30       	cpi	r25, 0x03	; 3
     54e:	09 f0       	breq	.+2      	; 0x552 <CtrlMarcheDispatcher+0x224>
     550:	42 cf       	rjmp	.-380    	; 0x3d6 <CtrlMarcheDispatcher+0xa8>
}

static void CtrlMarcheSequenceLeft( void ) 
{
	Int8U ret = 0x00U;
	if(step == 0U)
     552:	90 91 1f 01 	lds	r25, 0x011F
     556:	99 23       	and	r25, r25
     558:	09 f4       	brne	.+2      	; 0x55c <CtrlMarcheDispatcher+0x22e>
     55a:	82 c1       	rjmp	.+772    	; 0x860 <CtrlMarcheDispatcher+0x532>
		if( ret == 0x3FU )
		{
			step = 1U;
		}
	}
	else if(step == 1U)
     55c:	91 30       	cpi	r25, 0x01	; 1
     55e:	09 f4       	brne	.+2      	; 0x562 <CtrlMarcheDispatcher+0x234>
     560:	da c3       	rjmp	.+1972   	; 0xd16 <CtrlMarcheDispatcher+0x9e8>
		if( ret == 0x3FU )
		{
			step = 2U;
		}
	}
	else if(step == 2U)
     562:	92 30       	cpi	r25, 0x02	; 2
     564:	09 f4       	brne	.+2      	; 0x568 <CtrlMarcheDispatcher+0x23a>
     566:	86 c4       	rjmp	.+2316   	; 0xe74 <CtrlMarcheDispatcher+0xb46>
		if( ret == 0x3FU )
		{
			step = 3U;
		}
	}
	else if(step == 3U)
     568:	93 30       	cpi	r25, 0x03	; 3
     56a:	09 f4       	brne	.+2      	; 0x56e <CtrlMarcheDispatcher+0x240>
     56c:	40 c4       	rjmp	.+2176   	; 0xdee <CtrlMarcheDispatcher+0xac0>
		if( ret == 0x3FU )
		{
			step = 4U;
		}
	}
	else if(step == 4U)
     56e:	94 30       	cpi	r25, 0x04	; 4
     570:	09 f4       	brne	.+2      	; 0x574 <CtrlMarcheDispatcher+0x246>
     572:	c6 c4       	rjmp	.+2444   	; 0xf00 <CtrlMarcheDispatcher+0xbd2>
		if( ret == 0x3FU )
		{
			step = 5U;
		}
	}	
	else if(step == 5U)
     574:	95 30       	cpi	r25, 0x05	; 5
     576:	09 f0       	breq	.+2      	; 0x57a <CtrlMarcheDispatcher+0x24c>
     578:	24 cf       	rjmp	.-440    	; 0x3c2 <CtrlMarcheDispatcher+0x94>
		/*
			//| |/\				mid max |  | max mid
			//| |/\		step 5	mid max |  | max mid
			//| |/\				mid max |  | max mid
		*/
		if( CtrlPatteMove(AVANT_GAUCHE		,	ANGLE_MAX_EPAULE	,	ANGLE_MID_COUDE	,	body.speed ) == TRUE )
     57a:	80 e0       	ldi	r24, 0x00	; 0
     57c:	62 e3       	ldi	r22, 0x32	; 50
     57e:	4a e5       	ldi	r20, 0x5A	; 90
     580:	20 91 21 01 	lds	r18, 0x0121
     584:	0e 94 99 08 	call	0x1132	; 0x1132 <CtrlPatteMove>
	}	
}

static void CtrlMarcheSequenceLeft( void ) 
{
	Int8U ret = 0x00U;
     588:	11 e0       	ldi	r17, 0x01	; 1
     58a:	81 30       	cpi	r24, 0x01	; 1
     58c:	09 f0       	breq	.+2      	; 0x590 <CtrlMarcheDispatcher+0x262>
     58e:	10 e0       	ldi	r17, 0x00	; 0
		*/
		if( CtrlPatteMove(AVANT_GAUCHE		,	ANGLE_MAX_EPAULE	,	ANGLE_MID_COUDE	,	body.speed ) == TRUE )
		{
			ret |= (1U<<0U);
		}	
		if( CtrlPatteMove(MILIEU_GAUCHE		,	ANGLE_MAX_EPAULE	,	ANGLE_MID_COUDE	,	body.speed ) == TRUE )
     590:	81 e0       	ldi	r24, 0x01	; 1
     592:	62 e3       	ldi	r22, 0x32	; 50
     594:	4a e5       	ldi	r20, 0x5A	; 90
     596:	20 91 21 01 	lds	r18, 0x0121
     59a:	0e 94 99 08 	call	0x1132	; 0x1132 <CtrlPatteMove>
     59e:	81 30       	cpi	r24, 0x01	; 1
     5a0:	09 f4       	brne	.+2      	; 0x5a4 <CtrlMarcheDispatcher+0x276>
     5a2:	08 c5       	rjmp	.+2576   	; 0xfb4 <CtrlMarcheDispatcher+0xc86>
		{
			ret |= (1U<<1U);
		}	
		if( CtrlPatteMove(ARRIERE_GAUCHE	,	ANGLE_MAX_EPAULE	,	ANGLE_MID_COUDE	,	body.speed ) == TRUE )
     5a4:	82 e0       	ldi	r24, 0x02	; 2
     5a6:	62 e3       	ldi	r22, 0x32	; 50
     5a8:	4a e5       	ldi	r20, 0x5A	; 90
     5aa:	20 91 21 01 	lds	r18, 0x0121
     5ae:	0e 94 99 08 	call	0x1132	; 0x1132 <CtrlPatteMove>
     5b2:	81 30       	cpi	r24, 0x01	; 1
     5b4:	09 f4       	brne	.+2      	; 0x5b8 <CtrlMarcheDispatcher+0x28a>
     5b6:	fc c4       	rjmp	.+2552   	; 0xfb0 <CtrlMarcheDispatcher+0xc82>
		{
			ret |= (1U<<2U);
		}	
		if( CtrlPatteMove(AVANT_DROITE		,	ANGLE_MAX_EPAULE	,	ANGLE_MID_COUDE	,	body.speed ) == TRUE )
     5b8:	83 e0       	ldi	r24, 0x03	; 3
     5ba:	62 e3       	ldi	r22, 0x32	; 50
     5bc:	4a e5       	ldi	r20, 0x5A	; 90
     5be:	20 91 21 01 	lds	r18, 0x0121
     5c2:	0e 94 99 08 	call	0x1132	; 0x1132 <CtrlPatteMove>
     5c6:	81 30       	cpi	r24, 0x01	; 1
     5c8:	09 f4       	brne	.+2      	; 0x5cc <CtrlMarcheDispatcher+0x29e>
     5ca:	f0 c4       	rjmp	.+2528   	; 0xfac <CtrlMarcheDispatcher+0xc7e>
		{
			ret |= (1U<<3U);
		}	
		if( CtrlPatteMove(MILIEU_DROITE		,	ANGLE_MAX_EPAULE	,	ANGLE_MID_COUDE	,	body.speed ) == TRUE )
     5cc:	84 e0       	ldi	r24, 0x04	; 4
     5ce:	62 e3       	ldi	r22, 0x32	; 50
     5d0:	4a e5       	ldi	r20, 0x5A	; 90
     5d2:	20 91 21 01 	lds	r18, 0x0121
     5d6:	0e 94 99 08 	call	0x1132	; 0x1132 <CtrlPatteMove>
     5da:	81 30       	cpi	r24, 0x01	; 1
     5dc:	09 f4       	brne	.+2      	; 0x5e0 <CtrlMarcheDispatcher+0x2b2>
     5de:	e4 c4       	rjmp	.+2504   	; 0xfa8 <CtrlMarcheDispatcher+0xc7a>
		{
			ret |= (1U<<4U);
		}	
		if( CtrlPatteMove(ARRIERE_DROITE	,	ANGLE_MAX_EPAULE	,	ANGLE_MID_COUDE	,	body.speed ) == TRUE )
     5e0:	85 e0       	ldi	r24, 0x05	; 5
     5e2:	62 e3       	ldi	r22, 0x32	; 50
		}	
		if( CtrlPatteMove(MILIEU_DROITE		,	ANGLE_MIN_EPAULE	,	ANGLE_MID_COUDE	,	body.speed ) == TRUE )
		{
			ret |= (1U<<4U);
		}	
		if( CtrlPatteMove(ARRIERE_DROITE	,	ANGLE_MIN_EPAULE	,	ANGLE_MID_COUDE	,	body.speed ) == TRUE )
     5e4:	4a e5       	ldi	r20, 0x5A	; 90
     5e6:	20 91 21 01 	lds	r18, 0x0121
     5ea:	0e 94 99 08 	call	0x1132	; 0x1132 <CtrlPatteMove>
     5ee:	81 30       	cpi	r24, 0x01	; 1
     5f0:	09 f4       	brne	.+2      	; 0x5f4 <CtrlMarcheDispatcher+0x2c6>
     5f2:	cb c4       	rjmp	.+2454   	; 0xf8a <CtrlMarcheDispatcher+0xc5c>
			ret |= (1U<<5U);
		}	
		//quand on est arrivé a la bonne position on change de step	
		if( ret == 0x3FU )
		{
			step = 4U;
     5f4:	80 91 20 01 	lds	r24, 0x0120
     5f8:	e4 ce       	rjmp	.-568    	; 0x3c2 <CtrlMarcheDispatcher+0x94>
	{
		ret |= (1U<<3U);
	}	
	if( CtrlPatteMove(MILIEU_DROITE		,	ANGLE_MID_EPAULE	,	ANGLE_MIN_COUDE	,	E_SERVO_VITESSE_5 ) == TRUE )
	{
		ret |= (1U<<4U);
     5fa:	10 61       	ori	r17, 0x10	; 16
     5fc:	42 cf       	rjmp	.-380    	; 0x482 <CtrlMarcheDispatcher+0x154>
	{
		ret |= (1U<<1U);
	}	
	if( CtrlPatteMove(ARRIERE_GAUCHE	,	ANGLE_MID_EPAULE	,	ANGLE_MAX_COUDE	,	E_SERVO_VITESSE_5 ) == TRUE )
	{
		ret |= (1U<<2U);
     5fe:	14 60       	ori	r17, 0x04	; 4
     600:	2e cf       	rjmp	.-420    	; 0x45e <CtrlMarcheDispatcher+0x130>
	{
		ret |= (1U<<0U);
	}	
	if( CtrlPatteMove(MILIEU_GAUCHE		,	ANGLE_MID_EPAULE	,	ANGLE_MAX_COUDE	,	E_SERVO_VITESSE_5 ) == TRUE )
	{
		ret |= (1U<<1U);
     602:	12 60       	ori	r17, 0x02	; 2
     604:	23 cf       	rjmp	.-442    	; 0x44c <CtrlMarcheDispatcher+0x11e>
	{
		ret |= (1U<<2U);
	}	
	if( CtrlPatteMove(AVANT_DROITE		,	ANGLE_MID_EPAULE	,	ANGLE_MIN_COUDE	,	E_SERVO_VITESSE_5 ) == TRUE )
	{
		ret |= (1U<<3U);
     606:	18 60       	ori	r17, 0x08	; 8
     608:	33 cf       	rjmp	.-410    	; 0x470 <CtrlMarcheDispatcher+0x142>
	{
		ret |= (1U<<3U);
	}	
	if( CtrlPatteMove(MILIEU_DROITE		,	ANGLE_MID_EPAULE	,	ANGLE_MID_COUDE	,	E_SERVO_VITESSE_5 ) == TRUE )
	{
		ret |= (1U<<4U);
     60a:	10 61       	ori	r17, 0x10	; 16
     60c:	7b cf       	rjmp	.-266    	; 0x504 <CtrlMarcheDispatcher+0x1d6>
	{
		ret |= (1U<<2U);
	}	
	if( CtrlPatteMove(AVANT_DROITE		,	ANGLE_MAX_EPAULE	,	ANGLE_MID_COUDE	,	E_SERVO_VITESSE_5 ) == TRUE )
	{
		ret |= (1U<<3U);
     60e:	18 60       	ori	r17, 0x08	; 8
     610:	70 cf       	rjmp	.-288    	; 0x4f2 <CtrlMarcheDispatcher+0x1c4>
	{
		ret |= (1U<<1U);
	}	
	if( CtrlPatteMove(ARRIERE_GAUCHE	,	ANGLE_MAX_EPAULE	,	ANGLE_MID_COUDE	,	E_SERVO_VITESSE_5 ) == TRUE )
	{
		ret |= (1U<<2U);
     612:	14 60       	ori	r17, 0x04	; 4
     614:	65 cf       	rjmp	.-310    	; 0x4e0 <CtrlMarcheDispatcher+0x1b2>
	{
		ret |= (1U<<0U);
	}	
	if( CtrlPatteMove(MILIEU_GAUCHE		,	ANGLE_MID_EPAULE	,	ANGLE_MID_COUDE	,	E_SERVO_VITESSE_5 ) == TRUE )
	{
		ret |= (1U<<1U);
     616:	12 60       	ori	r17, 0x02	; 2
     618:	5a cf       	rjmp	.-332    	; 0x4ce <CtrlMarcheDispatcher+0x1a0>
		/*
			/-| |-/				mid mid |  | mid max
			\-| |-\		step 0	min mid |  | mid mid
			/-| |-/				mid mid |  | mid max
		*/
		if( CtrlPatteMove(AVANT_GAUCHE		,	ANGLE_MID_EPAULE	,	ANGLE_MID_COUDE	,	body.speed ) == TRUE )
     61a:	6a e5       	ldi	r22, 0x5A	; 90
     61c:	4a e5       	ldi	r20, 0x5A	; 90
     61e:	20 91 21 01 	lds	r18, 0x0121
     622:	0e 94 99 08 	call	0x1132	; 0x1132 <CtrlPatteMove>
	}
}

static void CtrlMarcheSequenceForward( void )
{
	Int8U ret = 0x00;
     626:	11 e0       	ldi	r17, 0x01	; 1
     628:	81 30       	cpi	r24, 0x01	; 1
     62a:	09 f0       	breq	.+2      	; 0x62e <CtrlMarcheDispatcher+0x300>
     62c:	10 e0       	ldi	r17, 0x00	; 0
		*/
		if( CtrlPatteMove(AVANT_GAUCHE		,	ANGLE_MID_EPAULE	,	ANGLE_MID_COUDE	,	body.speed ) == TRUE )
		{
			ret |= (1U<<0U);
		}	
		if( CtrlPatteMove(MILIEU_GAUCHE		,	ANGLE_MID_EPAULE	,	ANGLE_MIN_COUDE,	body.speed ) == TRUE )
     62e:	81 e0       	ldi	r24, 0x01	; 1
     630:	6a e5       	ldi	r22, 0x5A	; 90
     632:	4e e6       	ldi	r20, 0x6E	; 110
     634:	20 91 21 01 	lds	r18, 0x0121
     638:	0e 94 99 08 	call	0x1132	; 0x1132 <CtrlPatteMove>
     63c:	81 30       	cpi	r24, 0x01	; 1
     63e:	09 f4       	brne	.+2      	; 0x642 <CtrlMarcheDispatcher+0x314>
     640:	59 c2       	rjmp	.+1202   	; 0xaf4 <CtrlMarcheDispatcher+0x7c6>
		{
			ret |= (1U<<1U);
		}	
		if( CtrlPatteMove(ARRIERE_GAUCHE	,	ANGLE_MID_EPAULE	,	ANGLE_MID_COUDE	,	body.speed ) == TRUE )
     642:	82 e0       	ldi	r24, 0x02	; 2
     644:	6a e5       	ldi	r22, 0x5A	; 90
     646:	4a e5       	ldi	r20, 0x5A	; 90
     648:	20 91 21 01 	lds	r18, 0x0121
     64c:	0e 94 99 08 	call	0x1132	; 0x1132 <CtrlPatteMove>
     650:	81 30       	cpi	r24, 0x01	; 1
     652:	09 f4       	brne	.+2      	; 0x656 <CtrlMarcheDispatcher+0x328>
     654:	4d c2       	rjmp	.+1178   	; 0xaf0 <CtrlMarcheDispatcher+0x7c2>
		{
			ret |= (1U<<2U);
		}	
		if( CtrlPatteMove(AVANT_DROITE		,	ANGLE_MID_EPAULE	,	ANGLE_MAX_COUDE	,	body.speed ) == TRUE )
     656:	83 e0       	ldi	r24, 0x03	; 3
     658:	6a e5       	ldi	r22, 0x5A	; 90
     65a:	46 e4       	ldi	r20, 0x46	; 70
     65c:	20 91 21 01 	lds	r18, 0x0121
     660:	0e 94 99 08 	call	0x1132	; 0x1132 <CtrlPatteMove>
     664:	81 30       	cpi	r24, 0x01	; 1
     666:	09 f4       	brne	.+2      	; 0x66a <CtrlMarcheDispatcher+0x33c>
     668:	80 c0       	rjmp	.+256    	; 0x76a <CtrlMarcheDispatcher+0x43c>
		}	
		if( CtrlPatteMove(AVANT_DROITE		,	ANGLE_MID_EPAULE	,	ANGLE_MAX_EPAULE	,	body.speed ) == TRUE )
		{
			ret |= (1U<<3U);
		}	
		if( CtrlPatteMove(MILIEU_DROITE		,	ANGLE_MID_EPAULE	,	ANGLE_MID_COUDE	,	body.speed ) == TRUE )
     66a:	84 e0       	ldi	r24, 0x04	; 4
     66c:	6a e5       	ldi	r22, 0x5A	; 90
     66e:	4a e5       	ldi	r20, 0x5A	; 90
     670:	20 91 21 01 	lds	r18, 0x0121
     674:	0e 94 99 08 	call	0x1132	; 0x1132 <CtrlPatteMove>
     678:	81 30       	cpi	r24, 0x01	; 1
     67a:	09 f4       	brne	.+2      	; 0x67e <CtrlMarcheDispatcher+0x350>
     67c:	37 c1       	rjmp	.+622    	; 0x8ec <CtrlMarcheDispatcher+0x5be>
		{
			ret |= (1U<<4U);
		}	
		if( CtrlPatteMove(ARRIERE_DROITE	,	ANGLE_MID_EPAULE	,	ANGLE_MAX_COUDE	,	body.speed ) == TRUE )
     67e:	85 e0       	ldi	r24, 0x05	; 5
     680:	6a e5       	ldi	r22, 0x5A	; 90
		}	
		if( CtrlPatteMove(MILIEU_DROITE		,	ANGLE_MIN_EPAULE	,	ANGLE_MID_COUDE	,	body.speed ) == TRUE )
		{
			ret |= (1U<<4U);
		}	
		if( CtrlPatteMove(ARRIERE_DROITE	,	ANGLE_MAX_EPAULE	,	ANGLE_MAX_COUDE	,	body.speed ) == TRUE )
     682:	46 e4       	ldi	r20, 0x46	; 70
     684:	20 91 21 01 	lds	r18, 0x0121
     688:	0e 94 99 08 	call	0x1132	; 0x1132 <CtrlPatteMove>
     68c:	81 30       	cpi	r24, 0x01	; 1
     68e:	09 f0       	breq	.+2      	; 0x692 <CtrlMarcheDispatcher+0x364>
     690:	b1 cf       	rjmp	.-158    	; 0x5f4 <CtrlMarcheDispatcher+0x2c6>
		{
			ret |= (1U<<4U);
		}	
		if( CtrlPatteMove(ARRIERE_DROITE	,	ANGLE_MAX_EPAULE	,	ANGLE_MID_COUDE	,	body.speed ) == TRUE )
		{
			ret |= (1U<<5U);
     692:	10 62       	ori	r17, 0x20	; 32
		}	
		//quand on est arrivé a la bonne position on change de step	
		if( ret == 0x3FU )
     694:	1f 33       	cpi	r17, 0x3F	; 63
     696:	09 f0       	breq	.+2      	; 0x69a <CtrlMarcheDispatcher+0x36c>
     698:	ad cf       	rjmp	.-166    	; 0x5f4 <CtrlMarcheDispatcher+0x2c6>
			ret |= (1U<<5U);
		}	
		//quand on est arrivé a la bonne position on change de step	
		if( ret == 0x3FU )
		{
			step = 4U;
     69a:	80 93 1f 01 	sts	0x011F, r24
     69e:	aa cf       	rjmp	.-172    	; 0x5f4 <CtrlMarcheDispatcher+0x2c6>
		/*
			//| |/\				mid max |  | max mid
			//| |/\		step 0	mid max |  | max mid
			//| |/\				mid max |  | max mid
		*/
		if( CtrlPatteMove(AVANT_GAUCHE		,	ANGLE_MAX_EPAULE	,	ANGLE_MID_COUDE	,	body.speed ) == TRUE )
     6a0:	62 e3       	ldi	r22, 0x32	; 50
     6a2:	4a e5       	ldi	r20, 0x5A	; 90
     6a4:	20 91 21 01 	lds	r18, 0x0121
     6a8:	0e 94 99 08 	call	0x1132	; 0x1132 <CtrlPatteMove>
	}
}	

static void CtrlMarcheSequenceRight( void ) 
{
	Int8U ret = 0x00U;
     6ac:	11 e0       	ldi	r17, 0x01	; 1
     6ae:	81 30       	cpi	r24, 0x01	; 1
     6b0:	09 f0       	breq	.+2      	; 0x6b4 <CtrlMarcheDispatcher+0x386>
     6b2:	10 e0       	ldi	r17, 0x00	; 0
		*/
		if( CtrlPatteMove(AVANT_GAUCHE		,	ANGLE_MAX_EPAULE	,	ANGLE_MID_COUDE	,	body.speed ) == TRUE )
		{
			ret |= (1U<<0U);
		}	
		if( CtrlPatteMove(MILIEU_GAUCHE		,	ANGLE_MAX_EPAULE	,	ANGLE_MID_COUDE	,	body.speed ) == TRUE )
     6b4:	81 e0       	ldi	r24, 0x01	; 1
     6b6:	62 e3       	ldi	r22, 0x32	; 50
     6b8:	4a e5       	ldi	r20, 0x5A	; 90
     6ba:	20 91 21 01 	lds	r18, 0x0121
     6be:	0e 94 99 08 	call	0x1132	; 0x1132 <CtrlPatteMove>
     6c2:	81 30       	cpi	r24, 0x01	; 1
     6c4:	09 f4       	brne	.+2      	; 0x6c8 <CtrlMarcheDispatcher+0x39a>
     6c6:	12 c4       	rjmp	.+2084   	; 0xeec <CtrlMarcheDispatcher+0xbbe>
		{
			ret |= (1U<<1U);
		}	
		if( CtrlPatteMove(ARRIERE_GAUCHE	,	ANGLE_MAX_EPAULE	,	ANGLE_MID_COUDE	,	body.speed ) == TRUE )
     6c8:	82 e0       	ldi	r24, 0x02	; 2
     6ca:	62 e3       	ldi	r22, 0x32	; 50
     6cc:	4a e5       	ldi	r20, 0x5A	; 90
     6ce:	20 91 21 01 	lds	r18, 0x0121
     6d2:	0e 94 99 08 	call	0x1132	; 0x1132 <CtrlPatteMove>
     6d6:	81 30       	cpi	r24, 0x01	; 1
     6d8:	09 f4       	brne	.+2      	; 0x6dc <CtrlMarcheDispatcher+0x3ae>
     6da:	06 c4       	rjmp	.+2060   	; 0xee8 <CtrlMarcheDispatcher+0xbba>
		{
			ret |= (1U<<2U);
		}	
		if( CtrlPatteMove(AVANT_DROITE		,	ANGLE_MAX_EPAULE	,	ANGLE_MID_COUDE	,	body.speed ) == TRUE )
     6dc:	83 e0       	ldi	r24, 0x03	; 3
     6de:	62 e3       	ldi	r22, 0x32	; 50
     6e0:	4a e5       	ldi	r20, 0x5A	; 90
     6e2:	20 91 21 01 	lds	r18, 0x0121
     6e6:	0e 94 99 08 	call	0x1132	; 0x1132 <CtrlPatteMove>
     6ea:	81 30       	cpi	r24, 0x01	; 1
     6ec:	09 f4       	brne	.+2      	; 0x6f0 <CtrlMarcheDispatcher+0x3c2>
     6ee:	fa c3       	rjmp	.+2036   	; 0xee4 <CtrlMarcheDispatcher+0xbb6>
		{
			ret |= (1U<<3U);
		}	
		if( CtrlPatteMove(MILIEU_DROITE		,	ANGLE_MAX_EPAULE	,	ANGLE_MID_COUDE	,	body.speed ) == TRUE )
     6f0:	84 e0       	ldi	r24, 0x04	; 4
     6f2:	62 e3       	ldi	r22, 0x32	; 50
     6f4:	4a e5       	ldi	r20, 0x5A	; 90
     6f6:	20 91 21 01 	lds	r18, 0x0121
     6fa:	0e 94 99 08 	call	0x1132	; 0x1132 <CtrlPatteMove>
     6fe:	81 30       	cpi	r24, 0x01	; 1
     700:	09 f4       	brne	.+2      	; 0x704 <CtrlMarcheDispatcher+0x3d6>
     702:	ee c3       	rjmp	.+2012   	; 0xee0 <CtrlMarcheDispatcher+0xbb2>
		{
			ret |= (1U<<4U);
		}	
		if( CtrlPatteMove(ARRIERE_DROITE	,	ANGLE_MAX_EPAULE	,	ANGLE_MID_COUDE	,	body.speed ) == TRUE )
     704:	85 e0       	ldi	r24, 0x05	; 5
     706:	62 e3       	ldi	r22, 0x32	; 50
     708:	4a e5       	ldi	r20, 0x5A	; 90
     70a:	20 91 21 01 	lds	r18, 0x0121
     70e:	0e 94 99 08 	call	0x1132	; 0x1132 <CtrlPatteMove>
     712:	81 30       	cpi	r24, 0x01	; 1
     714:	09 f0       	breq	.+2      	; 0x718 <CtrlMarcheDispatcher+0x3ea>
     716:	6e cf       	rjmp	.-292    	; 0x5f4 <CtrlMarcheDispatcher+0x2c6>
     718:	bc cf       	rjmp	.-136    	; 0x692 <CtrlMarcheDispatcher+0x364>
		/*
			/-| |-/				mid mid |  | mid max
			\-| |-\		step 0	min mid |  | mid mid
			/-| |-/				mid mid |  | mid max
		*/
		if( CtrlPatteMove(AVANT_GAUCHE		,	ANGLE_MID_EPAULE	,	ANGLE_MID_COUDE	,	body.speed ) == TRUE )
     71a:	6a e5       	ldi	r22, 0x5A	; 90
     71c:	4a e5       	ldi	r20, 0x5A	; 90
     71e:	20 91 21 01 	lds	r18, 0x0121
     722:	0e 94 99 08 	call	0x1132	; 0x1132 <CtrlPatteMove>
	}
}	

static void CtrlMarcheSequenceBackward( void ) 
{
	Int8U ret = 0x00;
     726:	11 e0       	ldi	r17, 0x01	; 1
     728:	81 30       	cpi	r24, 0x01	; 1
     72a:	09 f0       	breq	.+2      	; 0x72e <CtrlMarcheDispatcher+0x400>
     72c:	10 e0       	ldi	r17, 0x00	; 0
		*/
		if( CtrlPatteMove(AVANT_GAUCHE		,	ANGLE_MID_EPAULE	,	ANGLE_MID_COUDE	,	body.speed ) == TRUE )
		{
			ret |= (1U<<0U);
		}	
		if( CtrlPatteMove(MILIEU_GAUCHE		,	ANGLE_MID_EPAULE	,	ANGLE_MIN_EPAULE	,	body.speed ) == TRUE )
     72e:	81 e0       	ldi	r24, 0x01	; 1
     730:	6a e5       	ldi	r22, 0x5A	; 90
     732:	42 e8       	ldi	r20, 0x82	; 130
     734:	20 91 21 01 	lds	r18, 0x0121
     738:	0e 94 99 08 	call	0x1132	; 0x1132 <CtrlPatteMove>
     73c:	81 30       	cpi	r24, 0x01	; 1
     73e:	09 f4       	brne	.+2      	; 0x742 <CtrlMarcheDispatcher+0x414>
     740:	63 c2       	rjmp	.+1222   	; 0xc08 <CtrlMarcheDispatcher+0x8da>
		{
			ret |= (1U<<1U);
		}	
		if( CtrlPatteMove(ARRIERE_GAUCHE	,	ANGLE_MID_EPAULE	,	ANGLE_MID_COUDE	,	body.speed ) == TRUE )
     742:	82 e0       	ldi	r24, 0x02	; 2
     744:	6a e5       	ldi	r22, 0x5A	; 90
     746:	4a e5       	ldi	r20, 0x5A	; 90
     748:	20 91 21 01 	lds	r18, 0x0121
     74c:	0e 94 99 08 	call	0x1132	; 0x1132 <CtrlPatteMove>
     750:	81 30       	cpi	r24, 0x01	; 1
     752:	09 f4       	brne	.+2      	; 0x756 <CtrlMarcheDispatcher+0x428>
     754:	0c c3       	rjmp	.+1560   	; 0xd6e <CtrlMarcheDispatcher+0xa40>
		{
			ret |= (1U<<2U);
		}	
		if( CtrlPatteMove(AVANT_DROITE		,	ANGLE_MID_EPAULE	,	ANGLE_MAX_EPAULE	,	body.speed ) == TRUE )
     756:	83 e0       	ldi	r24, 0x03	; 3
     758:	6a e5       	ldi	r22, 0x5A	; 90
     75a:	42 e3       	ldi	r20, 0x32	; 50
     75c:	20 91 21 01 	lds	r18, 0x0121
     760:	0e 94 99 08 	call	0x1132	; 0x1132 <CtrlPatteMove>
     764:	81 30       	cpi	r24, 0x01	; 1
     766:	09 f0       	breq	.+2      	; 0x76a <CtrlMarcheDispatcher+0x43c>
     768:	80 cf       	rjmp	.-256    	; 0x66a <CtrlMarcheDispatcher+0x33c>
		{
			ret |= (1U<<3U);
     76a:	18 60       	ori	r17, 0x08	; 8
     76c:	7e cf       	rjmp	.-260    	; 0x66a <CtrlMarcheDispatcher+0x33c>
		/*
			\\| |\\				min min |  | min mid
			//| |//		step 2	mid max |  | max max
			\\| |\\				min min |  | min mid
		*/
		if( CtrlPatteMove(AVANT_GAUCHE		,	ANGLE_MIN_EPAULE	,	ANGLE_MIN_COUDE	,	body.speed ) == TRUE )
     76e:	80 e0       	ldi	r24, 0x00	; 0
     770:	62 e8       	ldi	r22, 0x82	; 130
     772:	4e e6       	ldi	r20, 0x6E	; 110
     774:	20 91 21 01 	lds	r18, 0x0121
     778:	0e 94 99 08 	call	0x1132	; 0x1132 <CtrlPatteMove>
	}
}	

static void CtrlMarcheSequenceBackward( void ) 
{
	Int8U ret = 0x00;
     77c:	11 e0       	ldi	r17, 0x01	; 1
     77e:	81 30       	cpi	r24, 0x01	; 1
     780:	09 f0       	breq	.+2      	; 0x784 <CtrlMarcheDispatcher+0x456>
     782:	10 e0       	ldi	r17, 0x00	; 0
		*/
		if( CtrlPatteMove(AVANT_GAUCHE		,	ANGLE_MIN_EPAULE	,	ANGLE_MIN_COUDE	,	body.speed ) == TRUE )
		{
			ret |= (1U<<0U);
		}	
		if( CtrlPatteMove(MILIEU_GAUCHE		,	ANGLE_MAX_EPAULE	,	ANGLE_MID_COUDE	,	body.speed ) == TRUE )
     784:	81 e0       	ldi	r24, 0x01	; 1
     786:	62 e3       	ldi	r22, 0x32	; 50
     788:	4a e5       	ldi	r20, 0x5A	; 90
     78a:	20 91 21 01 	lds	r18, 0x0121
     78e:	0e 94 99 08 	call	0x1132	; 0x1132 <CtrlPatteMove>
     792:	81 30       	cpi	r24, 0x01	; 1
     794:	09 f4       	brne	.+2      	; 0x798 <CtrlMarcheDispatcher+0x46a>
     796:	b2 c3       	rjmp	.+1892   	; 0xefc <CtrlMarcheDispatcher+0xbce>
		{
			ret |= (1U<<1U);
		}	
		if( CtrlPatteMove(ARRIERE_GAUCHE	,	ANGLE_MIN_EPAULE	,	ANGLE_MIN_COUDE	,	body.speed ) == TRUE )
     798:	82 e0       	ldi	r24, 0x02	; 2
     79a:	62 e8       	ldi	r22, 0x82	; 130
     79c:	4e e6       	ldi	r20, 0x6E	; 110
     79e:	20 91 21 01 	lds	r18, 0x0121
     7a2:	0e 94 99 08 	call	0x1132	; 0x1132 <CtrlPatteMove>
     7a6:	81 30       	cpi	r24, 0x01	; 1
     7a8:	09 f4       	brne	.+2      	; 0x7ac <CtrlMarcheDispatcher+0x47e>
     7aa:	a6 c3       	rjmp	.+1868   	; 0xef8 <CtrlMarcheDispatcher+0xbca>
		{
			ret |= (1U<<2U);
		}	
		if( CtrlPatteMove(AVANT_DROITE		,	ANGLE_MIN_EPAULE	,	ANGLE_MID_COUDE	,	body.speed ) == TRUE )
     7ac:	83 e0       	ldi	r24, 0x03	; 3
     7ae:	62 e8       	ldi	r22, 0x82	; 130
     7b0:	4a e5       	ldi	r20, 0x5A	; 90
     7b2:	20 91 21 01 	lds	r18, 0x0121
     7b6:	0e 94 99 08 	call	0x1132	; 0x1132 <CtrlPatteMove>
     7ba:	81 30       	cpi	r24, 0x01	; 1
     7bc:	09 f4       	brne	.+2      	; 0x7c0 <CtrlMarcheDispatcher+0x492>
     7be:	9a c3       	rjmp	.+1844   	; 0xef4 <CtrlMarcheDispatcher+0xbc6>
		{
			ret |= (1U<<3U);
		}	
		if( CtrlPatteMove(MILIEU_DROITE		,	ANGLE_MAX_EPAULE	,	ANGLE_MAX_COUDE	,	body.speed ) == TRUE )
     7c0:	84 e0       	ldi	r24, 0x04	; 4
     7c2:	62 e3       	ldi	r22, 0x32	; 50
     7c4:	46 e4       	ldi	r20, 0x46	; 70
     7c6:	20 91 21 01 	lds	r18, 0x0121
     7ca:	0e 94 99 08 	call	0x1132	; 0x1132 <CtrlPatteMove>
     7ce:	81 30       	cpi	r24, 0x01	; 1
     7d0:	09 f4       	brne	.+2      	; 0x7d4 <CtrlMarcheDispatcher+0x4a6>
     7d2:	8e c3       	rjmp	.+1820   	; 0xef0 <CtrlMarcheDispatcher+0xbc2>
		{
			ret |= (1U<<4U);
		}	
		if( CtrlPatteMove(ARRIERE_DROITE	,	ANGLE_MIN_EPAULE	,	ANGLE_MID_COUDE	,	body.speed ) == TRUE )
     7d4:	85 e0       	ldi	r24, 0x05	; 5
     7d6:	62 e8       	ldi	r22, 0x82	; 130
     7d8:	4a e5       	ldi	r20, 0x5A	; 90
     7da:	20 91 21 01 	lds	r18, 0x0121
     7de:	0e 94 99 08 	call	0x1132	; 0x1132 <CtrlPatteMove>
     7e2:	81 30       	cpi	r24, 0x01	; 1
     7e4:	09 f0       	breq	.+2      	; 0x7e8 <CtrlMarcheDispatcher+0x4ba>
     7e6:	06 cf       	rjmp	.-500    	; 0x5f4 <CtrlMarcheDispatcher+0x2c6>
		{
			ret |= (1U<<5U);
     7e8:	10 62       	ori	r17, 0x20	; 32
		}		
		//quand on est arrivé a la bonne position on change de step	
		if( ret == 0x3FU )
     7ea:	1f 33       	cpi	r17, 0x3F	; 63
     7ec:	09 f0       	breq	.+2      	; 0x7f0 <CtrlMarcheDispatcher+0x4c2>
     7ee:	02 cf       	rjmp	.-508    	; 0x5f4 <CtrlMarcheDispatcher+0x2c6>
		{
			step = 3U;
     7f0:	83 e0       	ldi	r24, 0x03	; 3
     7f2:	53 cf       	rjmp	.-346    	; 0x69a <CtrlMarcheDispatcher+0x36c>
		/*
			//| |//				mid max |  | max max
			\\| |\\		step 4	min min |  | min mid
			//| |//				mid max |  | max max
		*/
		if( CtrlPatteMove(AVANT_GAUCHE		,	ANGLE_MAX_EPAULE	,	ANGLE_MID_COUDE	,	body.speed ) == TRUE )
     7f4:	80 e0       	ldi	r24, 0x00	; 0
     7f6:	62 e3       	ldi	r22, 0x32	; 50
     7f8:	4a e5       	ldi	r20, 0x5A	; 90
     7fa:	20 91 21 01 	lds	r18, 0x0121
     7fe:	0e 94 99 08 	call	0x1132	; 0x1132 <CtrlPatteMove>
	}
}	

static void CtrlMarcheSequenceBackward( void ) 
{
	Int8U ret = 0x00;
     802:	11 e0       	ldi	r17, 0x01	; 1
     804:	81 30       	cpi	r24, 0x01	; 1
     806:	09 f0       	breq	.+2      	; 0x80a <CtrlMarcheDispatcher+0x4dc>
     808:	10 e0       	ldi	r17, 0x00	; 0
		*/
		if( CtrlPatteMove(AVANT_GAUCHE		,	ANGLE_MAX_EPAULE	,	ANGLE_MID_COUDE	,	body.speed ) == TRUE )
		{
			ret |= (1U<<0U);
		}	
		if( CtrlPatteMove(MILIEU_GAUCHE		,	ANGLE_MIN_EPAULE	,	ANGLE_MIN_COUDE	,	body.speed ) == TRUE )
     80a:	81 e0       	ldi	r24, 0x01	; 1
     80c:	62 e8       	ldi	r22, 0x82	; 130
     80e:	4e e6       	ldi	r20, 0x6E	; 110
     810:	20 91 21 01 	lds	r18, 0x0121
     814:	0e 94 99 08 	call	0x1132	; 0x1132 <CtrlPatteMove>
     818:	81 30       	cpi	r24, 0x01	; 1
     81a:	09 f4       	brne	.+2      	; 0x81e <CtrlMarcheDispatcher+0x4f0>
     81c:	44 c2       	rjmp	.+1160   	; 0xca6 <CtrlMarcheDispatcher+0x978>
		{
			ret |= (1U<<1U);
		}	
		if( CtrlPatteMove(ARRIERE_GAUCHE	,	ANGLE_MAX_EPAULE	,	ANGLE_MID_COUDE	,	body.speed ) == TRUE )
     81e:	82 e0       	ldi	r24, 0x02	; 2
     820:	62 e3       	ldi	r22, 0x32	; 50
     822:	4a e5       	ldi	r20, 0x5A	; 90
     824:	20 91 21 01 	lds	r18, 0x0121
     828:	0e 94 99 08 	call	0x1132	; 0x1132 <CtrlPatteMove>
     82c:	81 30       	cpi	r24, 0x01	; 1
     82e:	09 f4       	brne	.+2      	; 0x832 <CtrlMarcheDispatcher+0x504>
     830:	38 c2       	rjmp	.+1136   	; 0xca2 <CtrlMarcheDispatcher+0x974>
		{
			ret |= (1U<<2U);
		}	
		if( CtrlPatteMove(AVANT_DROITE		,	ANGLE_MAX_EPAULE	,	ANGLE_MAX_COUDE	,	body.speed ) == TRUE )
     832:	83 e0       	ldi	r24, 0x03	; 3
     834:	62 e3       	ldi	r22, 0x32	; 50
     836:	46 e4       	ldi	r20, 0x46	; 70
     838:	20 91 21 01 	lds	r18, 0x0121
     83c:	0e 94 99 08 	call	0x1132	; 0x1132 <CtrlPatteMove>
     840:	81 30       	cpi	r24, 0x01	; 1
     842:	09 f4       	brne	.+2      	; 0x846 <CtrlMarcheDispatcher+0x518>
     844:	2c c2       	rjmp	.+1112   	; 0xc9e <CtrlMarcheDispatcher+0x970>
		{
			ret |= (1U<<3U);
		}	
		if( CtrlPatteMove(MILIEU_DROITE		,	ANGLE_MIN_EPAULE	,	ANGLE_MID_COUDE	,	body.speed ) == TRUE )
     846:	84 e0       	ldi	r24, 0x04	; 4
     848:	62 e8       	ldi	r22, 0x82	; 130
     84a:	4a e5       	ldi	r20, 0x5A	; 90
     84c:	20 91 21 01 	lds	r18, 0x0121
     850:	0e 94 99 08 	call	0x1132	; 0x1132 <CtrlPatteMove>
     854:	81 30       	cpi	r24, 0x01	; 1
     856:	09 f4       	brne	.+2      	; 0x85a <CtrlMarcheDispatcher+0x52c>
     858:	20 c2       	rjmp	.+1088   	; 0xc9a <CtrlMarcheDispatcher+0x96c>
		{
			ret |= (1U<<4U);
		}	
		if( CtrlPatteMove(ARRIERE_DROITE	,	ANGLE_MAX_EPAULE	,	ANGLE_MAX_COUDE	,	body.speed ) == TRUE )
     85a:	85 e0       	ldi	r24, 0x05	; 5
     85c:	62 e3       	ldi	r22, 0x32	; 50
     85e:	11 cf       	rjmp	.-478    	; 0x682 <CtrlMarcheDispatcher+0x354>
		/*
			/\| |\\				mid min |  | min mid
			/\| |\\		step 0	mid min |  | min mid
			/\| |\\				mid min |  | min mid
		*/
		if( CtrlPatteMove(AVANT_GAUCHE		,	ANGLE_MIN_EPAULE	,	ANGLE_MID_COUDE	,	body.speed ) == TRUE )
     860:	80 e0       	ldi	r24, 0x00	; 0
     862:	62 e8       	ldi	r22, 0x82	; 130
     864:	4a e5       	ldi	r20, 0x5A	; 90
     866:	20 91 21 01 	lds	r18, 0x0121
     86a:	0e 94 99 08 	call	0x1132	; 0x1132 <CtrlPatteMove>
	}	
}

static void CtrlMarcheSequenceLeft( void ) 
{
	Int8U ret = 0x00U;
     86e:	11 e0       	ldi	r17, 0x01	; 1
     870:	81 30       	cpi	r24, 0x01	; 1
     872:	09 f0       	breq	.+2      	; 0x876 <CtrlMarcheDispatcher+0x548>
     874:	10 e0       	ldi	r17, 0x00	; 0
		*/
		if( CtrlPatteMove(AVANT_GAUCHE		,	ANGLE_MIN_EPAULE	,	ANGLE_MID_COUDE	,	body.speed ) == TRUE )
		{
			ret |= (1U<<0U);
		}	
		if( CtrlPatteMove(MILIEU_GAUCHE		,	ANGLE_MIN_EPAULE	,	ANGLE_MID_COUDE	,	body.speed ) == TRUE )
     876:	81 e0       	ldi	r24, 0x01	; 1
     878:	62 e8       	ldi	r22, 0x82	; 130
     87a:	4a e5       	ldi	r20, 0x5A	; 90
     87c:	20 91 21 01 	lds	r18, 0x0121
     880:	0e 94 99 08 	call	0x1132	; 0x1132 <CtrlPatteMove>
     884:	81 30       	cpi	r24, 0x01	; 1
     886:	09 f4       	brne	.+2      	; 0x88a <CtrlMarcheDispatcher+0x55c>
		{
			ret |= (1U<<1U);
     888:	12 60       	ori	r17, 0x02	; 2
		}	
		if( CtrlPatteMove(ARRIERE_GAUCHE	,	ANGLE_MIN_EPAULE	,	ANGLE_MID_COUDE	,	body.speed ) == TRUE )
     88a:	82 e0       	ldi	r24, 0x02	; 2
     88c:	62 e8       	ldi	r22, 0x82	; 130
     88e:	4a e5       	ldi	r20, 0x5A	; 90
     890:	20 91 21 01 	lds	r18, 0x0121
     894:	0e 94 99 08 	call	0x1132	; 0x1132 <CtrlPatteMove>
     898:	81 30       	cpi	r24, 0x01	; 1
     89a:	09 f4       	brne	.+2      	; 0x89e <CtrlMarcheDispatcher+0x570>
		{
			ret |= (1U<<2U);
     89c:	14 60       	ori	r17, 0x04	; 4
		}	
		if( CtrlPatteMove(AVANT_DROITE		,	ANGLE_MIN_EPAULE	,	ANGLE_MID_COUDE	,	body.speed ) == TRUE )
     89e:	83 e0       	ldi	r24, 0x03	; 3
     8a0:	62 e8       	ldi	r22, 0x82	; 130
     8a2:	4a e5       	ldi	r20, 0x5A	; 90
     8a4:	20 91 21 01 	lds	r18, 0x0121
     8a8:	0e 94 99 08 	call	0x1132	; 0x1132 <CtrlPatteMove>
     8ac:	81 30       	cpi	r24, 0x01	; 1
     8ae:	09 f4       	brne	.+2      	; 0x8b2 <CtrlMarcheDispatcher+0x584>
		{
			ret |= (1U<<3U);
     8b0:	18 60       	ori	r17, 0x08	; 8
		}	
		if( CtrlPatteMove(MILIEU_DROITE		,	ANGLE_MIN_EPAULE	,	ANGLE_MID_COUDE	,	body.speed ) == TRUE )
     8b2:	84 e0       	ldi	r24, 0x04	; 4
     8b4:	62 e8       	ldi	r22, 0x82	; 130
     8b6:	4a e5       	ldi	r20, 0x5A	; 90
     8b8:	20 91 21 01 	lds	r18, 0x0121
     8bc:	0e 94 99 08 	call	0x1132	; 0x1132 <CtrlPatteMove>
     8c0:	81 30       	cpi	r24, 0x01	; 1
     8c2:	09 f4       	brne	.+2      	; 0x8c6 <CtrlMarcheDispatcher+0x598>
		{
			ret |= (1U<<4U);
     8c4:	10 61       	ori	r17, 0x10	; 16
		}	
		if( CtrlPatteMove(ARRIERE_DROITE	,	ANGLE_MIN_EPAULE	,	ANGLE_MID_COUDE	,	body.speed ) == TRUE )
     8c6:	85 e0       	ldi	r24, 0x05	; 5
     8c8:	62 e8       	ldi	r22, 0x82	; 130
     8ca:	4a e5       	ldi	r20, 0x5A	; 90
     8cc:	20 91 21 01 	lds	r18, 0x0121
     8d0:	0e 94 99 08 	call	0x1132	; 0x1132 <CtrlPatteMove>
     8d4:	81 30       	cpi	r24, 0x01	; 1
     8d6:	09 f0       	breq	.+2      	; 0x8da <CtrlMarcheDispatcher+0x5ac>
     8d8:	8d ce       	rjmp	.-742    	; 0x5f4 <CtrlMarcheDispatcher+0x2c6>
		{
			ret |= (1U<<5U);
     8da:	10 62       	ori	r17, 0x20	; 32
		}	
		//quand on est arrivé a la bonne position on change de step	
		if( ret == 0x3FU )
     8dc:	1f 33       	cpi	r17, 0x3F	; 63
     8de:	09 f0       	breq	.+2      	; 0x8e2 <CtrlMarcheDispatcher+0x5b4>
     8e0:	89 ce       	rjmp	.-750    	; 0x5f4 <CtrlMarcheDispatcher+0x2c6>
			ret |= (1U<<5U);
		}	
		//quand on est arrivé a la bonne position on change de step	
		if( ret == 0x3FU )
		{
			step = 4U;
     8e2:	80 93 1f 01 	sts	0x011F, r24
     8e6:	80 91 20 01 	lds	r24, 0x0120
     8ea:	6b cd       	rjmp	.-1322   	; 0x3c2 <CtrlMarcheDispatcher+0x94>
		{
			ret |= (1U<<3U);
		}	
		if( CtrlPatteMove(MILIEU_DROITE		,	ANGLE_MID_EPAULE	,	ANGLE_MID_COUDE	,	body.speed ) == TRUE )
		{
			ret |= (1U<<4U);
     8ec:	10 61       	ori	r17, 0x10	; 16
     8ee:	c7 ce       	rjmp	.-626    	; 0x67e <CtrlMarcheDispatcher+0x350>
		/*
			\/| |/\				min max |  | max mid
			/\| |\/		step 1	mid min |  | min max
			\/| |/\				min max |  | max mid
		*/
		if( CtrlPatteMove(AVANT_GAUCHE		,	ANGLE_MAX_EPAULE	,	ANGLE_MIN_COUDE	,	body.speed ) == TRUE )
     8f0:	80 e0       	ldi	r24, 0x00	; 0
     8f2:	62 e3       	ldi	r22, 0x32	; 50
     8f4:	4e e6       	ldi	r20, 0x6E	; 110
     8f6:	20 91 21 01 	lds	r18, 0x0121
     8fa:	0e 94 99 08 	call	0x1132	; 0x1132 <CtrlPatteMove>
	}
}

static void CtrlMarcheSequenceForward( void )
{
	Int8U ret = 0x00;
     8fe:	11 e0       	ldi	r17, 0x01	; 1
     900:	81 30       	cpi	r24, 0x01	; 1
     902:	09 f0       	breq	.+2      	; 0x906 <CtrlMarcheDispatcher+0x5d8>
     904:	10 e0       	ldi	r17, 0x00	; 0
		*/
		if( CtrlPatteMove(AVANT_GAUCHE		,	ANGLE_MAX_EPAULE	,	ANGLE_MIN_COUDE	,	body.speed ) == TRUE )
		{
			ret |= (1U<<0U);
		}	
		if( CtrlPatteMove(MILIEU_GAUCHE		,	ANGLE_MIN_EPAULE	,	ANGLE_MID_COUDE	,	body.speed ) == TRUE )
     906:	81 e0       	ldi	r24, 0x01	; 1
     908:	62 e8       	ldi	r22, 0x82	; 130
     90a:	4a e5       	ldi	r20, 0x5A	; 90
     90c:	20 91 21 01 	lds	r18, 0x0121
     910:	0e 94 99 08 	call	0x1132	; 0x1132 <CtrlPatteMove>
     914:	81 30       	cpi	r24, 0x01	; 1
     916:	09 f4       	brne	.+2      	; 0x91a <CtrlMarcheDispatcher+0x5ec>
     918:	45 c3       	rjmp	.+1674   	; 0xfa4 <CtrlMarcheDispatcher+0xc76>
		{
			ret |= (1U<<1U);
		}	
		if( CtrlPatteMove(ARRIERE_GAUCHE	,	ANGLE_MAX_EPAULE	,	ANGLE_MIN_COUDE	,	body.speed ) == TRUE )
     91a:	82 e0       	ldi	r24, 0x02	; 2
     91c:	62 e3       	ldi	r22, 0x32	; 50
     91e:	4e e6       	ldi	r20, 0x6E	; 110
     920:	20 91 21 01 	lds	r18, 0x0121
     924:	0e 94 99 08 	call	0x1132	; 0x1132 <CtrlPatteMove>
     928:	81 30       	cpi	r24, 0x01	; 1
     92a:	09 f4       	brne	.+2      	; 0x92e <CtrlMarcheDispatcher+0x600>
     92c:	39 c3       	rjmp	.+1650   	; 0xfa0 <CtrlMarcheDispatcher+0xc72>
		{
			ret |= (1U<<2U);
		}	
		if( CtrlPatteMove(AVANT_DROITE		,	ANGLE_MAX_EPAULE	,	ANGLE_MID_COUDE	,	body.speed ) == TRUE )
     92e:	83 e0       	ldi	r24, 0x03	; 3
     930:	62 e3       	ldi	r22, 0x32	; 50
     932:	4a e5       	ldi	r20, 0x5A	; 90
     934:	20 91 21 01 	lds	r18, 0x0121
     938:	0e 94 99 08 	call	0x1132	; 0x1132 <CtrlPatteMove>
     93c:	81 30       	cpi	r24, 0x01	; 1
     93e:	09 f4       	brne	.+2      	; 0x942 <CtrlMarcheDispatcher+0x614>
     940:	2d c3       	rjmp	.+1626   	; 0xf9c <CtrlMarcheDispatcher+0xc6e>
		{
			ret |= (1U<<3U);
		}	
		if( CtrlPatteMove(MILIEU_DROITE		,	ANGLE_MIN_EPAULE	,	ANGLE_MAX_COUDE	,	body.speed ) == TRUE )
     942:	84 e0       	ldi	r24, 0x04	; 4
     944:	62 e8       	ldi	r22, 0x82	; 130
     946:	46 e4       	ldi	r20, 0x46	; 70
     948:	20 91 21 01 	lds	r18, 0x0121
     94c:	0e 94 99 08 	call	0x1132	; 0x1132 <CtrlPatteMove>
     950:	81 30       	cpi	r24, 0x01	; 1
     952:	09 f4       	brne	.+2      	; 0x956 <CtrlMarcheDispatcher+0x628>
     954:	21 c3       	rjmp	.+1602   	; 0xf98 <CtrlMarcheDispatcher+0xc6a>
		{
			ret |= (1U<<4U);
		}	
		if( CtrlPatteMove(ARRIERE_DROITE	,	ANGLE_MAX_EPAULE	,	ANGLE_MID_COUDE	,	body.speed ) == TRUE )
     956:	85 e0       	ldi	r24, 0x05	; 5
     958:	62 e3       	ldi	r22, 0x32	; 50
     95a:	4a e5       	ldi	r20, 0x5A	; 90
     95c:	20 91 21 01 	lds	r18, 0x0121
     960:	0e 94 99 08 	call	0x1132	; 0x1132 <CtrlPatteMove>
     964:	81 30       	cpi	r24, 0x01	; 1
     966:	09 f0       	breq	.+2      	; 0x96a <CtrlMarcheDispatcher+0x63c>
     968:	45 ce       	rjmp	.-886    	; 0x5f4 <CtrlMarcheDispatcher+0x2c6>
		{
			ret |= (1U<<4U);
		}	
		if( CtrlPatteMove(ARRIERE_DROITE	,	ANGLE_MAX_EPAULE	,	ANGLE_MAX_COUDE	,	body.speed ) == TRUE )
		{
			ret |= (1U<<5U);
     96a:	10 62       	ori	r17, 0x20	; 32
		}	
		//quand on est arrivé a la bonne position on change de step	
		if( ret == 0x3FU )
     96c:	1f 33       	cpi	r17, 0x3F	; 63
     96e:	09 f0       	breq	.+2      	; 0x972 <CtrlMarcheDispatcher+0x644>
     970:	41 ce       	rjmp	.-894    	; 0x5f4 <CtrlMarcheDispatcher+0x2c6>
		{
			step = 2U;
     972:	82 e0       	ldi	r24, 0x02	; 2
     974:	80 93 1f 01 	sts	0x011F, r24
     978:	80 91 20 01 	lds	r24, 0x0120
     97c:	22 cd       	rjmp	.-1468   	; 0x3c2 <CtrlMarcheDispatcher+0x94>
		/*
			/\| |\/				mid min |  | min max
			\/| |/\		step 3	min max |  | max mid
			/\| |\/				mid min |  | min max
		*/
		if( CtrlPatteMove(AVANT_GAUCHE		,	ANGLE_MIN_EPAULE	,	ANGLE_MID_COUDE	,	body.speed ) == TRUE )
     97e:	80 e0       	ldi	r24, 0x00	; 0
     980:	62 e8       	ldi	r22, 0x82	; 130
     982:	4a e5       	ldi	r20, 0x5A	; 90
     984:	20 91 21 01 	lds	r18, 0x0121
     988:	0e 94 99 08 	call	0x1132	; 0x1132 <CtrlPatteMove>
	}
}

static void CtrlMarcheSequenceForward( void )
{
	Int8U ret = 0x00;
     98c:	11 e0       	ldi	r17, 0x01	; 1
     98e:	81 30       	cpi	r24, 0x01	; 1
     990:	09 f0       	breq	.+2      	; 0x994 <CtrlMarcheDispatcher+0x666>
     992:	10 e0       	ldi	r17, 0x00	; 0
		*/
		if( CtrlPatteMove(AVANT_GAUCHE		,	ANGLE_MIN_EPAULE	,	ANGLE_MID_COUDE	,	body.speed ) == TRUE )
		{
			ret |= (1U<<0U);
		}	
		if( CtrlPatteMove(MILIEU_GAUCHE		,	ANGLE_MAX_EPAULE	,	ANGLE_MIN_COUDE	,	body.speed ) == TRUE )
     994:	81 e0       	ldi	r24, 0x01	; 1
     996:	62 e3       	ldi	r22, 0x32	; 50
     998:	4e e6       	ldi	r20, 0x6E	; 110
     99a:	20 91 21 01 	lds	r18, 0x0121
     99e:	0e 94 99 08 	call	0x1132	; 0x1132 <CtrlPatteMove>
     9a2:	81 30       	cpi	r24, 0x01	; 1
     9a4:	09 f4       	brne	.+2      	; 0x9a8 <CtrlMarcheDispatcher+0x67a>
		{
			ret |= (1U<<1U);
     9a6:	12 60       	ori	r17, 0x02	; 2
		}	
		if( CtrlPatteMove(ARRIERE_GAUCHE	,	ANGLE_MIN_EPAULE	,	ANGLE_MID_COUDE	,	body.speed ) == TRUE )
     9a8:	82 e0       	ldi	r24, 0x02	; 2
     9aa:	62 e8       	ldi	r22, 0x82	; 130
     9ac:	4a e5       	ldi	r20, 0x5A	; 90
     9ae:	20 91 21 01 	lds	r18, 0x0121
     9b2:	0e 94 99 08 	call	0x1132	; 0x1132 <CtrlPatteMove>
     9b6:	81 30       	cpi	r24, 0x01	; 1
     9b8:	09 f4       	brne	.+2      	; 0x9bc <CtrlMarcheDispatcher+0x68e>
		{
			ret |= (1U<<2U);
     9ba:	14 60       	ori	r17, 0x04	; 4
		}	
		if( CtrlPatteMove(AVANT_DROITE		,	ANGLE_MIN_EPAULE	,	ANGLE_MAX_COUDE	,	body.speed ) == TRUE )
     9bc:	83 e0       	ldi	r24, 0x03	; 3
     9be:	62 e8       	ldi	r22, 0x82	; 130
     9c0:	46 e4       	ldi	r20, 0x46	; 70
     9c2:	20 91 21 01 	lds	r18, 0x0121
     9c6:	0e 94 99 08 	call	0x1132	; 0x1132 <CtrlPatteMove>
     9ca:	81 30       	cpi	r24, 0x01	; 1
     9cc:	09 f4       	brne	.+2      	; 0x9d0 <CtrlMarcheDispatcher+0x6a2>
		{
			ret |= (1U<<3U);
     9ce:	18 60       	ori	r17, 0x08	; 8
		}	
		if( CtrlPatteMove(MILIEU_DROITE		,	ANGLE_MAX_EPAULE	,	ANGLE_MID_COUDE	,	body.speed ) == TRUE )
     9d0:	84 e0       	ldi	r24, 0x04	; 4
     9d2:	62 e3       	ldi	r22, 0x32	; 50
     9d4:	4a e5       	ldi	r20, 0x5A	; 90
     9d6:	20 91 21 01 	lds	r18, 0x0121
     9da:	0e 94 99 08 	call	0x1132	; 0x1132 <CtrlPatteMove>
     9de:	81 30       	cpi	r24, 0x01	; 1
     9e0:	09 f4       	brne	.+2      	; 0x9e4 <CtrlMarcheDispatcher+0x6b6>
		{
			ret |= (1U<<4U);
     9e2:	10 61       	ori	r17, 0x10	; 16
		}	
		if( CtrlPatteMove(ARRIERE_DROITE	,	ANGLE_MIN_EPAULE	,	ANGLE_MAX_COUDE	,	body.speed ) == TRUE )
     9e4:	85 e0       	ldi	r24, 0x05	; 5
     9e6:	62 e8       	ldi	r22, 0x82	; 130
     9e8:	46 e4       	ldi	r20, 0x46	; 70
     9ea:	20 91 21 01 	lds	r18, 0x0121
     9ee:	0e 94 99 08 	call	0x1132	; 0x1132 <CtrlPatteMove>
     9f2:	81 30       	cpi	r24, 0x01	; 1
     9f4:	09 f0       	breq	.+2      	; 0x9f8 <CtrlMarcheDispatcher+0x6ca>
     9f6:	fe cd       	rjmp	.-1028   	; 0x5f4 <CtrlMarcheDispatcher+0x2c6>
		{
			ret |= (1U<<4U);
		}	
		if( CtrlPatteMove(ARRIERE_DROITE	,	ANGLE_MAX_EPAULE	,	ANGLE_MID_COUDE	,	body.speed ) == TRUE )
		{
			ret |= (1U<<5U);
     9f8:	10 62       	ori	r17, 0x20	; 32
		}		
		//quand on est arrivé a la bonne position on change de step	
		if( ret == 0x3FU )
     9fa:	1f 33       	cpi	r17, 0x3F	; 63
     9fc:	09 f0       	breq	.+2      	; 0xa00 <CtrlMarcheDispatcher+0x6d2>
     9fe:	fa cd       	rjmp	.-1036   	; 0x5f4 <CtrlMarcheDispatcher+0x2c6>
		{
			step = 4U;
     a00:	84 e0       	ldi	r24, 0x04	; 4
     a02:	80 93 1f 01 	sts	0x011F, r24
     a06:	f6 cd       	rjmp	.-1044   	; 0x5f4 <CtrlMarcheDispatcher+0x2c6>
		/*
			/\| |\/				mid min |  | min max
			\/| |/\		step 1	min max |  | max mid
			/\| |\/				mid min |  | min max
		*/
		if( CtrlPatteMove(AVANT_GAUCHE		,	ANGLE_MIN_EPAULE	,	ANGLE_MID_COUDE	,	body.speed ) == TRUE )
     a08:	80 e0       	ldi	r24, 0x00	; 0
     a0a:	62 e8       	ldi	r22, 0x82	; 130
     a0c:	4a e5       	ldi	r20, 0x5A	; 90
     a0e:	20 91 21 01 	lds	r18, 0x0121
     a12:	0e 94 99 08 	call	0x1132	; 0x1132 <CtrlPatteMove>
	}
}	

static void CtrlMarcheSequenceBackward( void ) 
{
	Int8U ret = 0x00;
     a16:	11 e0       	ldi	r17, 0x01	; 1
     a18:	81 30       	cpi	r24, 0x01	; 1
     a1a:	09 f0       	breq	.+2      	; 0xa1e <CtrlMarcheDispatcher+0x6f0>
     a1c:	10 e0       	ldi	r17, 0x00	; 0
		*/
		if( CtrlPatteMove(AVANT_GAUCHE		,	ANGLE_MIN_EPAULE	,	ANGLE_MID_COUDE	,	body.speed ) == TRUE )
		{
			ret |= (1U<<0U);
		}	
		if( CtrlPatteMove(MILIEU_GAUCHE		,	ANGLE_MAX_EPAULE	,	ANGLE_MIN_COUDE	,	body.speed ) == TRUE )
     a1e:	81 e0       	ldi	r24, 0x01	; 1
     a20:	62 e3       	ldi	r22, 0x32	; 50
     a22:	4e e6       	ldi	r20, 0x6E	; 110
     a24:	20 91 21 01 	lds	r18, 0x0121
     a28:	0e 94 99 08 	call	0x1132	; 0x1132 <CtrlPatteMove>
     a2c:	81 30       	cpi	r24, 0x01	; 1
     a2e:	09 f4       	brne	.+2      	; 0xa32 <CtrlMarcheDispatcher+0x704>
		{
			ret |= (1U<<1U);
     a30:	12 60       	ori	r17, 0x02	; 2
		}	
		if( CtrlPatteMove(ARRIERE_GAUCHE	,	ANGLE_MIN_EPAULE	,	ANGLE_MID_COUDE	,	body.speed ) == TRUE )
     a32:	82 e0       	ldi	r24, 0x02	; 2
     a34:	62 e8       	ldi	r22, 0x82	; 130
     a36:	4a e5       	ldi	r20, 0x5A	; 90
     a38:	20 91 21 01 	lds	r18, 0x0121
     a3c:	0e 94 99 08 	call	0x1132	; 0x1132 <CtrlPatteMove>
     a40:	81 30       	cpi	r24, 0x01	; 1
     a42:	09 f4       	brne	.+2      	; 0xa46 <CtrlMarcheDispatcher+0x718>
		{
			ret |= (1U<<2U);
     a44:	14 60       	ori	r17, 0x04	; 4
		}	
		if( CtrlPatteMove(AVANT_DROITE		,	ANGLE_MIN_EPAULE	,	ANGLE_MAX_COUDE	,	body.speed ) == TRUE )
     a46:	83 e0       	ldi	r24, 0x03	; 3
     a48:	62 e8       	ldi	r22, 0x82	; 130
     a4a:	46 e4       	ldi	r20, 0x46	; 70
     a4c:	20 91 21 01 	lds	r18, 0x0121
     a50:	0e 94 99 08 	call	0x1132	; 0x1132 <CtrlPatteMove>
     a54:	81 30       	cpi	r24, 0x01	; 1
     a56:	09 f4       	brne	.+2      	; 0xa5a <CtrlMarcheDispatcher+0x72c>
		{
			ret |= (1U<<3U);
     a58:	18 60       	ori	r17, 0x08	; 8
		}	
		if( CtrlPatteMove(MILIEU_DROITE		,	ANGLE_MAX_EPAULE	,	ANGLE_MID_COUDE	,	body.speed ) == TRUE )
     a5a:	84 e0       	ldi	r24, 0x04	; 4
     a5c:	62 e3       	ldi	r22, 0x32	; 50
		}	
		if( CtrlPatteMove(AVANT_DROITE		,	ANGLE_MIN_EPAULE	,	ANGLE_MAX_COUDE	,	body.speed ) == TRUE )
		{
			ret |= (1U<<3U);
		}	
		if( CtrlPatteMove(MILIEU_DROITE		,	ANGLE_MIN_EPAULE	,	ANGLE_MID_COUDE	,	body.speed ) == TRUE )
     a5e:	4a e5       	ldi	r20, 0x5A	; 90
     a60:	20 91 21 01 	lds	r18, 0x0121
     a64:	0e 94 99 08 	call	0x1132	; 0x1132 <CtrlPatteMove>
     a68:	81 30       	cpi	r24, 0x01	; 1
     a6a:	09 f4       	brne	.+2      	; 0xa6e <CtrlMarcheDispatcher+0x740>
		{
			ret |= (1U<<4U);
     a6c:	10 61       	ori	r17, 0x10	; 16
		}	
		if( CtrlPatteMove(ARRIERE_DROITE	,	ANGLE_MIN_EPAULE	,	ANGLE_MAX_COUDE	,	body.speed ) == TRUE )
     a6e:	85 e0       	ldi	r24, 0x05	; 5
     a70:	62 e8       	ldi	r22, 0x82	; 130
		}	
		if( CtrlPatteMove(MILIEU_DROITE		,	ANGLE_MAX_EPAULE	,	ANGLE_MID_COUDE	,	body.speed ) == TRUE )
		{
			ret |= (1U<<4U);
		}	
		if( CtrlPatteMove(ARRIERE_DROITE	,	ANGLE_MAX_EPAULE	,	ANGLE_MAX_COUDE	,	body.speed ) == TRUE )
     a72:	46 e4       	ldi	r20, 0x46	; 70
     a74:	20 91 21 01 	lds	r18, 0x0121
     a78:	0e 94 99 08 	call	0x1132	; 0x1132 <CtrlPatteMove>
     a7c:	81 30       	cpi	r24, 0x01	; 1
     a7e:	09 f0       	breq	.+2      	; 0xa82 <CtrlMarcheDispatcher+0x754>
     a80:	b9 cd       	rjmp	.-1166   	; 0x5f4 <CtrlMarcheDispatcher+0x2c6>
     a82:	73 cf       	rjmp	.-282    	; 0x96a <CtrlMarcheDispatcher+0x63c>
		/*
			//| |//				mid max |  | max max
			\/| |/\		step 1	min max |  | max mid
			//| |//				mid max |  | max max
		*/
		if( CtrlPatteMove(AVANT_GAUCHE		,	ANGLE_MAX_EPAULE	,	ANGLE_MID_COUDE	,	body.speed ) == TRUE )
     a84:	80 e0       	ldi	r24, 0x00	; 0
     a86:	62 e3       	ldi	r22, 0x32	; 50
     a88:	4a e5       	ldi	r20, 0x5A	; 90
     a8a:	20 91 21 01 	lds	r18, 0x0121
     a8e:	0e 94 99 08 	call	0x1132	; 0x1132 <CtrlPatteMove>
	}
}	

static void CtrlMarcheSequenceRight( void ) 
{
	Int8U ret = 0x00U;
     a92:	11 e0       	ldi	r17, 0x01	; 1
     a94:	81 30       	cpi	r24, 0x01	; 1
     a96:	09 f0       	breq	.+2      	; 0xa9a <CtrlMarcheDispatcher+0x76c>
     a98:	10 e0       	ldi	r17, 0x00	; 0
		*/
		if( CtrlPatteMove(AVANT_GAUCHE		,	ANGLE_MAX_EPAULE	,	ANGLE_MID_COUDE	,	body.speed ) == TRUE )
		{
			ret |= (1U<<0U);
		}	
		if( CtrlPatteMove(MILIEU_GAUCHE		,	ANGLE_MAX_EPAULE	,	ANGLE_MIN_COUDE	,	body.speed ) == TRUE )
     a9a:	81 e0       	ldi	r24, 0x01	; 1
     a9c:	62 e3       	ldi	r22, 0x32	; 50
     a9e:	4e e6       	ldi	r20, 0x6E	; 110
     aa0:	20 91 21 01 	lds	r18, 0x0121
     aa4:	0e 94 99 08 	call	0x1132	; 0x1132 <CtrlPatteMove>
     aa8:	81 30       	cpi	r24, 0x01	; 1
     aaa:	09 f4       	brne	.+2      	; 0xaae <CtrlMarcheDispatcher+0x780>
		{
			ret |= (1U<<1U);
     aac:	12 60       	ori	r17, 0x02	; 2
		}	
		if( CtrlPatteMove(ARRIERE_GAUCHE	,	ANGLE_MAX_EPAULE	,	ANGLE_MID_COUDE	,	body.speed ) == TRUE )
     aae:	82 e0       	ldi	r24, 0x02	; 2
     ab0:	62 e3       	ldi	r22, 0x32	; 50
     ab2:	4a e5       	ldi	r20, 0x5A	; 90
     ab4:	20 91 21 01 	lds	r18, 0x0121
     ab8:	0e 94 99 08 	call	0x1132	; 0x1132 <CtrlPatteMove>
     abc:	81 30       	cpi	r24, 0x01	; 1
     abe:	09 f4       	brne	.+2      	; 0xac2 <CtrlMarcheDispatcher+0x794>
		{
			ret |= (1U<<2U);
     ac0:	14 60       	ori	r17, 0x04	; 4
		}	
		if( CtrlPatteMove(AVANT_DROITE		,	ANGLE_MAX_EPAULE	,	ANGLE_MAX_COUDE	,	body.speed ) == TRUE )
     ac2:	83 e0       	ldi	r24, 0x03	; 3
     ac4:	62 e3       	ldi	r22, 0x32	; 50
     ac6:	46 e4       	ldi	r20, 0x46	; 70
     ac8:	20 91 21 01 	lds	r18, 0x0121
     acc:	0e 94 99 08 	call	0x1132	; 0x1132 <CtrlPatteMove>
     ad0:	81 30       	cpi	r24, 0x01	; 1
     ad2:	09 f4       	brne	.+2      	; 0xad6 <CtrlMarcheDispatcher+0x7a8>
		{
			ret |= (1U<<3U);
     ad4:	18 60       	ori	r17, 0x08	; 8
		}	
		if( CtrlPatteMove(MILIEU_DROITE		,	ANGLE_MAX_EPAULE	,	ANGLE_MID_COUDE	,	body.speed ) == TRUE )
     ad6:	84 e0       	ldi	r24, 0x04	; 4
     ad8:	62 e3       	ldi	r22, 0x32	; 50
     ada:	4a e5       	ldi	r20, 0x5A	; 90
     adc:	20 91 21 01 	lds	r18, 0x0121
     ae0:	0e 94 99 08 	call	0x1132	; 0x1132 <CtrlPatteMove>
     ae4:	81 30       	cpi	r24, 0x01	; 1
     ae6:	09 f4       	brne	.+2      	; 0xaea <CtrlMarcheDispatcher+0x7bc>
		{
			ret |= (1U<<4U);
     ae8:	10 61       	ori	r17, 0x10	; 16
		}	
		if( CtrlPatteMove(ARRIERE_DROITE	,	ANGLE_MAX_EPAULE	,	ANGLE_MAX_COUDE	,	body.speed ) == TRUE )
     aea:	85 e0       	ldi	r24, 0x05	; 5
     aec:	62 e3       	ldi	r22, 0x32	; 50
     aee:	c1 cf       	rjmp	.-126    	; 0xa72 <CtrlMarcheDispatcher+0x744>
		{
			ret |= (1U<<1U);
		}	
		if( CtrlPatteMove(ARRIERE_GAUCHE	,	ANGLE_MID_EPAULE	,	ANGLE_MID_COUDE	,	body.speed ) == TRUE )
		{
			ret |= (1U<<2U);
     af0:	14 60       	ori	r17, 0x04	; 4
     af2:	b1 cd       	rjmp	.-1182   	; 0x656 <CtrlMarcheDispatcher+0x328>
		{
			ret |= (1U<<0U);
		}	
		if( CtrlPatteMove(MILIEU_GAUCHE		,	ANGLE_MID_EPAULE	,	ANGLE_MIN_COUDE,	body.speed ) == TRUE )
		{
			ret |= (1U<<1U);
     af4:	12 60       	ori	r17, 0x02	; 2
     af6:	a5 cd       	rjmp	.-1206   	; 0x642 <CtrlMarcheDispatcher+0x314>
		/*
			\\| |\\				min min |  | min mid
			/\| |\/		step 4	mid min |  | min max
			\\| |\\				min min |  | min mid
		*/
		if( CtrlPatteMove(AVANT_GAUCHE		,	ANGLE_MIN_EPAULE	,	ANGLE_MIN_COUDE	,	body.speed ) == TRUE )
     af8:	80 e0       	ldi	r24, 0x00	; 0
     afa:	62 e8       	ldi	r22, 0x82	; 130
     afc:	4e e6       	ldi	r20, 0x6E	; 110
     afe:	20 91 21 01 	lds	r18, 0x0121
     b02:	0e 94 99 08 	call	0x1132	; 0x1132 <CtrlPatteMove>
	}
}	

static void CtrlMarcheSequenceRight( void ) 
{
	Int8U ret = 0x00U;
     b06:	11 e0       	ldi	r17, 0x01	; 1
     b08:	81 30       	cpi	r24, 0x01	; 1
     b0a:	09 f0       	breq	.+2      	; 0xb0e <CtrlMarcheDispatcher+0x7e0>
     b0c:	10 e0       	ldi	r17, 0x00	; 0
		*/
		if( CtrlPatteMove(AVANT_GAUCHE		,	ANGLE_MIN_EPAULE	,	ANGLE_MIN_COUDE	,	body.speed ) == TRUE )
		{
			ret |= (1U<<0U);
		}	
		if( CtrlPatteMove(MILIEU_GAUCHE		,	ANGLE_MIN_EPAULE	,	ANGLE_MID_COUDE	,	body.speed ) == TRUE )
     b0e:	81 e0       	ldi	r24, 0x01	; 1
     b10:	62 e8       	ldi	r22, 0x82	; 130
     b12:	4a e5       	ldi	r20, 0x5A	; 90
     b14:	20 91 21 01 	lds	r18, 0x0121
     b18:	0e 94 99 08 	call	0x1132	; 0x1132 <CtrlPatteMove>
     b1c:	81 30       	cpi	r24, 0x01	; 1
     b1e:	09 f4       	brne	.+2      	; 0xb22 <CtrlMarcheDispatcher+0x7f4>
		{
			ret |= (1U<<1U);
     b20:	12 60       	ori	r17, 0x02	; 2
		}	
		if( CtrlPatteMove(ARRIERE_GAUCHE	,	ANGLE_MIN_EPAULE	,	ANGLE_MIN_COUDE	,	body.speed ) == TRUE )
     b22:	82 e0       	ldi	r24, 0x02	; 2
     b24:	62 e8       	ldi	r22, 0x82	; 130
     b26:	4e e6       	ldi	r20, 0x6E	; 110
     b28:	20 91 21 01 	lds	r18, 0x0121
     b2c:	0e 94 99 08 	call	0x1132	; 0x1132 <CtrlPatteMove>
     b30:	81 30       	cpi	r24, 0x01	; 1
     b32:	09 f4       	brne	.+2      	; 0xb36 <CtrlMarcheDispatcher+0x808>
		{
			ret |= (1U<<2U);
     b34:	14 60       	ori	r17, 0x04	; 4
		}	
		if( CtrlPatteMove(AVANT_DROITE		,	ANGLE_MIN_EPAULE	,	ANGLE_MID_COUDE	,	body.speed ) == TRUE )
     b36:	83 e0       	ldi	r24, 0x03	; 3
     b38:	62 e8       	ldi	r22, 0x82	; 130
     b3a:	4a e5       	ldi	r20, 0x5A	; 90
     b3c:	20 91 21 01 	lds	r18, 0x0121
     b40:	0e 94 99 08 	call	0x1132	; 0x1132 <CtrlPatteMove>
     b44:	81 30       	cpi	r24, 0x01	; 1
     b46:	09 f4       	brne	.+2      	; 0xb4a <CtrlMarcheDispatcher+0x81c>
		{
			ret |= (1U<<3U);
     b48:	18 60       	ori	r17, 0x08	; 8
		}	
		if( CtrlPatteMove(MILIEU_DROITE		,	ANGLE_MIN_EPAULE	,	ANGLE_MAX_COUDE	,	body.speed ) == TRUE )
     b4a:	84 e0       	ldi	r24, 0x04	; 4
     b4c:	62 e8       	ldi	r22, 0x82	; 130
     b4e:	46 e4       	ldi	r20, 0x46	; 70
     b50:	20 91 21 01 	lds	r18, 0x0121
     b54:	0e 94 99 08 	call	0x1132	; 0x1132 <CtrlPatteMove>
     b58:	81 30       	cpi	r24, 0x01	; 1
     b5a:	09 f4       	brne	.+2      	; 0xb5e <CtrlMarcheDispatcher+0x830>
		{
			ret |= (1U<<4U);
     b5c:	10 61       	ori	r17, 0x10	; 16
		}	
		if( CtrlPatteMove(ARRIERE_DROITE	,	ANGLE_MIN_EPAULE	,	ANGLE_MID_COUDE	,	body.speed ) == TRUE )
     b5e:	85 e0       	ldi	r24, 0x05	; 5
     b60:	62 e8       	ldi	r22, 0x82	; 130
     b62:	4a e5       	ldi	r20, 0x5A	; 90
     b64:	20 91 21 01 	lds	r18, 0x0121
     b68:	0e 94 99 08 	call	0x1132	; 0x1132 <CtrlPatteMove>
     b6c:	81 30       	cpi	r24, 0x01	; 1
     b6e:	09 f0       	breq	.+2      	; 0xb72 <CtrlMarcheDispatcher+0x844>
     b70:	41 cd       	rjmp	.-1406   	; 0x5f4 <CtrlMarcheDispatcher+0x2c6>
		{
			ret |= (1U<<5U);
     b72:	10 62       	ori	r17, 0x20	; 32
		}	
		//quand on est arrivé a la bonne position on change de step	
		if( ret == 0x3FU )
     b74:	1f 33       	cpi	r17, 0x3F	; 63
     b76:	09 f0       	breq	.+2      	; 0xb7a <CtrlMarcheDispatcher+0x84c>
     b78:	3d cd       	rjmp	.-1414   	; 0x5f4 <CtrlMarcheDispatcher+0x2c6>
		{
			step = 5U;
     b7a:	85 e0       	ldi	r24, 0x05	; 5
     b7c:	80 93 1f 01 	sts	0x011F, r24
     b80:	39 cd       	rjmp	.-1422   	; 0x5f4 <CtrlMarcheDispatcher+0x2c6>
		/*
			\/| |\\				min max |  | min mid
			/\| |//		step 3	mid min |  | max max
			\/| |\\				min max |  | min mid
		*/
		if( CtrlPatteMove(AVANT_GAUCHE		,	ANGLE_MAX_EPAULE	,	ANGLE_MIN_COUDE	,	body.speed ) == TRUE )
     b82:	80 e0       	ldi	r24, 0x00	; 0
     b84:	62 e3       	ldi	r22, 0x32	; 50
     b86:	4e e6       	ldi	r20, 0x6E	; 110
     b88:	20 91 21 01 	lds	r18, 0x0121
     b8c:	0e 94 99 08 	call	0x1132	; 0x1132 <CtrlPatteMove>
	}
}	

static void CtrlMarcheSequenceRight( void ) 
{
	Int8U ret = 0x00U;
     b90:	11 e0       	ldi	r17, 0x01	; 1
     b92:	81 30       	cpi	r24, 0x01	; 1
     b94:	09 f0       	breq	.+2      	; 0xb98 <CtrlMarcheDispatcher+0x86a>
     b96:	10 e0       	ldi	r17, 0x00	; 0
		*/
		if( CtrlPatteMove(AVANT_GAUCHE		,	ANGLE_MAX_EPAULE	,	ANGLE_MIN_COUDE	,	body.speed ) == TRUE )
		{
			ret |= (1U<<0U);
		}	
		if( CtrlPatteMove(MILIEU_GAUCHE		,	ANGLE_MIN_EPAULE	,	ANGLE_MID_COUDE	,	body.speed ) == TRUE )
     b98:	81 e0       	ldi	r24, 0x01	; 1
     b9a:	62 e8       	ldi	r22, 0x82	; 130
     b9c:	4a e5       	ldi	r20, 0x5A	; 90
     b9e:	20 91 21 01 	lds	r18, 0x0121
     ba2:	0e 94 99 08 	call	0x1132	; 0x1132 <CtrlPatteMove>
     ba6:	81 30       	cpi	r24, 0x01	; 1
     ba8:	09 f4       	brne	.+2      	; 0xbac <CtrlMarcheDispatcher+0x87e>
		{
			ret |= (1U<<1U);
     baa:	12 60       	ori	r17, 0x02	; 2
		}	
		if( CtrlPatteMove(ARRIERE_GAUCHE	,	ANGLE_MAX_EPAULE	,	ANGLE_MIN_COUDE	,	body.speed ) == TRUE )
     bac:	82 e0       	ldi	r24, 0x02	; 2
     bae:	62 e3       	ldi	r22, 0x32	; 50
     bb0:	4e e6       	ldi	r20, 0x6E	; 110
     bb2:	20 91 21 01 	lds	r18, 0x0121
     bb6:	0e 94 99 08 	call	0x1132	; 0x1132 <CtrlPatteMove>
     bba:	81 30       	cpi	r24, 0x01	; 1
     bbc:	09 f4       	brne	.+2      	; 0xbc0 <CtrlMarcheDispatcher+0x892>
		{
			ret |= (1U<<2U);
     bbe:	14 60       	ori	r17, 0x04	; 4
		}	
		if( CtrlPatteMove(AVANT_DROITE		,	ANGLE_MIN_EPAULE	,	ANGLE_MID_COUDE	,	body.speed ) == TRUE )
     bc0:	83 e0       	ldi	r24, 0x03	; 3
     bc2:	62 e8       	ldi	r22, 0x82	; 130
     bc4:	4a e5       	ldi	r20, 0x5A	; 90
     bc6:	20 91 21 01 	lds	r18, 0x0121
     bca:	0e 94 99 08 	call	0x1132	; 0x1132 <CtrlPatteMove>
     bce:	81 30       	cpi	r24, 0x01	; 1
     bd0:	09 f4       	brne	.+2      	; 0xbd4 <CtrlMarcheDispatcher+0x8a6>
		{
			ret |= (1U<<3U);
     bd2:	18 60       	ori	r17, 0x08	; 8
		}	
		if( CtrlPatteMove(MILIEU_DROITE		,	ANGLE_MAX_EPAULE	,	ANGLE_MAX_COUDE	,	body.speed ) == TRUE )
     bd4:	84 e0       	ldi	r24, 0x04	; 4
     bd6:	62 e3       	ldi	r22, 0x32	; 50
     bd8:	46 e4       	ldi	r20, 0x46	; 70
     bda:	20 91 21 01 	lds	r18, 0x0121
     bde:	0e 94 99 08 	call	0x1132	; 0x1132 <CtrlPatteMove>
     be2:	81 30       	cpi	r24, 0x01	; 1
     be4:	09 f4       	brne	.+2      	; 0xbe8 <CtrlMarcheDispatcher+0x8ba>
		{
			ret |= (1U<<4U);
     be6:	10 61       	ori	r17, 0x10	; 16
		}	
		if( CtrlPatteMove(ARRIERE_DROITE	,	ANGLE_MIN_EPAULE	,	ANGLE_MID_COUDE	,	body.speed ) == TRUE )
     be8:	85 e0       	ldi	r24, 0x05	; 5
     bea:	62 e8       	ldi	r22, 0x82	; 130
     bec:	4a e5       	ldi	r20, 0x5A	; 90
     bee:	20 91 21 01 	lds	r18, 0x0121
     bf2:	0e 94 99 08 	call	0x1132	; 0x1132 <CtrlPatteMove>
     bf6:	81 30       	cpi	r24, 0x01	; 1
     bf8:	09 f0       	breq	.+2      	; 0xbfc <CtrlMarcheDispatcher+0x8ce>
     bfa:	fc cc       	rjmp	.-1544   	; 0x5f4 <CtrlMarcheDispatcher+0x2c6>
		{
			ret |= (1U<<5U);
     bfc:	10 62       	ori	r17, 0x20	; 32
		}	
		//quand on est arrivé a la bonne position on change de step	
		if( ret == 0x3FU )
     bfe:	1f 33       	cpi	r17, 0x3F	; 63
     c00:	09 f0       	breq	.+2      	; 0xc04 <CtrlMarcheDispatcher+0x8d6>
     c02:	f8 cc       	rjmp	.-1552   	; 0x5f4 <CtrlMarcheDispatcher+0x2c6>
		{
			step = 4U;
     c04:	84 e0       	ldi	r24, 0x04	; 4
     c06:	49 cd       	rjmp	.-1390   	; 0x69a <CtrlMarcheDispatcher+0x36c>
		{
			ret |= (1U<<0U);
		}	
		if( CtrlPatteMove(MILIEU_GAUCHE		,	ANGLE_MID_EPAULE	,	ANGLE_MIN_EPAULE	,	body.speed ) == TRUE )
		{
			ret |= (1U<<1U);
     c08:	12 60       	ori	r17, 0x02	; 2
     c0a:	9b cd       	rjmp	.-1226   	; 0x742 <CtrlMarcheDispatcher+0x414>
		/*
			//| |\/				mid max |  | min max
			\\| |/\		step 2	min min |  | max mid
			//| |\/				mid max |  | min max
		*/
		if( CtrlPatteMove(AVANT_GAUCHE		,	ANGLE_MAX_EPAULE	,	ANGLE_MID_COUDE	,	body.speed ) == TRUE )
     c0c:	80 e0       	ldi	r24, 0x00	; 0
     c0e:	62 e3       	ldi	r22, 0x32	; 50
     c10:	4a e5       	ldi	r20, 0x5A	; 90
     c12:	20 91 21 01 	lds	r18, 0x0121
     c16:	0e 94 99 08 	call	0x1132	; 0x1132 <CtrlPatteMove>
	}
}	

static void CtrlMarcheSequenceRight( void ) 
{
	Int8U ret = 0x00U;
     c1a:	11 e0       	ldi	r17, 0x01	; 1
     c1c:	81 30       	cpi	r24, 0x01	; 1
     c1e:	09 f0       	breq	.+2      	; 0xc22 <CtrlMarcheDispatcher+0x8f4>
     c20:	10 e0       	ldi	r17, 0x00	; 0
		*/
		if( CtrlPatteMove(AVANT_GAUCHE		,	ANGLE_MAX_EPAULE	,	ANGLE_MID_COUDE	,	body.speed ) == TRUE )
		{
			ret |= (1U<<0U);
		}	
		if( CtrlPatteMove(MILIEU_GAUCHE		,	ANGLE_MIN_EPAULE	,	ANGLE_MIN_COUDE	,	body.speed ) == TRUE )
     c22:	81 e0       	ldi	r24, 0x01	; 1
     c24:	62 e8       	ldi	r22, 0x82	; 130
     c26:	4e e6       	ldi	r20, 0x6E	; 110
     c28:	20 91 21 01 	lds	r18, 0x0121
     c2c:	0e 94 99 08 	call	0x1132	; 0x1132 <CtrlPatteMove>
     c30:	81 30       	cpi	r24, 0x01	; 1
     c32:	09 f4       	brne	.+2      	; 0xc36 <CtrlMarcheDispatcher+0x908>
		{
			ret |= (1U<<1U);
     c34:	12 60       	ori	r17, 0x02	; 2
		}	
		if( CtrlPatteMove(ARRIERE_GAUCHE	,	ANGLE_MAX_EPAULE	,	ANGLE_MID_COUDE	,	body.speed ) == TRUE )
     c36:	82 e0       	ldi	r24, 0x02	; 2
     c38:	62 e3       	ldi	r22, 0x32	; 50
     c3a:	4a e5       	ldi	r20, 0x5A	; 90
     c3c:	20 91 21 01 	lds	r18, 0x0121
     c40:	0e 94 99 08 	call	0x1132	; 0x1132 <CtrlPatteMove>
     c44:	81 30       	cpi	r24, 0x01	; 1
     c46:	09 f4       	brne	.+2      	; 0xc4a <CtrlMarcheDispatcher+0x91c>
		{
			ret |= (1U<<2U);
     c48:	14 60       	ori	r17, 0x04	; 4
		}	
		if( CtrlPatteMove(AVANT_DROITE		,	ANGLE_MIN_EPAULE	,	ANGLE_MAX_COUDE	,	body.speed ) == TRUE )
     c4a:	83 e0       	ldi	r24, 0x03	; 3
     c4c:	62 e8       	ldi	r22, 0x82	; 130
     c4e:	46 e4       	ldi	r20, 0x46	; 70
     c50:	20 91 21 01 	lds	r18, 0x0121
     c54:	0e 94 99 08 	call	0x1132	; 0x1132 <CtrlPatteMove>
     c58:	81 30       	cpi	r24, 0x01	; 1
     c5a:	09 f4       	brne	.+2      	; 0xc5e <CtrlMarcheDispatcher+0x930>
		{
			ret |= (1U<<3U);
     c5c:	18 60       	ori	r17, 0x08	; 8
		}	
		if( CtrlPatteMove(MILIEU_DROITE		,	ANGLE_MAX_EPAULE	,	ANGLE_MID_COUDE	,	body.speed ) == TRUE )
     c5e:	84 e0       	ldi	r24, 0x04	; 4
     c60:	62 e3       	ldi	r22, 0x32	; 50
     c62:	4a e5       	ldi	r20, 0x5A	; 90
     c64:	20 91 21 01 	lds	r18, 0x0121
     c68:	0e 94 99 08 	call	0x1132	; 0x1132 <CtrlPatteMove>
     c6c:	81 30       	cpi	r24, 0x01	; 1
     c6e:	09 f4       	brne	.+2      	; 0xc72 <CtrlMarcheDispatcher+0x944>
		{
			ret |= (1U<<4U);
     c70:	10 61       	ori	r17, 0x10	; 16
		}	
		if( CtrlPatteMove(ARRIERE_DROITE	,	ANGLE_MIN_EPAULE	,	ANGLE_MAX_COUDE	,	body.speed ) == TRUE )
     c72:	85 e0       	ldi	r24, 0x05	; 5
     c74:	62 e8       	ldi	r22, 0x82	; 130
     c76:	46 e4       	ldi	r20, 0x46	; 70
     c78:	20 91 21 01 	lds	r18, 0x0121
     c7c:	0e 94 99 08 	call	0x1132	; 0x1132 <CtrlPatteMove>
     c80:	81 30       	cpi	r24, 0x01	; 1
     c82:	09 f0       	breq	.+2      	; 0xc86 <CtrlMarcheDispatcher+0x958>
     c84:	b7 cc       	rjmp	.-1682   	; 0x5f4 <CtrlMarcheDispatcher+0x2c6>
		{
			ret |= (1U<<5U);
     c86:	10 62       	ori	r17, 0x20	; 32
		}	
		//quand on est arrivé a la bonne position on change de step	
		if( ret == 0x3FU )
     c88:	1f 33       	cpi	r17, 0x3F	; 63
     c8a:	09 f0       	breq	.+2      	; 0xc8e <CtrlMarcheDispatcher+0x960>
     c8c:	b3 cc       	rjmp	.-1690   	; 0x5f4 <CtrlMarcheDispatcher+0x2c6>
		{
			step = 3U;
     c8e:	83 e0       	ldi	r24, 0x03	; 3
     c90:	80 93 1f 01 	sts	0x011F, r24
     c94:	80 91 20 01 	lds	r24, 0x0120
     c98:	94 cb       	rjmp	.-2264   	; 0x3c2 <CtrlMarcheDispatcher+0x94>
		{
			ret |= (1U<<3U);
		}	
		if( CtrlPatteMove(MILIEU_DROITE		,	ANGLE_MIN_EPAULE	,	ANGLE_MID_COUDE	,	body.speed ) == TRUE )
		{
			ret |= (1U<<4U);
     c9a:	10 61       	ori	r17, 0x10	; 16
     c9c:	de cd       	rjmp	.-1092   	; 0x85a <CtrlMarcheDispatcher+0x52c>
		{
			ret |= (1U<<2U);
		}	
		if( CtrlPatteMove(AVANT_DROITE		,	ANGLE_MAX_EPAULE	,	ANGLE_MAX_COUDE	,	body.speed ) == TRUE )
		{
			ret |= (1U<<3U);
     c9e:	18 60       	ori	r17, 0x08	; 8
     ca0:	d2 cd       	rjmp	.-1116   	; 0x846 <CtrlMarcheDispatcher+0x518>
		{
			ret |= (1U<<1U);
		}	
		if( CtrlPatteMove(ARRIERE_GAUCHE	,	ANGLE_MAX_EPAULE	,	ANGLE_MID_COUDE	,	body.speed ) == TRUE )
		{
			ret |= (1U<<2U);
     ca2:	14 60       	ori	r17, 0x04	; 4
     ca4:	c6 cd       	rjmp	.-1140   	; 0x832 <CtrlMarcheDispatcher+0x504>
		{
			ret |= (1U<<0U);
		}	
		if( CtrlPatteMove(MILIEU_GAUCHE		,	ANGLE_MIN_EPAULE	,	ANGLE_MIN_COUDE	,	body.speed ) == TRUE )
		{
			ret |= (1U<<1U);
     ca6:	12 60       	ori	r17, 0x02	; 2
     ca8:	ba cd       	rjmp	.-1164   	; 0x81e <CtrlMarcheDispatcher+0x4f0>
		/*
			/\| |\\				mid min |  | min mid
			/\| |\\		step 5	mid min |  | min mid
			/\| |\\				mid min |  | min mid
		*/
		if( CtrlPatteMove(AVANT_GAUCHE		,	ANGLE_MIN_EPAULE	,	ANGLE_MID_COUDE	,	body.speed ) == TRUE )
     caa:	80 e0       	ldi	r24, 0x00	; 0
     cac:	62 e8       	ldi	r22, 0x82	; 130
     cae:	4a e5       	ldi	r20, 0x5A	; 90
     cb0:	20 91 21 01 	lds	r18, 0x0121
     cb4:	0e 94 99 08 	call	0x1132	; 0x1132 <CtrlPatteMove>
	}
}	

static void CtrlMarcheSequenceRight( void ) 
{
	Int8U ret = 0x00U;
     cb8:	11 e0       	ldi	r17, 0x01	; 1
     cba:	81 30       	cpi	r24, 0x01	; 1
     cbc:	09 f0       	breq	.+2      	; 0xcc0 <CtrlMarcheDispatcher+0x992>
     cbe:	10 e0       	ldi	r17, 0x00	; 0
		*/
		if( CtrlPatteMove(AVANT_GAUCHE		,	ANGLE_MIN_EPAULE	,	ANGLE_MID_COUDE	,	body.speed ) == TRUE )
		{
			ret |= (1U<<0U);
		}	
		if( CtrlPatteMove(MILIEU_GAUCHE		,	ANGLE_MIN_EPAULE	,	ANGLE_MID_COUDE	,	body.speed ) == TRUE )
     cc0:	81 e0       	ldi	r24, 0x01	; 1
     cc2:	62 e8       	ldi	r22, 0x82	; 130
     cc4:	4a e5       	ldi	r20, 0x5A	; 90
     cc6:	20 91 21 01 	lds	r18, 0x0121
     cca:	0e 94 99 08 	call	0x1132	; 0x1132 <CtrlPatteMove>
     cce:	81 30       	cpi	r24, 0x01	; 1
     cd0:	09 f4       	brne	.+2      	; 0xcd4 <CtrlMarcheDispatcher+0x9a6>
		{
			ret |= (1U<<1U);
     cd2:	12 60       	ori	r17, 0x02	; 2
		}	
		if( CtrlPatteMove(ARRIERE_GAUCHE	,	ANGLE_MIN_EPAULE	,	ANGLE_MID_COUDE	,	body.speed ) == TRUE )
     cd4:	82 e0       	ldi	r24, 0x02	; 2
     cd6:	62 e8       	ldi	r22, 0x82	; 130
     cd8:	4a e5       	ldi	r20, 0x5A	; 90
     cda:	20 91 21 01 	lds	r18, 0x0121
     cde:	0e 94 99 08 	call	0x1132	; 0x1132 <CtrlPatteMove>
     ce2:	81 30       	cpi	r24, 0x01	; 1
     ce4:	09 f4       	brne	.+2      	; 0xce8 <CtrlMarcheDispatcher+0x9ba>
		{
			ret |= (1U<<2U);
     ce6:	14 60       	ori	r17, 0x04	; 4
		}	
		if( CtrlPatteMove(AVANT_DROITE		,	ANGLE_MIN_EPAULE	,	ANGLE_MID_COUDE	,	body.speed ) == TRUE )
     ce8:	83 e0       	ldi	r24, 0x03	; 3
     cea:	62 e8       	ldi	r22, 0x82	; 130
     cec:	4a e5       	ldi	r20, 0x5A	; 90
     cee:	20 91 21 01 	lds	r18, 0x0121
     cf2:	0e 94 99 08 	call	0x1132	; 0x1132 <CtrlPatteMove>
     cf6:	81 30       	cpi	r24, 0x01	; 1
     cf8:	09 f4       	brne	.+2      	; 0xcfc <CtrlMarcheDispatcher+0x9ce>
		{
			ret |= (1U<<3U);
     cfa:	18 60       	ori	r17, 0x08	; 8
		}	
		if( CtrlPatteMove(MILIEU_DROITE		,	ANGLE_MIN_EPAULE	,	ANGLE_MID_COUDE	,	body.speed ) == TRUE )
     cfc:	84 e0       	ldi	r24, 0x04	; 4
     cfe:	62 e8       	ldi	r22, 0x82	; 130
     d00:	4a e5       	ldi	r20, 0x5A	; 90
     d02:	20 91 21 01 	lds	r18, 0x0121
     d06:	0e 94 99 08 	call	0x1132	; 0x1132 <CtrlPatteMove>
     d0a:	81 30       	cpi	r24, 0x01	; 1
     d0c:	09 f4       	brne	.+2      	; 0xd10 <CtrlMarcheDispatcher+0x9e2>
		{
			ret |= (1U<<4U);
     d0e:	10 61       	ori	r17, 0x10	; 16
		}	
		if( CtrlPatteMove(ARRIERE_DROITE	,	ANGLE_MIN_EPAULE	,	ANGLE_MID_COUDE	,	body.speed ) == TRUE )
     d10:	85 e0       	ldi	r24, 0x05	; 5
     d12:	62 e8       	ldi	r22, 0x82	; 130
     d14:	67 cc       	rjmp	.-1842   	; 0x5e4 <CtrlMarcheDispatcher+0x2b6>
		/*
			/\| |\/				mid min |  | min max
			\\| |\\		step 1	min min |  | min mid
			/\| |\/				mid min |  | min max
		*/
		if( CtrlPatteMove(AVANT_GAUCHE		,	ANGLE_MIN_EPAULE	,	ANGLE_MID_COUDE	,	body.speed ) == TRUE )
     d16:	80 e0       	ldi	r24, 0x00	; 0
     d18:	62 e8       	ldi	r22, 0x82	; 130
     d1a:	4a e5       	ldi	r20, 0x5A	; 90
     d1c:	20 91 21 01 	lds	r18, 0x0121
     d20:	0e 94 99 08 	call	0x1132	; 0x1132 <CtrlPatteMove>
	}	
}

static void CtrlMarcheSequenceLeft( void ) 
{
	Int8U ret = 0x00U;
     d24:	11 e0       	ldi	r17, 0x01	; 1
     d26:	81 30       	cpi	r24, 0x01	; 1
     d28:	09 f0       	breq	.+2      	; 0xd2c <CtrlMarcheDispatcher+0x9fe>
     d2a:	10 e0       	ldi	r17, 0x00	; 0
		*/
		if( CtrlPatteMove(AVANT_GAUCHE		,	ANGLE_MIN_EPAULE	,	ANGLE_MID_COUDE	,	body.speed ) == TRUE )
		{
			ret |= (1U<<0U);
		}	
		if( CtrlPatteMove(MILIEU_GAUCHE		,	ANGLE_MIN_EPAULE	,	ANGLE_MIN_COUDE	,	body.speed ) == TRUE )
     d2c:	81 e0       	ldi	r24, 0x01	; 1
     d2e:	62 e8       	ldi	r22, 0x82	; 130
     d30:	4e e6       	ldi	r20, 0x6E	; 110
     d32:	20 91 21 01 	lds	r18, 0x0121
     d36:	0e 94 99 08 	call	0x1132	; 0x1132 <CtrlPatteMove>
     d3a:	81 30       	cpi	r24, 0x01	; 1
     d3c:	09 f4       	brne	.+2      	; 0xd40 <CtrlMarcheDispatcher+0xa12>
		{
			ret |= (1U<<1U);
     d3e:	12 60       	ori	r17, 0x02	; 2
		}	
		if( CtrlPatteMove(ARRIERE_GAUCHE	,	ANGLE_MIN_EPAULE	,	ANGLE_MID_COUDE	,	body.speed ) == TRUE )
     d40:	82 e0       	ldi	r24, 0x02	; 2
     d42:	62 e8       	ldi	r22, 0x82	; 130
     d44:	4a e5       	ldi	r20, 0x5A	; 90
     d46:	20 91 21 01 	lds	r18, 0x0121
     d4a:	0e 94 99 08 	call	0x1132	; 0x1132 <CtrlPatteMove>
     d4e:	81 30       	cpi	r24, 0x01	; 1
     d50:	09 f4       	brne	.+2      	; 0xd54 <CtrlMarcheDispatcher+0xa26>
		{
			ret |= (1U<<2U);
     d52:	14 60       	ori	r17, 0x04	; 4
		}	
		if( CtrlPatteMove(AVANT_DROITE		,	ANGLE_MIN_EPAULE	,	ANGLE_MAX_COUDE	,	body.speed ) == TRUE )
     d54:	83 e0       	ldi	r24, 0x03	; 3
     d56:	62 e8       	ldi	r22, 0x82	; 130
     d58:	46 e4       	ldi	r20, 0x46	; 70
     d5a:	20 91 21 01 	lds	r18, 0x0121
     d5e:	0e 94 99 08 	call	0x1132	; 0x1132 <CtrlPatteMove>
     d62:	81 30       	cpi	r24, 0x01	; 1
     d64:	09 f4       	brne	.+2      	; 0xd68 <CtrlMarcheDispatcher+0xa3a>
		{
			ret |= (1U<<3U);
     d66:	18 60       	ori	r17, 0x08	; 8
		}	
		if( CtrlPatteMove(MILIEU_DROITE		,	ANGLE_MIN_EPAULE	,	ANGLE_MID_COUDE	,	body.speed ) == TRUE )
     d68:	84 e0       	ldi	r24, 0x04	; 4
     d6a:	62 e8       	ldi	r22, 0x82	; 130
     d6c:	78 ce       	rjmp	.-784    	; 0xa5e <CtrlMarcheDispatcher+0x730>
		{
			ret |= (1U<<1U);
		}	
		if( CtrlPatteMove(ARRIERE_GAUCHE	,	ANGLE_MID_EPAULE	,	ANGLE_MID_COUDE	,	body.speed ) == TRUE )
		{
			ret |= (1U<<2U);
     d6e:	14 60       	ori	r17, 0x04	; 4
     d70:	f2 cc       	rjmp	.-1564   	; 0x756 <CtrlMarcheDispatcher+0x428>
		/*
			\/| |/\				min max |  | max mid
			/\| |\/		step 3	mid min |  | min max
			\/| |/\				min max |  | max mid
		*/
		if( CtrlPatteMove(AVANT_GAUCHE		,	ANGLE_MAX_EPAULE	,	ANGLE_MIN_COUDE	,	body.speed ) == TRUE )
     d72:	80 e0       	ldi	r24, 0x00	; 0
     d74:	62 e3       	ldi	r22, 0x32	; 50
     d76:	4e e6       	ldi	r20, 0x6E	; 110
     d78:	20 91 21 01 	lds	r18, 0x0121
     d7c:	0e 94 99 08 	call	0x1132	; 0x1132 <CtrlPatteMove>
	}
}	

static void CtrlMarcheSequenceBackward( void ) 
{
	Int8U ret = 0x00;
     d80:	11 e0       	ldi	r17, 0x01	; 1
     d82:	81 30       	cpi	r24, 0x01	; 1
     d84:	09 f0       	breq	.+2      	; 0xd88 <CtrlMarcheDispatcher+0xa5a>
     d86:	10 e0       	ldi	r17, 0x00	; 0
		*/
		if( CtrlPatteMove(AVANT_GAUCHE		,	ANGLE_MAX_EPAULE	,	ANGLE_MIN_COUDE	,	body.speed ) == TRUE )
		{
			ret |= (1U<<0U);
		}	
		if( CtrlPatteMove(MILIEU_GAUCHE		,	ANGLE_MIN_EPAULE	,	ANGLE_MID_COUDE	,	body.speed ) == TRUE )
     d88:	81 e0       	ldi	r24, 0x01	; 1
     d8a:	62 e8       	ldi	r22, 0x82	; 130
     d8c:	4a e5       	ldi	r20, 0x5A	; 90
     d8e:	20 91 21 01 	lds	r18, 0x0121
     d92:	0e 94 99 08 	call	0x1132	; 0x1132 <CtrlPatteMove>
     d96:	81 30       	cpi	r24, 0x01	; 1
     d98:	09 f4       	brne	.+2      	; 0xd9c <CtrlMarcheDispatcher+0xa6e>
		{
			ret |= (1U<<1U);
     d9a:	12 60       	ori	r17, 0x02	; 2
		}	
		if( CtrlPatteMove(ARRIERE_GAUCHE	,	ANGLE_MAX_EPAULE	,	ANGLE_MIN_COUDE	,	body.speed ) == TRUE )
     d9c:	82 e0       	ldi	r24, 0x02	; 2
     d9e:	62 e3       	ldi	r22, 0x32	; 50
     da0:	4e e6       	ldi	r20, 0x6E	; 110
     da2:	20 91 21 01 	lds	r18, 0x0121
     da6:	0e 94 99 08 	call	0x1132	; 0x1132 <CtrlPatteMove>
     daa:	81 30       	cpi	r24, 0x01	; 1
     dac:	09 f4       	brne	.+2      	; 0xdb0 <CtrlMarcheDispatcher+0xa82>
		{
			ret |= (1U<<2U);
     dae:	14 60       	ori	r17, 0x04	; 4
		}	
		if( CtrlPatteMove(AVANT_DROITE		,	ANGLE_MAX_EPAULE	,	ANGLE_MID_COUDE	,	body.speed ) == TRUE )
     db0:	83 e0       	ldi	r24, 0x03	; 3
     db2:	62 e3       	ldi	r22, 0x32	; 50
     db4:	4a e5       	ldi	r20, 0x5A	; 90
     db6:	20 91 21 01 	lds	r18, 0x0121
     dba:	0e 94 99 08 	call	0x1132	; 0x1132 <CtrlPatteMove>
     dbe:	81 30       	cpi	r24, 0x01	; 1
     dc0:	09 f4       	brne	.+2      	; 0xdc4 <CtrlMarcheDispatcher+0xa96>
		{
			ret |= (1U<<3U);
     dc2:	18 60       	ori	r17, 0x08	; 8
		}	
		if( CtrlPatteMove(MILIEU_DROITE		,	ANGLE_MIN_EPAULE	,	ANGLE_MAX_COUDE	,	body.speed ) == TRUE )
     dc4:	84 e0       	ldi	r24, 0x04	; 4
     dc6:	62 e8       	ldi	r22, 0x82	; 130
     dc8:	46 e4       	ldi	r20, 0x46	; 70
     dca:	20 91 21 01 	lds	r18, 0x0121
     dce:	0e 94 99 08 	call	0x1132	; 0x1132 <CtrlPatteMove>
     dd2:	81 30       	cpi	r24, 0x01	; 1
     dd4:	09 f4       	brne	.+2      	; 0xdd8 <CtrlMarcheDispatcher+0xaaa>
		{
			ret |= (1U<<4U);
     dd6:	10 61       	ori	r17, 0x10	; 16
		}	
		if( CtrlPatteMove(ARRIERE_DROITE	,	ANGLE_MAX_EPAULE	,	ANGLE_MID_COUDE	,	body.speed ) == TRUE )
     dd8:	85 e0       	ldi	r24, 0x05	; 5
     dda:	62 e3       	ldi	r22, 0x32	; 50
     ddc:	4a e5       	ldi	r20, 0x5A	; 90
     dde:	20 91 21 01 	lds	r18, 0x0121
     de2:	0e 94 99 08 	call	0x1132	; 0x1132 <CtrlPatteMove>
     de6:	81 30       	cpi	r24, 0x01	; 1
     de8:	09 f0       	breq	.+2      	; 0xdec <CtrlMarcheDispatcher+0xabe>
     dea:	04 cc       	rjmp	.-2040   	; 0x5f4 <CtrlMarcheDispatcher+0x2c6>
     dec:	05 ce       	rjmp	.-1014   	; 0x9f8 <CtrlMarcheDispatcher+0x6ca>
		/*
			\\| |/\				min min |  | max mid
			//| |\/		step 3	mid max |  | min max
			\\| |/\				min min |  | max mid
		*/
		if( CtrlPatteMove(AVANT_GAUCHE		,	ANGLE_MIN_EPAULE	,	ANGLE_MIN_COUDE	,	body.speed ) == TRUE )
     dee:	80 e0       	ldi	r24, 0x00	; 0
     df0:	62 e8       	ldi	r22, 0x82	; 130
     df2:	4e e6       	ldi	r20, 0x6E	; 110
     df4:	20 91 21 01 	lds	r18, 0x0121
     df8:	0e 94 99 08 	call	0x1132	; 0x1132 <CtrlPatteMove>
	}	
}

static void CtrlMarcheSequenceLeft( void ) 
{
	Int8U ret = 0x00U;
     dfc:	11 e0       	ldi	r17, 0x01	; 1
     dfe:	81 30       	cpi	r24, 0x01	; 1
     e00:	09 f0       	breq	.+2      	; 0xe04 <CtrlMarcheDispatcher+0xad6>
     e02:	10 e0       	ldi	r17, 0x00	; 0
		*/
		if( CtrlPatteMove(AVANT_GAUCHE		,	ANGLE_MIN_EPAULE	,	ANGLE_MIN_COUDE	,	body.speed ) == TRUE )
		{
			ret |= (1U<<0U);
		}	
		if( CtrlPatteMove(MILIEU_GAUCHE		,	ANGLE_MAX_EPAULE	,	ANGLE_MID_COUDE	,	body.speed ) == TRUE )
     e04:	81 e0       	ldi	r24, 0x01	; 1
     e06:	62 e3       	ldi	r22, 0x32	; 50
     e08:	4a e5       	ldi	r20, 0x5A	; 90
     e0a:	20 91 21 01 	lds	r18, 0x0121
     e0e:	0e 94 99 08 	call	0x1132	; 0x1132 <CtrlPatteMove>
     e12:	81 30       	cpi	r24, 0x01	; 1
     e14:	09 f4       	brne	.+2      	; 0xe18 <CtrlMarcheDispatcher+0xaea>
     e16:	de c0       	rjmp	.+444    	; 0xfd4 <CtrlMarcheDispatcher+0xca6>
		{
			ret |= (1U<<1U);
		}	
		if( CtrlPatteMove(ARRIERE_GAUCHE	,	ANGLE_MIN_EPAULE	,	ANGLE_MIN_COUDE	,	body.speed ) == TRUE )
     e18:	82 e0       	ldi	r24, 0x02	; 2
     e1a:	62 e8       	ldi	r22, 0x82	; 130
     e1c:	4e e6       	ldi	r20, 0x6E	; 110
     e1e:	20 91 21 01 	lds	r18, 0x0121
     e22:	0e 94 99 08 	call	0x1132	; 0x1132 <CtrlPatteMove>
     e26:	81 30       	cpi	r24, 0x01	; 1
     e28:	09 f4       	brne	.+2      	; 0xe2c <CtrlMarcheDispatcher+0xafe>
     e2a:	d2 c0       	rjmp	.+420    	; 0xfd0 <CtrlMarcheDispatcher+0xca2>
		{
			ret |= (1U<<2U);
		}	
		if( CtrlPatteMove(AVANT_DROITE		,	ANGLE_MAX_EPAULE	,	ANGLE_MID_COUDE	,	body.speed ) == TRUE )
     e2c:	83 e0       	ldi	r24, 0x03	; 3
     e2e:	62 e3       	ldi	r22, 0x32	; 50
     e30:	4a e5       	ldi	r20, 0x5A	; 90
     e32:	20 91 21 01 	lds	r18, 0x0121
     e36:	0e 94 99 08 	call	0x1132	; 0x1132 <CtrlPatteMove>
     e3a:	81 30       	cpi	r24, 0x01	; 1
     e3c:	09 f4       	brne	.+2      	; 0xe40 <CtrlMarcheDispatcher+0xb12>
     e3e:	c6 c0       	rjmp	.+396    	; 0xfcc <CtrlMarcheDispatcher+0xc9e>
		{
			ret |= (1U<<3U);
		}	
		if( CtrlPatteMove(MILIEU_DROITE		,	ANGLE_MIN_EPAULE	,	ANGLE_MAX_COUDE	,	body.speed ) == TRUE )
     e40:	84 e0       	ldi	r24, 0x04	; 4
     e42:	62 e8       	ldi	r22, 0x82	; 130
     e44:	46 e4       	ldi	r20, 0x46	; 70
     e46:	20 91 21 01 	lds	r18, 0x0121
     e4a:	0e 94 99 08 	call	0x1132	; 0x1132 <CtrlPatteMove>
     e4e:	81 30       	cpi	r24, 0x01	; 1
     e50:	09 f4       	brne	.+2      	; 0xe54 <CtrlMarcheDispatcher+0xb26>
     e52:	ba c0       	rjmp	.+372    	; 0xfc8 <CtrlMarcheDispatcher+0xc9a>
		{
			ret |= (1U<<4U);
		}	
		if( CtrlPatteMove(ARRIERE_DROITE	,	ANGLE_MAX_EPAULE	,	ANGLE_MID_COUDE	,	body.speed ) == TRUE )
     e54:	85 e0       	ldi	r24, 0x05	; 5
     e56:	62 e3       	ldi	r22, 0x32	; 50
     e58:	4a e5       	ldi	r20, 0x5A	; 90
     e5a:	20 91 21 01 	lds	r18, 0x0121
     e5e:	0e 94 99 08 	call	0x1132	; 0x1132 <CtrlPatteMove>
     e62:	81 30       	cpi	r24, 0x01	; 1
     e64:	09 f0       	breq	.+2      	; 0xe68 <CtrlMarcheDispatcher+0xb3a>
     e66:	c6 cb       	rjmp	.-2164   	; 0x5f4 <CtrlMarcheDispatcher+0x2c6>
		{
			ret |= (1U<<5U);
     e68:	10 62       	ori	r17, 0x20	; 32
		}	
		//quand on est arrivé a la bonne position on change de step	
		if( ret == 0x3FU )
     e6a:	1f 33       	cpi	r17, 0x3F	; 63
     e6c:	09 f0       	breq	.+2      	; 0xe70 <CtrlMarcheDispatcher+0xb42>
     e6e:	c2 cb       	rjmp	.-2172   	; 0x5f4 <CtrlMarcheDispatcher+0x2c6>
		{
			step = 4U;
     e70:	84 e0       	ldi	r24, 0x04	; 4
     e72:	37 cd       	rjmp	.-1426   	; 0x8e2 <CtrlMarcheDispatcher+0x5b4>
		/*
			/\| |//				mid min |  | max max
			\/| |\\		step 2	min max |  | min mid
			/\| |//				mid min |  | max max
		*/
		if( CtrlPatteMove(AVANT_GAUCHE		,	ANGLE_MIN_EPAULE	,	ANGLE_MID_COUDE	,	body.speed ) == TRUE )
     e74:	80 e0       	ldi	r24, 0x00	; 0
     e76:	62 e8       	ldi	r22, 0x82	; 130
     e78:	4a e5       	ldi	r20, 0x5A	; 90
     e7a:	20 91 21 01 	lds	r18, 0x0121
     e7e:	0e 94 99 08 	call	0x1132	; 0x1132 <CtrlPatteMove>
	}	
}

static void CtrlMarcheSequenceLeft( void ) 
{
	Int8U ret = 0x00U;
     e82:	11 e0       	ldi	r17, 0x01	; 1
     e84:	81 30       	cpi	r24, 0x01	; 1
     e86:	09 f0       	breq	.+2      	; 0xe8a <CtrlMarcheDispatcher+0xb5c>
     e88:	10 e0       	ldi	r17, 0x00	; 0
		*/
		if( CtrlPatteMove(AVANT_GAUCHE		,	ANGLE_MIN_EPAULE	,	ANGLE_MID_COUDE	,	body.speed ) == TRUE )
		{
			ret |= (1U<<0U);
		}	
		if( CtrlPatteMove(MILIEU_GAUCHE		,	ANGLE_MAX_EPAULE	,	ANGLE_MIN_COUDE	,	body.speed ) == TRUE )
     e8a:	81 e0       	ldi	r24, 0x01	; 1
     e8c:	62 e3       	ldi	r22, 0x32	; 50
     e8e:	4e e6       	ldi	r20, 0x6E	; 110
     e90:	20 91 21 01 	lds	r18, 0x0121
     e94:	0e 94 99 08 	call	0x1132	; 0x1132 <CtrlPatteMove>
     e98:	81 30       	cpi	r24, 0x01	; 1
     e9a:	09 f4       	brne	.+2      	; 0xe9e <CtrlMarcheDispatcher+0xb70>
		{
			ret |= (1U<<1U);
     e9c:	12 60       	ori	r17, 0x02	; 2
		}	
		if( CtrlPatteMove(ARRIERE_GAUCHE	,	ANGLE_MIN_EPAULE	,	ANGLE_MID_COUDE	,	body.speed ) == TRUE )
     e9e:	82 e0       	ldi	r24, 0x02	; 2
     ea0:	62 e8       	ldi	r22, 0x82	; 130
     ea2:	4a e5       	ldi	r20, 0x5A	; 90
     ea4:	20 91 21 01 	lds	r18, 0x0121
     ea8:	0e 94 99 08 	call	0x1132	; 0x1132 <CtrlPatteMove>
     eac:	81 30       	cpi	r24, 0x01	; 1
     eae:	09 f4       	brne	.+2      	; 0xeb2 <CtrlMarcheDispatcher+0xb84>
		{
			ret |= (1U<<2U);
     eb0:	14 60       	ori	r17, 0x04	; 4
		}	
		if( CtrlPatteMove(AVANT_DROITE		,	ANGLE_MAX_EPAULE	,	ANGLE_MAX_COUDE	,	body.speed ) == TRUE )
     eb2:	83 e0       	ldi	r24, 0x03	; 3
     eb4:	62 e3       	ldi	r22, 0x32	; 50
     eb6:	46 e4       	ldi	r20, 0x46	; 70
     eb8:	20 91 21 01 	lds	r18, 0x0121
     ebc:	0e 94 99 08 	call	0x1132	; 0x1132 <CtrlPatteMove>
     ec0:	81 30       	cpi	r24, 0x01	; 1
     ec2:	09 f4       	brne	.+2      	; 0xec6 <CtrlMarcheDispatcher+0xb98>
		{
			ret |= (1U<<3U);
     ec4:	18 60       	ori	r17, 0x08	; 8
		}	
		if( CtrlPatteMove(MILIEU_DROITE		,	ANGLE_MIN_EPAULE	,	ANGLE_MID_COUDE	,	body.speed ) == TRUE )
     ec6:	84 e0       	ldi	r24, 0x04	; 4
     ec8:	62 e8       	ldi	r22, 0x82	; 130
     eca:	4a e5       	ldi	r20, 0x5A	; 90
     ecc:	20 91 21 01 	lds	r18, 0x0121
     ed0:	0e 94 99 08 	call	0x1132	; 0x1132 <CtrlPatteMove>
     ed4:	81 30       	cpi	r24, 0x01	; 1
     ed6:	09 f4       	brne	.+2      	; 0xeda <CtrlMarcheDispatcher+0xbac>
		{
			ret |= (1U<<4U);
     ed8:	10 61       	ori	r17, 0x10	; 16
		}	
		if( CtrlPatteMove(ARRIERE_DROITE	,	ANGLE_MAX_EPAULE	,	ANGLE_MAX_COUDE	,	body.speed ) == TRUE )
     eda:	85 e0       	ldi	r24, 0x05	; 5
     edc:	62 e3       	ldi	r22, 0x32	; 50
     ede:	cb ce       	rjmp	.-618    	; 0xc76 <CtrlMarcheDispatcher+0x948>
		{
			ret |= (1U<<3U);
		}	
		if( CtrlPatteMove(MILIEU_DROITE		,	ANGLE_MAX_EPAULE	,	ANGLE_MID_COUDE	,	body.speed ) == TRUE )
		{
			ret |= (1U<<4U);
     ee0:	10 61       	ori	r17, 0x10	; 16
     ee2:	10 cc       	rjmp	.-2016   	; 0x704 <CtrlMarcheDispatcher+0x3d6>
		{
			ret |= (1U<<2U);
		}	
		if( CtrlPatteMove(AVANT_DROITE		,	ANGLE_MAX_EPAULE	,	ANGLE_MID_COUDE	,	body.speed ) == TRUE )
		{
			ret |= (1U<<3U);
     ee4:	18 60       	ori	r17, 0x08	; 8
     ee6:	04 cc       	rjmp	.-2040   	; 0x6f0 <CtrlMarcheDispatcher+0x3c2>
		{
			ret |= (1U<<1U);
		}	
		if( CtrlPatteMove(ARRIERE_GAUCHE	,	ANGLE_MAX_EPAULE	,	ANGLE_MID_COUDE	,	body.speed ) == TRUE )
		{
			ret |= (1U<<2U);
     ee8:	14 60       	ori	r17, 0x04	; 4
     eea:	f8 cb       	rjmp	.-2064   	; 0x6dc <CtrlMarcheDispatcher+0x3ae>
		{
			ret |= (1U<<0U);
		}	
		if( CtrlPatteMove(MILIEU_GAUCHE		,	ANGLE_MAX_EPAULE	,	ANGLE_MID_COUDE	,	body.speed ) == TRUE )
		{
			ret |= (1U<<1U);
     eec:	12 60       	ori	r17, 0x02	; 2
     eee:	ec cb       	rjmp	.-2088   	; 0x6c8 <CtrlMarcheDispatcher+0x39a>
		{
			ret |= (1U<<3U);
		}	
		if( CtrlPatteMove(MILIEU_DROITE		,	ANGLE_MAX_EPAULE	,	ANGLE_MAX_COUDE	,	body.speed ) == TRUE )
		{
			ret |= (1U<<4U);
     ef0:	10 61       	ori	r17, 0x10	; 16
     ef2:	70 cc       	rjmp	.-1824   	; 0x7d4 <CtrlMarcheDispatcher+0x4a6>
		{
			ret |= (1U<<2U);
		}	
		if( CtrlPatteMove(AVANT_DROITE		,	ANGLE_MIN_EPAULE	,	ANGLE_MID_COUDE	,	body.speed ) == TRUE )
		{
			ret |= (1U<<3U);
     ef4:	18 60       	ori	r17, 0x08	; 8
     ef6:	64 cc       	rjmp	.-1848   	; 0x7c0 <CtrlMarcheDispatcher+0x492>
		{
			ret |= (1U<<1U);
		}	
		if( CtrlPatteMove(ARRIERE_GAUCHE	,	ANGLE_MIN_EPAULE	,	ANGLE_MIN_COUDE	,	body.speed ) == TRUE )
		{
			ret |= (1U<<2U);
     ef8:	14 60       	ori	r17, 0x04	; 4
     efa:	58 cc       	rjmp	.-1872   	; 0x7ac <CtrlMarcheDispatcher+0x47e>
		{
			ret |= (1U<<0U);
		}	
		if( CtrlPatteMove(MILIEU_GAUCHE		,	ANGLE_MAX_EPAULE	,	ANGLE_MID_COUDE	,	body.speed ) == TRUE )
		{
			ret |= (1U<<1U);
     efc:	12 60       	ori	r17, 0x02	; 2
     efe:	4c cc       	rjmp	.-1896   	; 0x798 <CtrlMarcheDispatcher+0x46a>
		/*
			\/| |/\				min max |  | max mid
			//| |//		step 4	mid max |  | max max
			\/| |/\				min max |  | max mid
		*/
		if( CtrlPatteMove(AVANT_GAUCHE		,	ANGLE_MAX_EPAULE	,	ANGLE_MIN_COUDE	,	body.speed ) == TRUE )
     f00:	80 e0       	ldi	r24, 0x00	; 0
     f02:	62 e3       	ldi	r22, 0x32	; 50
     f04:	4e e6       	ldi	r20, 0x6E	; 110
     f06:	20 91 21 01 	lds	r18, 0x0121
     f0a:	0e 94 99 08 	call	0x1132	; 0x1132 <CtrlPatteMove>
	}	
}

static void CtrlMarcheSequenceLeft( void ) 
{
	Int8U ret = 0x00U;
     f0e:	11 e0       	ldi	r17, 0x01	; 1
     f10:	81 30       	cpi	r24, 0x01	; 1
     f12:	09 f0       	breq	.+2      	; 0xf16 <CtrlMarcheDispatcher+0xbe8>
     f14:	10 e0       	ldi	r17, 0x00	; 0
		*/
		if( CtrlPatteMove(AVANT_GAUCHE		,	ANGLE_MAX_EPAULE	,	ANGLE_MIN_COUDE	,	body.speed ) == TRUE )
		{
			ret |= (1U<<0U);
		}	
		if( CtrlPatteMove(MILIEU_GAUCHE		,	ANGLE_MAX_EPAULE	,	ANGLE_MID_COUDE	,	body.speed ) == TRUE )
     f16:	81 e0       	ldi	r24, 0x01	; 1
     f18:	62 e3       	ldi	r22, 0x32	; 50
     f1a:	4a e5       	ldi	r20, 0x5A	; 90
     f1c:	20 91 21 01 	lds	r18, 0x0121
     f20:	0e 94 99 08 	call	0x1132	; 0x1132 <CtrlPatteMove>
     f24:	81 30       	cpi	r24, 0x01	; 1
     f26:	09 f4       	brne	.+2      	; 0xf2a <CtrlMarcheDispatcher+0xbfc>
     f28:	4d c0       	rjmp	.+154    	; 0xfc4 <CtrlMarcheDispatcher+0xc96>
		{
			ret |= (1U<<1U);
		}	
		if( CtrlPatteMove(ARRIERE_GAUCHE	,	ANGLE_MAX_EPAULE	,	ANGLE_MIN_COUDE	,	body.speed ) == TRUE )
     f2a:	82 e0       	ldi	r24, 0x02	; 2
     f2c:	62 e3       	ldi	r22, 0x32	; 50
     f2e:	4e e6       	ldi	r20, 0x6E	; 110
     f30:	20 91 21 01 	lds	r18, 0x0121
     f34:	0e 94 99 08 	call	0x1132	; 0x1132 <CtrlPatteMove>
     f38:	81 30       	cpi	r24, 0x01	; 1
     f3a:	09 f4       	brne	.+2      	; 0xf3e <CtrlMarcheDispatcher+0xc10>
     f3c:	41 c0       	rjmp	.+130    	; 0xfc0 <CtrlMarcheDispatcher+0xc92>
		{
			ret |= (1U<<2U);
		}	
		if( CtrlPatteMove(AVANT_DROITE		,	ANGLE_MAX_EPAULE	,	ANGLE_MID_COUDE	,	body.speed ) == TRUE )
     f3e:	83 e0       	ldi	r24, 0x03	; 3
     f40:	62 e3       	ldi	r22, 0x32	; 50
     f42:	4a e5       	ldi	r20, 0x5A	; 90
     f44:	20 91 21 01 	lds	r18, 0x0121
     f48:	0e 94 99 08 	call	0x1132	; 0x1132 <CtrlPatteMove>
     f4c:	81 30       	cpi	r24, 0x01	; 1
     f4e:	b1 f1       	breq	.+108    	; 0xfbc <CtrlMarcheDispatcher+0xc8e>
		{
			ret |= (1U<<3U);
		}	
		if( CtrlPatteMove(MILIEU_DROITE		,	ANGLE_MAX_EPAULE	,	ANGLE_MAX_COUDE	,	body.speed ) == TRUE )
     f50:	84 e0       	ldi	r24, 0x04	; 4
     f52:	62 e3       	ldi	r22, 0x32	; 50
     f54:	46 e4       	ldi	r20, 0x46	; 70
     f56:	20 91 21 01 	lds	r18, 0x0121
     f5a:	0e 94 99 08 	call	0x1132	; 0x1132 <CtrlPatteMove>
     f5e:	81 30       	cpi	r24, 0x01	; 1
     f60:	59 f1       	breq	.+86     	; 0xfb8 <CtrlMarcheDispatcher+0xc8a>
		{
			ret |= (1U<<4U);
		}	
		if( CtrlPatteMove(ARRIERE_DROITE	,	ANGLE_MAX_EPAULE	,	ANGLE_MID_COUDE	,	body.speed ) == TRUE )
     f62:	85 e0       	ldi	r24, 0x05	; 5
     f64:	62 e3       	ldi	r22, 0x32	; 50
     f66:	4a e5       	ldi	r20, 0x5A	; 90
     f68:	20 91 21 01 	lds	r18, 0x0121
     f6c:	0e 94 99 08 	call	0x1132	; 0x1132 <CtrlPatteMove>
     f70:	81 30       	cpi	r24, 0x01	; 1
     f72:	09 f0       	breq	.+2      	; 0xf76 <CtrlMarcheDispatcher+0xc48>
     f74:	3f cb       	rjmp	.-2434   	; 0x5f4 <CtrlMarcheDispatcher+0x2c6>
		{
			ret |= (1U<<5U);
     f76:	10 62       	ori	r17, 0x20	; 32
		}	
		//quand on est arrivé a la bonne position on change de step	
		if( ret == 0x3FU )
     f78:	1f 33       	cpi	r17, 0x3F	; 63
     f7a:	09 f0       	breq	.+2      	; 0xf7e <CtrlMarcheDispatcher+0xc50>
     f7c:	3b cb       	rjmp	.-2442   	; 0x5f4 <CtrlMarcheDispatcher+0x2c6>
		{
			step = 5U;
     f7e:	85 e0       	ldi	r24, 0x05	; 5
     f80:	80 93 1f 01 	sts	0x011F, r24
     f84:	80 91 20 01 	lds	r24, 0x0120
     f88:	1c ca       	rjmp	.-3016   	; 0x3c2 <CtrlMarcheDispatcher+0x94>
		{
			ret |= (1U<<4U);
		}	
		if( CtrlPatteMove(ARRIERE_DROITE	,	ANGLE_MIN_EPAULE	,	ANGLE_MID_COUDE	,	body.speed ) == TRUE )
		{
			ret |= (1U<<5U);
     f8a:	10 62       	ori	r17, 0x20	; 32
		}	
		//quand on est arrivé a la bonne position on change de step	
		if( ret == 0x3FU )
     f8c:	1f 33       	cpi	r17, 0x3F	; 63
     f8e:	09 f0       	breq	.+2      	; 0xf92 <CtrlMarcheDispatcher+0xc64>
     f90:	31 cb       	rjmp	.-2462   	; 0x5f4 <CtrlMarcheDispatcher+0x2c6>
		{
			step = 0U;
     f92:	10 92 1f 01 	sts	0x011F, r1
     f96:	2e cb       	rjmp	.-2468   	; 0x5f4 <CtrlMarcheDispatcher+0x2c6>
		{
			ret |= (1U<<3U);
		}	
		if( CtrlPatteMove(MILIEU_DROITE		,	ANGLE_MIN_EPAULE	,	ANGLE_MAX_COUDE	,	body.speed ) == TRUE )
		{
			ret |= (1U<<4U);
     f98:	10 61       	ori	r17, 0x10	; 16
     f9a:	dd cc       	rjmp	.-1606   	; 0x956 <CtrlMarcheDispatcher+0x628>
		{
			ret |= (1U<<2U);
		}	
		if( CtrlPatteMove(AVANT_DROITE		,	ANGLE_MAX_EPAULE	,	ANGLE_MID_COUDE	,	body.speed ) == TRUE )
		{
			ret |= (1U<<3U);
     f9c:	18 60       	ori	r17, 0x08	; 8
     f9e:	d1 cc       	rjmp	.-1630   	; 0x942 <CtrlMarcheDispatcher+0x614>
		{
			ret |= (1U<<1U);
		}	
		if( CtrlPatteMove(ARRIERE_GAUCHE	,	ANGLE_MAX_EPAULE	,	ANGLE_MIN_COUDE	,	body.speed ) == TRUE )
		{
			ret |= (1U<<2U);
     fa0:	14 60       	ori	r17, 0x04	; 4
     fa2:	c5 cc       	rjmp	.-1654   	; 0x92e <CtrlMarcheDispatcher+0x600>
		{
			ret |= (1U<<0U);
		}	
		if( CtrlPatteMove(MILIEU_GAUCHE		,	ANGLE_MIN_EPAULE	,	ANGLE_MID_COUDE	,	body.speed ) == TRUE )
		{
			ret |= (1U<<1U);
     fa4:	12 60       	ori	r17, 0x02	; 2
     fa6:	b9 cc       	rjmp	.-1678   	; 0x91a <CtrlMarcheDispatcher+0x5ec>
		{
			ret |= (1U<<3U);
		}	
		if( CtrlPatteMove(MILIEU_DROITE		,	ANGLE_MAX_EPAULE	,	ANGLE_MID_COUDE	,	body.speed ) == TRUE )
		{
			ret |= (1U<<4U);
     fa8:	10 61       	ori	r17, 0x10	; 16
     faa:	1a cb       	rjmp	.-2508   	; 0x5e0 <CtrlMarcheDispatcher+0x2b2>
		{
			ret |= (1U<<2U);
		}	
		if( CtrlPatteMove(AVANT_DROITE		,	ANGLE_MAX_EPAULE	,	ANGLE_MID_COUDE	,	body.speed ) == TRUE )
		{
			ret |= (1U<<3U);
     fac:	18 60       	ori	r17, 0x08	; 8
     fae:	0e cb       	rjmp	.-2532   	; 0x5cc <CtrlMarcheDispatcher+0x29e>
		{
			ret |= (1U<<1U);
		}	
		if( CtrlPatteMove(ARRIERE_GAUCHE	,	ANGLE_MAX_EPAULE	,	ANGLE_MID_COUDE	,	body.speed ) == TRUE )
		{
			ret |= (1U<<2U);
     fb0:	14 60       	ori	r17, 0x04	; 4
     fb2:	02 cb       	rjmp	.-2556   	; 0x5b8 <CtrlMarcheDispatcher+0x28a>
		{
			ret |= (1U<<0U);
		}	
		if( CtrlPatteMove(MILIEU_GAUCHE		,	ANGLE_MAX_EPAULE	,	ANGLE_MID_COUDE	,	body.speed ) == TRUE )
		{
			ret |= (1U<<1U);
     fb4:	12 60       	ori	r17, 0x02	; 2
     fb6:	f6 ca       	rjmp	.-2580   	; 0x5a4 <CtrlMarcheDispatcher+0x276>
		{
			ret |= (1U<<3U);
		}	
		if( CtrlPatteMove(MILIEU_DROITE		,	ANGLE_MAX_EPAULE	,	ANGLE_MAX_COUDE	,	body.speed ) == TRUE )
		{
			ret |= (1U<<4U);
     fb8:	10 61       	ori	r17, 0x10	; 16
     fba:	d3 cf       	rjmp	.-90     	; 0xf62 <CtrlMarcheDispatcher+0xc34>
		{
			ret |= (1U<<2U);
		}	
		if( CtrlPatteMove(AVANT_DROITE		,	ANGLE_MAX_EPAULE	,	ANGLE_MID_COUDE	,	body.speed ) == TRUE )
		{
			ret |= (1U<<3U);
     fbc:	18 60       	ori	r17, 0x08	; 8
     fbe:	c8 cf       	rjmp	.-112    	; 0xf50 <CtrlMarcheDispatcher+0xc22>
		{
			ret |= (1U<<1U);
		}	
		if( CtrlPatteMove(ARRIERE_GAUCHE	,	ANGLE_MAX_EPAULE	,	ANGLE_MIN_COUDE	,	body.speed ) == TRUE )
		{
			ret |= (1U<<2U);
     fc0:	14 60       	ori	r17, 0x04	; 4
     fc2:	bd cf       	rjmp	.-134    	; 0xf3e <CtrlMarcheDispatcher+0xc10>
		{
			ret |= (1U<<0U);
		}	
		if( CtrlPatteMove(MILIEU_GAUCHE		,	ANGLE_MAX_EPAULE	,	ANGLE_MID_COUDE	,	body.speed ) == TRUE )
		{
			ret |= (1U<<1U);
     fc4:	12 60       	ori	r17, 0x02	; 2
     fc6:	b1 cf       	rjmp	.-158    	; 0xf2a <CtrlMarcheDispatcher+0xbfc>
		{
			ret |= (1U<<3U);
		}	
		if( CtrlPatteMove(MILIEU_DROITE		,	ANGLE_MIN_EPAULE	,	ANGLE_MAX_COUDE	,	body.speed ) == TRUE )
		{
			ret |= (1U<<4U);
     fc8:	10 61       	ori	r17, 0x10	; 16
     fca:	44 cf       	rjmp	.-376    	; 0xe54 <CtrlMarcheDispatcher+0xb26>
		{
			ret |= (1U<<2U);
		}	
		if( CtrlPatteMove(AVANT_DROITE		,	ANGLE_MAX_EPAULE	,	ANGLE_MID_COUDE	,	body.speed ) == TRUE )
		{
			ret |= (1U<<3U);
     fcc:	18 60       	ori	r17, 0x08	; 8
     fce:	38 cf       	rjmp	.-400    	; 0xe40 <CtrlMarcheDispatcher+0xb12>
		{
			ret |= (1U<<1U);
		}	
		if( CtrlPatteMove(ARRIERE_GAUCHE	,	ANGLE_MIN_EPAULE	,	ANGLE_MIN_COUDE	,	body.speed ) == TRUE )
		{
			ret |= (1U<<2U);
     fd0:	14 60       	ori	r17, 0x04	; 4
     fd2:	2c cf       	rjmp	.-424    	; 0xe2c <CtrlMarcheDispatcher+0xafe>
		{
			ret |= (1U<<0U);
		}	
		if( CtrlPatteMove(MILIEU_GAUCHE		,	ANGLE_MAX_EPAULE	,	ANGLE_MID_COUDE	,	body.speed ) == TRUE )
		{
			ret |= (1U<<1U);
     fd4:	12 60       	ori	r17, 0x02	; 2
     fd6:	20 cf       	rjmp	.-448    	; 0xe18 <CtrlMarcheDispatcher+0xaea>

00000fd8 <CtrlMarcheGetStruct>:

//on recupere la structure
body_member_t* CtrlMarcheGetStruct( void )
{
	return &body;	
}
     fd8:	80 e2       	ldi	r24, 0x20	; 32
     fda:	91 e0       	ldi	r25, 0x01	; 1
     fdc:	08 95       	ret

00000fde <CtrlMarcheMove>:


//deplace le robot 
void CtrlMarcheMove( EMove move, EServoVitesse speed ) 
{
	step = 0U;
     fde:	10 92 1f 01 	sts	0x011F, r1
	body.move = move;
     fe2:	80 93 20 01 	sts	0x0120, r24
	body.speed = speed;
     fe6:	60 93 21 01 	sts	0x0121, r22
}
     fea:	08 95       	ret

00000fec <CtrlPatte>:
 
/////////////////////////////////////////PUBLIC FUNCTIONS/////////////////////////////////////////

//init
void CtrlPatte( void ) 
{
     fec:	df 92       	push	r13
     fee:	ef 92       	push	r14
     ff0:	ff 92       	push	r15
     ff2:	0f 93       	push	r16
     ff4:	1f 93       	push	r17
	//on ajoute les servos pour chaques patte
	
	//avant gauche
	MesPattes[ AVANT_GAUCHE ].epaule.pin = CONF_SERVO_PATTE_AVANT_GAUCHE_EPAULE;
     ff6:	2a e0       	ldi	r18, 0x0A	; 10
     ff8:	d2 2e       	mov	r13, r18
     ffa:	d0 92 22 01 	sts	0x0122, r13
	MesPattes[ AVANT_GAUCHE ].epaule.index = CONF_SERVO_PATTE_AVANT_GAUCHE_EPAULE_INDEX;
     ffe:	82 e0       	ldi	r24, 0x02	; 2
    1000:	80 93 23 01 	sts	0x0123, r24
	MesPattes[ AVANT_GAUCHE ].epaule.angle = NEUTRE_EPAULE_AVANT_GAUCHE;
    1004:	1a e5       	ldi	r17, 0x5A	; 90
    1006:	10 93 24 01 	sts	0x0124, r17
	DrvAddServo( MesPattes[ AVANT_GAUCHE ].epaule.pin, MesPattes[ AVANT_GAUCHE ].epaule.angle );
    100a:	8a e0       	ldi	r24, 0x0A	; 10
    100c:	6a e5       	ldi	r22, 0x5A	; 90
    100e:	70 e0       	ldi	r23, 0x00	; 0
    1010:	0e 94 bd 0d 	call	0x1b7a	; 0x1b7a <DrvAddServo>
		
	MesPattes[ AVANT_GAUCHE ].coude.pin = CONF_SERVO_PATTE_AVANT_GAUCHE_COUDE;
    1014:	9b e0       	ldi	r25, 0x0B	; 11
    1016:	e9 2e       	mov	r14, r25
    1018:	e0 92 26 01 	sts	0x0126, r14
	MesPattes[ AVANT_GAUCHE ].coude.index = CONF_SERVO_PATTE_AVANT_GAUCHE_COUDE_INDEX;
    101c:	83 e0       	ldi	r24, 0x03	; 3
    101e:	80 93 27 01 	sts	0x0127, r24
	MesPattes[ AVANT_GAUCHE ].coude.angle = NEUTRE_COUDE_AVANT_GAUCHE;
    1022:	10 93 28 01 	sts	0x0128, r17
	DrvAddServo( MesPattes[ AVANT_GAUCHE ].coude.pin ,MesPattes[ AVANT_GAUCHE ].coude.angle );
    1026:	8b e0       	ldi	r24, 0x0B	; 11
    1028:	6a e5       	ldi	r22, 0x5A	; 90
    102a:	70 e0       	ldi	r23, 0x00	; 0
    102c:	0e 94 bd 0d 	call	0x1b7a	; 0x1b7a <DrvAddServo>
					
	//milieu gauche
	MesPattes[ MILIEU_GAUCHE ].epaule.pin = CONF_SERVO_PATTE_MILIEU_GAUCHE_EPAULE;
    1030:	0d e0       	ldi	r16, 0x0D	; 13
    1032:	00 93 2a 01 	sts	0x012A, r16
	MesPattes[ MILIEU_GAUCHE ].epaule.index = CONF_SERVO_PATTE_MILIEU_GAUCHE_EPAULE_INDEX;
    1036:	84 e0       	ldi	r24, 0x04	; 4
    1038:	80 93 2b 01 	sts	0x012B, r24
	MesPattes[ MILIEU_GAUCHE ].epaule.angle = NEUTRE_EPAULE_MILIEU_GAUCHE;
    103c:	10 93 2c 01 	sts	0x012C, r17
	DrvAddServo( MesPattes[ MILIEU_GAUCHE ].epaule.pin ,MesPattes[ MILIEU_GAUCHE ].epaule.angle );
    1040:	8d e0       	ldi	r24, 0x0D	; 13
    1042:	6a e5       	ldi	r22, 0x5A	; 90
    1044:	70 e0       	ldi	r23, 0x00	; 0
    1046:	0e 94 bd 0d 	call	0x1b7a	; 0x1b7a <DrvAddServo>
		
	MesPattes[ MILIEU_GAUCHE ].coude.pin = CONF_SERVO_PATTE_MILIEU_GAUCHE_COUDE;
    104a:	8c e0       	ldi	r24, 0x0C	; 12
    104c:	f8 2e       	mov	r15, r24
    104e:	f0 92 2e 01 	sts	0x012E, r15
	MesPattes[ MILIEU_GAUCHE ].coude.index = CONF_SERVO_PATTE_MILIEU_GAUCHE_COUDE_INDEX;
    1052:	85 e0       	ldi	r24, 0x05	; 5
    1054:	80 93 2f 01 	sts	0x012F, r24
	MesPattes[ MILIEU_GAUCHE ].coude.angle = NEUTRE_COUDE_MILIEU_GAUCHE;
    1058:	10 93 30 01 	sts	0x0130, r17
	DrvAddServo( MesPattes[ MILIEU_GAUCHE ].coude.pin ,MesPattes[ MILIEU_GAUCHE ].coude.angle );
    105c:	8c e0       	ldi	r24, 0x0C	; 12
    105e:	6a e5       	ldi	r22, 0x5A	; 90
    1060:	70 e0       	ldi	r23, 0x00	; 0
    1062:	0e 94 bd 0d 	call	0x1b7a	; 0x1b7a <DrvAddServo>
	
	//arriere gauche
	MesPattes[ ARRIERE_GAUCHE ].epaule.pin = CONF_SERVO_PATTE_ARRIERE_GAUCHE_EPAULE;
    1066:	8f e0       	ldi	r24, 0x0F	; 15
    1068:	80 93 32 01 	sts	0x0132, r24
	MesPattes[ ARRIERE_GAUCHE ].epaule.index = CONF_SERVO_PATTE_ARRIERE_GAUCHE_EPAULE_INDEX;
    106c:	86 e0       	ldi	r24, 0x06	; 6
    106e:	80 93 33 01 	sts	0x0133, r24
	MesPattes[ ARRIERE_GAUCHE ].epaule.angle = NEUTRE_EPAULE_MILIEU_GAUCHE;
    1072:	10 93 34 01 	sts	0x0134, r17
	DrvAddServo( MesPattes[ ARRIERE_GAUCHE ].epaule.pin ,MesPattes[ ARRIERE_GAUCHE ].epaule.angle );
    1076:	8f e0       	ldi	r24, 0x0F	; 15
    1078:	6a e5       	ldi	r22, 0x5A	; 90
    107a:	70 e0       	ldi	r23, 0x00	; 0
    107c:	0e 94 bd 0d 	call	0x1b7a	; 0x1b7a <DrvAddServo>
		
	MesPattes[ ARRIERE_GAUCHE ].coude.pin = CONF_SERVO_PATTE_ARRIERE_GAUCHE_COUDE;
    1080:	8e e0       	ldi	r24, 0x0E	; 14
    1082:	80 93 36 01 	sts	0x0136, r24
	MesPattes[ ARRIERE_GAUCHE ].coude.index = CONF_SERVO_PATTE_ARRIERE_GAUCHE_COUDE_INDEX;
    1086:	87 e0       	ldi	r24, 0x07	; 7
    1088:	80 93 37 01 	sts	0x0137, r24
	MesPattes[ ARRIERE_GAUCHE ].coude.angle = NEUTRE_COUDE_ARRIERE_GAUCHE;
    108c:	10 93 38 01 	sts	0x0138, r17
	DrvAddServo( MesPattes[ ARRIERE_GAUCHE ].coude.pin ,MesPattes[ ARRIERE_GAUCHE ].coude.angle);
    1090:	8e e0       	ldi	r24, 0x0E	; 14
    1092:	6a e5       	ldi	r22, 0x5A	; 90
    1094:	70 e0       	ldi	r23, 0x00	; 0
    1096:	0e 94 bd 0d 	call	0x1b7a	; 0x1b7a <DrvAddServo>
					
	//avant droite
	MesPattes[ AVANT_DROITE ].epaule.pin = CONF_SERVO_PATTE_AVANT_DROITE_EPAULE;
    109a:	86 e1       	ldi	r24, 0x16	; 22
    109c:	80 93 3a 01 	sts	0x013A, r24
	MesPattes[ AVANT_DROITE ].epaule.index = CONF_SERVO_PATTE_AVANT_DROITE_EPAULE_INDEX;
    10a0:	88 e0       	ldi	r24, 0x08	; 8
    10a2:	80 93 3b 01 	sts	0x013B, r24
	MesPattes[ AVANT_DROITE ].epaule.angle = NEUTRE_EPAULE_AVANT_DROITE;
    10a6:	10 93 3c 01 	sts	0x013C, r17
	DrvAddServo( MesPattes[ AVANT_DROITE ].epaule.pin ,MesPattes[ AVANT_DROITE ].epaule.angle);
    10aa:	86 e1       	ldi	r24, 0x16	; 22
    10ac:	6a e5       	ldi	r22, 0x5A	; 90
    10ae:	70 e0       	ldi	r23, 0x00	; 0
    10b0:	0e 94 bd 0d 	call	0x1b7a	; 0x1b7a <DrvAddServo>
		
	MesPattes[ AVANT_DROITE ].coude.pin = CONF_SERVO_PATTE_AVANT_DROITE_COUDE;
    10b4:	87 e1       	ldi	r24, 0x17	; 23
    10b6:	80 93 3e 01 	sts	0x013E, r24
	MesPattes[ AVANT_DROITE ].coude.index = CONF_SERVO_PATTE_AVANT_DROITE_COUDE_INDEX;
    10ba:	89 e0       	ldi	r24, 0x09	; 9
    10bc:	80 93 3f 01 	sts	0x013F, r24
	MesPattes[ AVANT_DROITE ].coude.angle = NEUTRE_COUDE_AVANT_DROITE;
    10c0:	10 93 40 01 	sts	0x0140, r17
	DrvAddServo( MesPattes[ AVANT_DROITE ].coude.pin ,MesPattes[ AVANT_DROITE ].coude.angle );
    10c4:	87 e1       	ldi	r24, 0x17	; 23
    10c6:	6a e5       	ldi	r22, 0x5A	; 90
    10c8:	70 e0       	ldi	r23, 0x00	; 0
    10ca:	0e 94 bd 0d 	call	0x1b7a	; 0x1b7a <DrvAddServo>
					
	//milieu droite
	MesPattes[ MILIEU_DROITE ].epaule.pin = CONF_SERVO_PATTE_MILIEU_DROITE_EPAULE;
    10ce:	8e e1       	ldi	r24, 0x1E	; 30
    10d0:	80 93 42 01 	sts	0x0142, r24
	MesPattes[ MILIEU_DROITE ].epaule.index = CONF_SERVO_PATTE_MILIEU_DROITE_EPAULE_INDEX;
    10d4:	d0 92 43 01 	sts	0x0143, r13
	MesPattes[ MILIEU_DROITE ].epaule.angle = NEUTRE_EPAULE_MILIEU_DROITE;
    10d8:	10 93 44 01 	sts	0x0144, r17
	DrvAddServo( MesPattes[ MILIEU_DROITE ].epaule.pin ,MesPattes[ MILIEU_DROITE ].epaule.angle );
    10dc:	6a e5       	ldi	r22, 0x5A	; 90
    10de:	70 e0       	ldi	r23, 0x00	; 0
    10e0:	0e 94 bd 0d 	call	0x1b7a	; 0x1b7a <DrvAddServo>
		
	MesPattes[ MILIEU_DROITE ].coude.pin = CONF_SERVO_PATTE_MILIEU_DROITE_COUDE;
    10e4:	8f e1       	ldi	r24, 0x1F	; 31
    10e6:	80 93 46 01 	sts	0x0146, r24
	MesPattes[ MILIEU_DROITE ].coude.index = CONF_SERVO_PATTE_MILIEU_DROITE_COUDE_INDEX;
    10ea:	e0 92 47 01 	sts	0x0147, r14
	MesPattes[ MILIEU_DROITE ].coude.angle = NEUTRE_COUDE_MILIEU_DROITE;
    10ee:	10 93 48 01 	sts	0x0148, r17
	DrvAddServo( MesPattes[ MILIEU_DROITE ].coude.pin ,MesPattes[ MILIEU_DROITE ].coude.angle );
    10f2:	6a e5       	ldi	r22, 0x5A	; 90
    10f4:	70 e0       	ldi	r23, 0x00	; 0
    10f6:	0e 94 bd 0d 	call	0x1b7a	; 0x1b7a <DrvAddServo>
					
	//arriere droite
	MesPattes[ ARRIERE_DROITE ].epaule.pin = CONF_SERVO_PATTE_ARRIERE_DROITE_EPAULE;
    10fa:	8c e1       	ldi	r24, 0x1C	; 28
    10fc:	80 93 4a 01 	sts	0x014A, r24
	MesPattes[ ARRIERE_DROITE ].epaule.index = CONF_SERVO_PATTE_ARRIERE_DROITE_EPAULE_INDEX;
    1100:	f0 92 4b 01 	sts	0x014B, r15
	MesPattes[ ARRIERE_DROITE ].epaule.angle = NEUTRE_EPAULE_MILIEU_DROITE;
    1104:	10 93 4c 01 	sts	0x014C, r17
	DrvAddServo( MesPattes[ ARRIERE_DROITE ].epaule.pin ,MesPattes[ ARRIERE_DROITE ].epaule.angle );
    1108:	6a e5       	ldi	r22, 0x5A	; 90
    110a:	70 e0       	ldi	r23, 0x00	; 0
    110c:	0e 94 bd 0d 	call	0x1b7a	; 0x1b7a <DrvAddServo>
		
	MesPattes[ ARRIERE_DROITE ].coude.pin = CONF_SERVO_PATTE_ARRIERE_DROITE_COUDE;
    1110:	8d e1       	ldi	r24, 0x1D	; 29
    1112:	80 93 4e 01 	sts	0x014E, r24
	MesPattes[ ARRIERE_DROITE ].coude.index = CONF_SERVO_PATTE_ARRIERE_DROITE_COUDE_INDEX;
    1116:	00 93 4f 01 	sts	0x014F, r16
	MesPattes[ ARRIERE_DROITE ].coude.angle = NEUTRE_COUDE_ARRIERE_DROITE;
    111a:	10 93 50 01 	sts	0x0150, r17
	DrvAddServo( MesPattes[ ARRIERE_DROITE ].coude.pin ,MesPattes[ ARRIERE_DROITE ].coude.angle );
    111e:	6a e5       	ldi	r22, 0x5A	; 90
    1120:	70 e0       	ldi	r23, 0x00	; 0
    1122:	0e 94 bd 0d 	call	0x1b7a	; 0x1b7a <DrvAddServo>
		
}
    1126:	1f 91       	pop	r17
    1128:	0f 91       	pop	r16
    112a:	ff 90       	pop	r15
    112c:	ef 90       	pop	r14
    112e:	df 90       	pop	r13
    1130:	08 95       	ret

00001132 <CtrlPatteMove>:

//on bouge une patte
Boolean CtrlPatteMove( Int8U index, Int8U angle_epaule, Int8U angle_coude, EServoVitesse vitesse )
{
    1132:	1f 93       	push	r17
    1134:	cf 93       	push	r28
    1136:	df 93       	push	r29
	Int8U ret = 0x00;
	MesPattes[ index ].epaule.angle = angle_epaule;
    1138:	c8 2f       	mov	r28, r24
    113a:	d0 e0       	ldi	r29, 0x00	; 0
    113c:	cc 0f       	add	r28, r28
    113e:	dd 1f       	adc	r29, r29
    1140:	cc 0f       	add	r28, r28
    1142:	dd 1f       	adc	r29, r29
    1144:	cc 0f       	add	r28, r28
    1146:	dd 1f       	adc	r29, r29
    1148:	ce 5d       	subi	r28, 0xDE	; 222
    114a:	de 4f       	sbci	r29, 0xFE	; 254
    114c:	6a 83       	std	Y+2, r22	; 0x02
	MesPattes[ index ].coude.angle = angle_coude;
    114e:	4e 83       	std	Y+6, r20	; 0x06
	
	if ( DrvServoMoveToPosition( MesPattes[ index ].epaule.index, MesPattes[ index ].epaule.angle, vitesse ) == TRUE )	
    1150:	89 81       	ldd	r24, Y+1	; 0x01
    1152:	70 e0       	ldi	r23, 0x00	; 0
    1154:	42 2f       	mov	r20, r18
    1156:	0e 94 cb 0e 	call	0x1d96	; 0x1d96 <DrvServoMoveToPosition>
    115a:	18 2f       	mov	r17, r24
	{
		//si on a atteind la position
		ret = (1U << 0U);
	}
	//on deplace tjrs le coude a sa vitesse max
	if ( DrvServoMoveToPosition( MesPattes[ index ].coude.index, MesPattes[ index ].coude.angle, E_SERVO_VITESSE_5 ) == TRUE )	
    115c:	6e 81       	ldd	r22, Y+6	; 0x06
    115e:	8d 81       	ldd	r24, Y+5	; 0x05
    1160:	70 e0       	ldi	r23, 0x00	; 0
    1162:	40 e0       	ldi	r20, 0x00	; 0
    1164:	0e 94 cb 0e 	call	0x1d96	; 0x1d96 <DrvServoMoveToPosition>
    1168:	81 30       	cpi	r24, 0x01	; 1
    116a:	29 f0       	breq	.+10     	; 0x1176 <CtrlPatteMove+0x44>
	{
		return TRUE;
	}
	else 
	{
		return FALSE;
    116c:	80 e0       	ldi	r24, 0x00	; 0
	}
}
    116e:	df 91       	pop	r29
    1170:	cf 91       	pop	r28
    1172:	1f 91       	pop	r17
    1174:	08 95       	ret
}

//on bouge une patte
Boolean CtrlPatteMove( Int8U index, Int8U angle_epaule, Int8U angle_coude, EServoVitesse vitesse )
{
	Int8U ret = 0x00;
    1176:	11 30       	cpi	r17, 0x01	; 1
    1178:	09 f0       	breq	.+2      	; 0x117c <CtrlPatteMove+0x4a>
    117a:	80 e0       	ldi	r24, 0x00	; 0
	}
	//on deplace tjrs le coude a sa vitesse max
	if ( DrvServoMoveToPosition( MesPattes[ index ].coude.index, MesPattes[ index ].coude.angle, E_SERVO_VITESSE_5 ) == TRUE )	
	{
		//si on a atteind la position
		ret |= (1U << 1U);
    117c:	98 2f       	mov	r25, r24
    117e:	92 60       	ori	r25, 0x02	; 2
	DrvAddServo( MesPattes[ ARRIERE_DROITE ].coude.pin ,MesPattes[ ARRIERE_DROITE ].coude.angle );
		
}

//on bouge une patte
Boolean CtrlPatteMove( Int8U index, Int8U angle_epaule, Int8U angle_coude, EServoVitesse vitesse )
    1180:	81 e0       	ldi	r24, 0x01	; 1
    1182:	93 30       	cpi	r25, 0x03	; 3
    1184:	99 f7       	brne	.-26     	; 0x116c <CtrlPatteMove+0x3a>
    1186:	f3 cf       	rjmp	.-26     	; 0x116e <CtrlPatteMove+0x3c>

00001188 <CtrlPatteDirectMove>:
	}
}

//on bouge une patte direct sans attendre quel finisse son mouvement
Boolean CtrlPatteDirectMove( Int8U index, Int8U angle_epaule, Int8U angle_coude, EServoVitesse vitesse )
{
    1188:	1f 93       	push	r17
    118a:	cf 93       	push	r28
    118c:	df 93       	push	r29
	Int8U ret = 0x00;
	MesPattes[ index ].epaule.angle = angle_epaule;
    118e:	c8 2f       	mov	r28, r24
    1190:	d0 e0       	ldi	r29, 0x00	; 0
    1192:	cc 0f       	add	r28, r28
    1194:	dd 1f       	adc	r29, r29
    1196:	cc 0f       	add	r28, r28
    1198:	dd 1f       	adc	r29, r29
    119a:	cc 0f       	add	r28, r28
    119c:	dd 1f       	adc	r29, r29
    119e:	ce 5d       	subi	r28, 0xDE	; 222
    11a0:	de 4f       	sbci	r29, 0xFE	; 254
    11a2:	6a 83       	std	Y+2, r22	; 0x02
	MesPattes[ index ].coude.angle = angle_coude;
    11a4:	4e 83       	std	Y+6, r20	; 0x06
	
	if ( DrvServoDirectMoveToPosition( MesPattes[ index ].epaule.index, MesPattes[ index ].epaule.angle, vitesse ) == TRUE )	
    11a6:	89 81       	ldd	r24, Y+1	; 0x01
    11a8:	70 e0       	ldi	r23, 0x00	; 0
    11aa:	42 2f       	mov	r20, r18
    11ac:	0e 94 08 10 	call	0x2010	; 0x2010 <DrvServoDirectMoveToPosition>
    11b0:	18 2f       	mov	r17, r24
	{
		//si on a atteind la position
		ret = (1U << 0U);
	}
	//on deplace tjrs le coude a sa vitesse max
	if ( DrvServoDirectMoveToPosition( MesPattes[ index ].coude.index, MesPattes[ index ].coude.angle, E_SERVO_VITESSE_5 ) == TRUE )	
    11b2:	6e 81       	ldd	r22, Y+6	; 0x06
    11b4:	8d 81       	ldd	r24, Y+5	; 0x05
    11b6:	70 e0       	ldi	r23, 0x00	; 0
    11b8:	40 e0       	ldi	r20, 0x00	; 0
    11ba:	0e 94 08 10 	call	0x2010	; 0x2010 <DrvServoDirectMoveToPosition>
    11be:	81 30       	cpi	r24, 0x01	; 1
    11c0:	29 f0       	breq	.+10     	; 0x11cc <CtrlPatteDirectMove+0x44>
	{
		return TRUE;
	}
	else 
	{
		return FALSE;
    11c2:	80 e0       	ldi	r24, 0x00	; 0
	}
}
    11c4:	df 91       	pop	r29
    11c6:	cf 91       	pop	r28
    11c8:	1f 91       	pop	r17
    11ca:	08 95       	ret
}

//on bouge une patte direct sans attendre quel finisse son mouvement
Boolean CtrlPatteDirectMove( Int8U index, Int8U angle_epaule, Int8U angle_coude, EServoVitesse vitesse )
{
	Int8U ret = 0x00;
    11cc:	11 30       	cpi	r17, 0x01	; 1
    11ce:	09 f0       	breq	.+2      	; 0x11d2 <CtrlPatteDirectMove+0x4a>
    11d0:	80 e0       	ldi	r24, 0x00	; 0
	}
	//on deplace tjrs le coude a sa vitesse max
	if ( DrvServoDirectMoveToPosition( MesPattes[ index ].coude.index, MesPattes[ index ].coude.angle, E_SERVO_VITESSE_5 ) == TRUE )	
	{
		//si on a atteind la position
		ret |= (1U << 1U);
    11d2:	98 2f       	mov	r25, r24
    11d4:	92 60       	ori	r25, 0x02	; 2
		return FALSE;
	}
}

//on bouge une patte direct sans attendre quel finisse son mouvement
Boolean CtrlPatteDirectMove( Int8U index, Int8U angle_epaule, Int8U angle_coude, EServoVitesse vitesse )
    11d6:	81 e0       	ldi	r24, 0x01	; 1
    11d8:	93 30       	cpi	r25, 0x03	; 3
    11da:	99 f7       	brne	.-26     	; 0x11c2 <CtrlPatteDirectMove+0x3a>
    11dc:	f3 cf       	rjmp	.-26     	; 0x11c4 <CtrlPatteDirectMove+0x3c>

000011de <CtrlTete>:


/////////////////////////////////////////PUBLIC FUNCTIONS/////////////////////////////////////////
//init
void CtrlTete( void ) 
{ 
    11de:	cf 93       	push	r28
    11e0:	df 93       	push	r29
	//on fixe les variables
	MaTete.is_scaning = FALSE;
    11e2:	10 92 55 01 	sts	0x0155, r1
	index_scan_position = 0U;
    11e6:	10 92 52 01 	sts	0x0152, r1
		
	//on ajoute les 2 servo a la tete
	MaTete.angle_h = NEUTRE_TETE_HORIZONTAL;
    11ea:	c3 e5       	ldi	r28, 0x53	; 83
    11ec:	d1 e0       	ldi	r29, 0x01	; 1
    11ee:	8a e5       	ldi	r24, 0x5A	; 90
    11f0:	88 83       	st	Y, r24
	MaTete.angle_v = NEUTRE_TETE_VERTICAL;
    11f2:	8c e8       	ldi	r24, 0x8C	; 140
    11f4:	89 83       	std	Y+1, r24	; 0x01
	DrvAddServo( CONF_SERVO_TETE_H , MaTete.angle_h );
    11f6:	88 e0       	ldi	r24, 0x08	; 8
    11f8:	6a e5       	ldi	r22, 0x5A	; 90
    11fa:	70 e0       	ldi	r23, 0x00	; 0
    11fc:	0e 94 bd 0d 	call	0x1b7a	; 0x1b7a <DrvAddServo>
	DrvAddServo( CONF_SERVO_TETE_V , MaTete.angle_v );
    1200:	69 81       	ldd	r22, Y+1	; 0x01
    1202:	89 e0       	ldi	r24, 0x09	; 9
    1204:	70 e0       	ldi	r23, 0x00	; 0
    1206:	0e 94 bd 0d 	call	0x1b7a	; 0x1b7a <DrvAddServo>
}
    120a:	df 91       	pop	r29
    120c:	cf 91       	pop	r28
    120e:	08 95       	ret

00001210 <CtrlTeteDispatcher>:

//dispatacher d'event
void CtrlTeteDispatcher( Event_t event )  
{
	if ( DrvEventTestEvent(event ,CONF_EVENT_TIMER_1S ))
    1210:	62 e0       	ldi	r22, 0x02	; 2
    1212:	0e 94 4c 0a 	call	0x1498	; 0x1498 <DrvEventTestEvent>
    1216:	88 23       	and	r24, r24
    1218:	21 f0       	breq	.+8      	; 0x1222 <CtrlTeteDispatcher+0x12>
	{	
		//si le scan est activé
		if( MaTete.is_scaning == TRUE )	
    121a:	80 91 55 01 	lds	r24, 0x0155
    121e:	81 30       	cpi	r24, 0x01	; 1
    1220:	09 f0       	breq	.+2      	; 0x1224 <CtrlTeteDispatcher+0x14>
    1222:	08 95       	ret
		{
			//on fait un balayage horizontal de la tete
			if (DrvServoMoveToPosition( CONF_SERVO_TETE_H_INDEX, scan_position[index_scan_position], E_SERVO_VITESSE_5) == TRUE)
    1224:	e0 91 52 01 	lds	r30, 0x0152
    1228:	f0 e0       	ldi	r31, 0x00	; 0
    122a:	ef 5f       	subi	r30, 0xFF	; 255
    122c:	fe 4f       	sbci	r31, 0xFE	; 254
    122e:	60 81       	ld	r22, Z
    1230:	80 e0       	ldi	r24, 0x00	; 0
    1232:	70 e0       	ldi	r23, 0x00	; 0
    1234:	40 e0       	ldi	r20, 0x00	; 0
    1236:	0e 94 cb 0e 	call	0x1d96	; 0x1d96 <DrvServoMoveToPosition>
    123a:	81 30       	cpi	r24, 0x01	; 1
    123c:	49 f0       	breq	.+18     	; 0x1250 <CtrlTeteDispatcher+0x40>
    123e:	80 91 52 01 	lds	r24, 0x0152
			{
				index_scan_position++;
			}
			if(index_scan_position == NB_SCAN_POSTION)
    1242:	89 30       	cpi	r24, 0x09	; 9
    1244:	71 f7       	brne	.-36     	; 0x1222 <CtrlTeteDispatcher+0x12>
			{
				//on a fini de scanner
				index_scan_position = 0U;
    1246:	10 92 52 01 	sts	0x0152, r1
				MaTete.is_scaning = FALSE;
    124a:	10 92 55 01 	sts	0x0155, r1
    124e:	08 95       	ret
		if( MaTete.is_scaning == TRUE )	
		{
			//on fait un balayage horizontal de la tete
			if (DrvServoMoveToPosition( CONF_SERVO_TETE_H_INDEX, scan_position[index_scan_position], E_SERVO_VITESSE_5) == TRUE)
			{
				index_scan_position++;
    1250:	80 91 52 01 	lds	r24, 0x0152
    1254:	8f 5f       	subi	r24, 0xFF	; 255
    1256:	80 93 52 01 	sts	0x0152, r24
    125a:	f3 cf       	rjmp	.-26     	; 0x1242 <CtrlTeteDispatcher+0x32>

0000125c <CtrlTeteStartScan>:
}	

//on start le scan de la tete
void CtrlTeteStartScan( void )
{
	index_scan_position = 0U;	
    125c:	10 92 52 01 	sts	0x0152, r1
	MaTete.is_scaning = TRUE;
    1260:	81 e0       	ldi	r24, 0x01	; 1
    1262:	80 93 55 01 	sts	0x0155, r24
}
    1266:	08 95       	ret

00001268 <CtrlTeteStopScan>:

//on stop le scan de la tete
void CtrlTeteStopScan( void )
{
	MaTete.is_scaning = FALSE;
    1268:	10 92 55 01 	sts	0x0155, r1
}	
    126c:	08 95       	ret

0000126e <CtrlTeteGetStruct>:

//on recupere la structure
head_member_t* CtrlTeteGetStruct( void )
{
	return &MaTete;	
}
    126e:	83 e5       	ldi	r24, 0x53	; 83
    1270:	91 e0       	ldi	r25, 0x01	; 1
    1272:	08 95       	ret

00001274 <CtrlTeteMove>:

//on bouge la tete
void CtrlTeteMove( Int8U angle_tete_hor, Int8U angle_tete_ver, Int8U vitesse )
{
    1274:	1f 93       	push	r17
    1276:	98 2f       	mov	r25, r24
    1278:	14 2f       	mov	r17, r20
	MaTete.angle_h = angle_tete_hor;
    127a:	80 93 53 01 	sts	0x0153, r24
	MaTete.angle_v = angle_tete_ver;
    127e:	60 93 54 01 	sts	0x0154, r22
	DrvServoMoveToPosition( CONF_SERVO_TETE_H_INDEX, MaTete.angle_h, vitesse);		
    1282:	80 e0       	ldi	r24, 0x00	; 0
    1284:	69 2f       	mov	r22, r25
    1286:	70 e0       	ldi	r23, 0x00	; 0
    1288:	0e 94 cb 0e 	call	0x1d96	; 0x1d96 <DrvServoMoveToPosition>
	DrvServoMoveToPosition( CONF_SERVO_TETE_V_INDEX, MaTete.angle_v, vitesse);
    128c:	60 91 54 01 	lds	r22, 0x0154
    1290:	81 e0       	ldi	r24, 0x01	; 1
    1292:	70 e0       	ldi	r23, 0x00	; 0
    1294:	41 2f       	mov	r20, r17
    1296:	0e 94 cb 0e 	call	0x1d96	; 0x1d96 <DrvServoMoveToPosition>
}
    129a:	1f 91       	pop	r17
    129c:	08 95       	ret

0000129e <CtrlUartProtocole>:

/////////////////////////////////////////PUBLIC FUNCTIONS/////////////////////////////////////////
//init
void CtrlUartProtocole( void )
{
}
    129e:	08 95       	ret

000012a0 <CtrlUartProtocoleDispatcher>:

//dispatcher
void CtrlUartProtocoleDispatcher( Event_t event )
{	
    12a0:	cf 93       	push	r28
    12a2:	df 93       	push	r29
    12a4:	ec 01       	movw	r28, r24
	//si on a recu un message provenant de la tete
	if ( DrvEventTestEvent(event ,CONF_EVENT_HEAD_MSG_RCV ))
    12a6:	66 e0       	ldi	r22, 0x06	; 6
    12a8:	0e 94 4c 0a 	call	0x1498	; 0x1498 <DrvEventTestEvent>
    12ac:	88 23       	and	r24, r24
    12ae:	09 f0       	breq	.+2      	; 0x12b2 <CtrlUartProtocoleDispatcher+0x12>
    12b0:	41 c0       	rjmp	.+130    	; 0x1334 <CtrlUartProtocoleDispatcher+0x94>
		//on eteinds la led apres le traitement
		DrvLedOff(CONF_LED_RX_HEAD);
	}	
	
	//si on a recu un message provenant du wifi
	if ( DrvEventTestEvent(event ,CONF_EVENT_DIGI_MSG_RCV ))
    12b2:	ce 01       	movw	r24, r28
    12b4:	65 e0       	ldi	r22, 0x05	; 5
    12b6:	0e 94 4c 0a 	call	0x1498	; 0x1498 <DrvEventTestEvent>
    12ba:	88 23       	and	r24, r24
    12bc:	19 f4       	brne	.+6      	; 0x12c4 <CtrlUartProtocoleDispatcher+0x24>
			}			
		}
		//on eteinds la led apres le traitement
		DrvLedOff(CONF_LED_RX_DIGI);			
	}	
}	
    12be:	df 91       	pop	r29
    12c0:	cf 91       	pop	r28
    12c2:	08 95       	ret
	
	//si on a recu un message provenant du wifi
	if ( DrvEventTestEvent(event ,CONF_EVENT_DIGI_MSG_RCV ))
	{
		//on allume la led pendant le traitement
		DrvLedOn(CONF_LED_RX_DIGI);
    12c4:	83 e0       	ldi	r24, 0x03	; 3
    12c6:	0e 94 48 0d 	call	0x1a90	; 0x1a90 <DrvLedOn>
		//on lit le message provenant du wifi
		DrvUart1ReadMessage( i_message_from_digi, &i_message_len_from_digi );
    12ca:	85 ef       	ldi	r24, 0xF5	; 245
    12cc:	91 e0       	ldi	r25, 0x01	; 1
    12ce:	66 e5       	ldi	r22, 0x56	; 86
    12d0:	71 e0       	ldi	r23, 0x01	; 1
    12d2:	0e 94 81 15 	call	0x2b02	; 0x2b02 <DrvUart1ReadMessage>
		//on test si on prend des infos
		if( i_message_len_from_digi > 0U )
    12d6:	60 91 56 01 	lds	r22, 0x0156
    12da:	66 23       	and	r22, r22
    12dc:	29 f1       	breq	.+74     	; 0x1328 <CtrlUartProtocoleDispatcher+0x88>
		{
			//si le message nous concerne
			//---------------------------
			if( i_message_from_digi[ 1U ] == 1U )
    12de:	80 91 f6 01 	lds	r24, 0x01F6
    12e2:	81 30       	cpi	r24, 0x01	; 1
    12e4:	09 f0       	breq	.+2      	; 0x12e8 <CtrlUartProtocoleDispatcher+0x48>
    12e6:	41 c0       	rjmp	.+130    	; 0x136a <CtrlUartProtocoleDispatcher+0xca>
			{
				//on dispatch selon les controls
				
				//servos				 
				if( i_message_from_digi[ 2U ] == 0U )
    12e8:	80 91 f7 01 	lds	r24, 0x01F7
    12ec:	88 23       	and	r24, r24
    12ee:	09 f4       	brne	.+2      	; 0x12f2 <CtrlUartProtocoleDispatcher+0x52>
    12f0:	53 c0       	rjmp	.+166    	; 0x1398 <CtrlUartProtocoleDispatcher+0xf8>
				{
					CtrlUartProtocoleBodyServo();		
				}
							
				//controle des fonctions de la tete
				else if( i_message_from_digi[ 2U ] == 1U )
    12f2:	81 30       	cpi	r24, 0x01	; 1
    12f4:	09 f4       	brne	.+2      	; 0x12f8 <CtrlUartProtocoleDispatcher+0x58>
    12f6:	49 c0       	rjmp	.+146    	; 0x138a <CtrlUartProtocoleDispatcher+0xea>
				{
					CtrlUartProtocoleBodyHead();
				}
				
				//marche			 
				else if( i_message_from_digi[ 2U ] == 2U )
    12f8:	82 30       	cpi	r24, 0x02	; 2
    12fa:	b1 f4       	brne	.+44     	; 0x1328 <CtrlUartProtocoleDispatcher+0x88>

static void CtrlUartProtocoleBodyMarche( void ) 
{
	EServoVitesse vit;
	//on cherche la vitesse
	if( i_message_from_digi[ 4U ] == 0U )
    12fc:	80 91 f9 01 	lds	r24, 0x01F9
    1300:	88 23       	and	r24, r24
    1302:	09 f4       	brne	.+2      	; 0x1306 <CtrlUartProtocoleDispatcher+0x66>
    1304:	7d c0       	rjmp	.+250    	; 0x1400 <CtrlUartProtocoleDispatcher+0x160>
	{
		vit = E_SERVO_VITESSE_0;
	}
	else if( i_message_from_digi[ 4U ] == 1U )
    1306:	81 30       	cpi	r24, 0x01	; 1
    1308:	09 f4       	brne	.+2      	; 0x130c <CtrlUartProtocoleDispatcher+0x6c>
    130a:	82 c0       	rjmp	.+260    	; 0x1410 <CtrlUartProtocoleDispatcher+0x170>
	{
		vit = E_SERVO_VITESSE_1;
	}
	else if( i_message_from_digi[ 4U ] == 2U )
    130c:	82 30       	cpi	r24, 0x02	; 2
    130e:	09 f4       	brne	.+2      	; 0x1312 <CtrlUartProtocoleDispatcher+0x72>
    1310:	83 c0       	rjmp	.+262    	; 0x1418 <CtrlUartProtocoleDispatcher+0x178>
	{
		vit = E_SERVO_VITESSE_2;
	}
	else if( i_message_from_digi[ 4U ] == 3U )
    1312:	83 30       	cpi	r24, 0x03	; 3
    1314:	09 f4       	brne	.+2      	; 0x1318 <CtrlUartProtocoleDispatcher+0x78>
    1316:	82 c0       	rjmp	.+260    	; 0x141c <CtrlUartProtocoleDispatcher+0x17c>
	{
		vit = E_SERVO_VITESSE_3;
	}
	else if( i_message_from_digi[ 4U ] == 4U )
    1318:	84 30       	cpi	r24, 0x04	; 4
    131a:	09 f4       	brne	.+2      	; 0x131e <CtrlUartProtocoleDispatcher+0x7e>
    131c:	81 c0       	rjmp	.+258    	; 0x1420 <CtrlUartProtocoleDispatcher+0x180>
	{
		vit = E_SERVO_VITESSE_4;
	}
	else 
	{
		vit = E_SERVO_VITESSE_5;
    131e:	60 e0       	ldi	r22, 0x00	; 0
	}
					
	//on cherche la marche a suivre
	CtrlMarcheMove(i_message_from_digi[ 3U ], vit);	
    1320:	80 91 f8 01 	lds	r24, 0x01F8
    1324:	0e 94 ef 07 	call	0xfde	; 0xfde <CtrlMarcheMove>
				//on l'envoie a la tete
				DrvUart0SendMessage( i_message_from_digi, i_message_len_from_digi );
			}			
		}
		//on eteinds la led apres le traitement
		DrvLedOff(CONF_LED_RX_DIGI);			
    1328:	83 e0       	ldi	r24, 0x03	; 3
    132a:	0e 94 62 0d 	call	0x1ac4	; 0x1ac4 <DrvLedOff>
	}	
}	
    132e:	df 91       	pop	r29
    1330:	cf 91       	pop	r28
    1332:	08 95       	ret
{	
	//si on a recu un message provenant de la tete
	if ( DrvEventTestEvent(event ,CONF_EVENT_HEAD_MSG_RCV ))
	{
		//on allume la led pendant le traitement
		DrvLedOn(CONF_LED_RX_HEAD);
    1334:	82 e0       	ldi	r24, 0x02	; 2
    1336:	0e 94 48 0d 	call	0x1a90	; 0x1a90 <DrvLedOn>
		//on lit le message
		DrvUart0ReadMessage( i_message_from_head, &i_message_len_from_head );
    133a:	87 e2       	ldi	r24, 0x27	; 39
    133c:	92 e0       	ldi	r25, 0x02	; 2
    133e:	67 e5       	ldi	r22, 0x57	; 87
    1340:	71 e0       	ldi	r23, 0x01	; 1
    1342:	0e 94 5a 15 	call	0x2ab4	; 0x2ab4 <DrvUart0ReadMessage>
		//on envoie direct le message sur le wifi
		DrvUart1SendMessage( i_message_from_head, i_message_len_from_head );
    1346:	87 e2       	ldi	r24, 0x27	; 39
    1348:	92 e0       	ldi	r25, 0x02	; 2
    134a:	60 91 57 01 	lds	r22, 0x0157
    134e:	0e 94 98 15 	call	0x2b30	; 0x2b30 <DrvUart1SendMessage>
		//on test si on prend des infos
		if( i_message_len_from_head > 0U )
    1352:	80 91 57 01 	lds	r24, 0x0157
    1356:	88 23       	and	r24, r24
    1358:	21 f0       	breq	.+8      	; 0x1362 <CtrlUartProtocoleDispatcher+0xc2>
		{
			//message ultrason
			//----------------
			if( i_message_from_head[ 2 ] == 0U )
    135a:	80 91 29 02 	lds	r24, 0x0229
    135e:	88 23       	and	r24, r24
    1360:	49 f0       	breq	.+18     	; 0x1374 <CtrlUartProtocoleDispatcher+0xd4>
			{
				
			}		
		}
		//on eteinds la led apres le traitement
		DrvLedOff(CONF_LED_RX_HEAD);
    1362:	82 e0       	ldi	r24, 0x02	; 2
    1364:	0e 94 62 0d 	call	0x1ac4	; 0x1ac4 <DrvLedOff>
    1368:	a4 cf       	rjmp	.-184    	; 0x12b2 <CtrlUartProtocoleDispatcher+0x12>
			//si le message nous concerne pas
			//-------------------------------
			else
			{
				//on l'envoie a la tete
				DrvUart0SendMessage( i_message_from_digi, i_message_len_from_digi );
    136a:	85 ef       	ldi	r24, 0xF5	; 245
    136c:	91 e0       	ldi	r25, 0x01	; 1
    136e:	0e 94 71 15 	call	0x2ae2	; 0x2ae2 <DrvUart0SendMessage>
    1372:	da cf       	rjmp	.-76     	; 0x1328 <CtrlUartProtocoleDispatcher+0x88>
	DrvUart0SendMessage( message, 5U );
}

static void CtrlUartProtocoleHeadUs( void ) 
{
	ultrason_mesure = (Int16U)((Int16U)(i_message_from_head[ 3U ] >> 8U )| i_message_from_head[ 4U ]);
    1374:	80 91 2b 02 	lds	r24, 0x022B
    1378:	80 93 58 01 	sts	0x0158, r24
    137c:	10 92 59 01 	sts	0x0159, r1
	//on lance l'event
	DrvEventAddEvent( CONF_EVENT_ALERT_US_PROX );
    1380:	87 e0       	ldi	r24, 0x07	; 7
    1382:	90 e0       	ldi	r25, 0x00	; 0
    1384:	0e 94 5b 0a 	call	0x14b6	; 0x14b6 <DrvEventAddEvent>
    1388:	ec cf       	rjmp	.-40     	; 0x1362 <CtrlUartProtocoleDispatcher+0xc2>
}

static void CtrlUartProtocoleBodyHead( void ) 
{
	//on lance un scan
	if( i_message_from_digi[ 3U ] == 0U )
    138a:	80 91 f8 01 	lds	r24, 0x01F8
    138e:	88 23       	and	r24, r24
    1390:	59 f6       	brne	.-106    	; 0x1328 <CtrlUartProtocoleDispatcher+0x88>
	{
		CtrlTeteStartScan();
    1392:	0e 94 2e 09 	call	0x125c	; 0x125c <CtrlTeteStartScan>
    1396:	c8 cf       	rjmp	.-112    	; 0x1328 <CtrlUartProtocoleDispatcher+0x88>
////////////////////////////////////////PRIVATE FUNCTIONS/////////////////////////////////////////
static void CtrlUartProtocoleBodyServo( void ) 
{
	EServoVitesse vit;
	//on cherche la vitesse
	if( i_message_from_digi[ 5U ] == 0U )
    1398:	80 91 fa 01 	lds	r24, 0x01FA
    139c:	88 23       	and	r24, r24
    139e:	71 f1       	breq	.+92     	; 0x13fc <CtrlUartProtocoleDispatcher+0x15c>
	{
		vit = E_SERVO_VITESSE_0;
	}
	else if( i_message_from_digi[ 5U ] == 1U )
    13a0:	81 30       	cpi	r24, 0x01	; 1
    13a2:	81 f1       	breq	.+96     	; 0x1404 <CtrlUartProtocoleDispatcher+0x164>
	{
		vit = E_SERVO_VITESSE_1;
	}
	else if( i_message_from_digi[ 5U ] == 2U )
    13a4:	82 30       	cpi	r24, 0x02	; 2
    13a6:	81 f1       	breq	.+96     	; 0x1408 <CtrlUartProtocoleDispatcher+0x168>
	{
		vit = E_SERVO_VITESSE_2;
	}
	else if( i_message_from_digi[ 5U ] == 3U )
    13a8:	83 30       	cpi	r24, 0x03	; 3
    13aa:	81 f1       	breq	.+96     	; 0x140c <CtrlUartProtocoleDispatcher+0x16c>
	{
		vit = E_SERVO_VITESSE_3;
	}
	else if( i_message_from_digi[ 5U ] == 4U )
    13ac:	84 30       	cpi	r24, 0x04	; 4
    13ae:	91 f1       	breq	.+100    	; 0x1414 <CtrlUartProtocoleDispatcher+0x174>
	{
		vit = E_SERVO_VITESSE_4;
	}
	else 
	{
		vit = E_SERVO_VITESSE_5;
    13b0:	40 e0       	ldi	r20, 0x00	; 0
	}
					
	//on cherche le servo
	if( i_message_from_digi[ 3U ] == 0U )
    13b2:	80 91 f8 01 	lds	r24, 0x01F8
    13b6:	88 23       	and	r24, r24
    13b8:	d9 f0       	breq	.+54     	; 0x13f0 <CtrlUartProtocoleDispatcher+0x150>
	{
		DrvServoMoveToPosition( CONF_SERVO_TETE_H_INDEX, i_message_from_digi[ 4U ], vit);	
	}
	else if( i_message_from_digi[ 3U ] == 1U )
    13ba:	81 30       	cpi	r24, 0x01	; 1
    13bc:	c9 f0       	breq	.+50     	; 0x13f0 <CtrlUartProtocoleDispatcher+0x150>
	{
		DrvServoMoveToPosition( CONF_SERVO_TETE_V_INDEX, i_message_from_digi[ 4U ], vit);	
	}
	else if( i_message_from_digi[ 3U ] == 2U )
    13be:	82 30       	cpi	r24, 0x02	; 2
    13c0:	b9 f0       	breq	.+46     	; 0x13f0 <CtrlUartProtocoleDispatcher+0x150>
	{
		DrvServoMoveToPosition( CONF_SERVO_PATTE_AVANT_GAUCHE_EPAULE_INDEX, i_message_from_digi[ 4U ], vit);	
	}
	else if( i_message_from_digi[ 3U ] == 3U )
    13c2:	83 30       	cpi	r24, 0x03	; 3
    13c4:	a9 f0       	breq	.+42     	; 0x13f0 <CtrlUartProtocoleDispatcher+0x150>
	{
		DrvServoMoveToPosition( CONF_SERVO_PATTE_AVANT_GAUCHE_COUDE_INDEX, i_message_from_digi[ 4U ], vit);	
	}
	else if( i_message_from_digi[ 3U ] == 4U )
    13c6:	84 30       	cpi	r24, 0x04	; 4
    13c8:	99 f0       	breq	.+38     	; 0x13f0 <CtrlUartProtocoleDispatcher+0x150>
	{
		DrvServoMoveToPosition( CONF_SERVO_PATTE_MILIEU_GAUCHE_EPAULE_INDEX, i_message_from_digi[ 4U ], vit);	
	}	
	else if( i_message_from_digi[ 3U ] == 5U )
    13ca:	85 30       	cpi	r24, 0x05	; 5
    13cc:	89 f0       	breq	.+34     	; 0x13f0 <CtrlUartProtocoleDispatcher+0x150>
	{
		DrvServoMoveToPosition( CONF_SERVO_PATTE_MILIEU_GAUCHE_COUDE_INDEX, i_message_from_digi[ 4U ], vit);	
	}
	else if( i_message_from_digi[ 3U ] == 6U )
    13ce:	86 30       	cpi	r24, 0x06	; 6
    13d0:	79 f0       	breq	.+30     	; 0x13f0 <CtrlUartProtocoleDispatcher+0x150>
	{
		DrvServoMoveToPosition( CONF_SERVO_PATTE_ARRIERE_GAUCHE_EPAULE_INDEX, i_message_from_digi[ 4U ], vit);	
	}	
	else if( i_message_from_digi[ 3U ] == 7U )
    13d2:	87 30       	cpi	r24, 0x07	; 7
    13d4:	69 f0       	breq	.+26     	; 0x13f0 <CtrlUartProtocoleDispatcher+0x150>
	{
		DrvServoMoveToPosition( CONF_SERVO_PATTE_ARRIERE_GAUCHE_COUDE_INDEX, i_message_from_digi[ 4U ], vit);	
	}
	else if( i_message_from_digi[ 3U ] == 8U )
    13d6:	88 30       	cpi	r24, 0x08	; 8
    13d8:	59 f0       	breq	.+22     	; 0x13f0 <CtrlUartProtocoleDispatcher+0x150>
	{
		DrvServoMoveToPosition( CONF_SERVO_PATTE_AVANT_DROITE_EPAULE_INDEX, i_message_from_digi[ 4U ], vit);	
	}
	else if( i_message_from_digi[ 3U ] == 9U )
    13da:	89 30       	cpi	r24, 0x09	; 9
    13dc:	49 f0       	breq	.+18     	; 0x13f0 <CtrlUartProtocoleDispatcher+0x150>
	{
		DrvServoMoveToPosition( CONF_SERVO_PATTE_AVANT_DROITE_COUDE_INDEX, i_message_from_digi[ 4U ], vit);	
	}
	else if( i_message_from_digi[ 3U ] == 10U )
    13de:	8a 30       	cpi	r24, 0x0A	; 10
    13e0:	39 f0       	breq	.+14     	; 0x13f0 <CtrlUartProtocoleDispatcher+0x150>
	{
		DrvServoMoveToPosition( CONF_SERVO_PATTE_MILIEU_DROITE_EPAULE_INDEX, i_message_from_digi[ 4U ], vit);	
	}	
	else if( i_message_from_digi[ 3U ] == 11U )
    13e2:	8b 30       	cpi	r24, 0x0B	; 11
    13e4:	29 f0       	breq	.+10     	; 0x13f0 <CtrlUartProtocoleDispatcher+0x150>
	{
		DrvServoMoveToPosition( CONF_SERVO_PATTE_MILIEU_DROITE_COUDE_INDEX, i_message_from_digi[ 4U ], vit);	
	}
	else if( i_message_from_digi[ 3U ] == 12U )
    13e6:	8c 30       	cpi	r24, 0x0C	; 12
    13e8:	19 f0       	breq	.+6      	; 0x13f0 <CtrlUartProtocoleDispatcher+0x150>
	{
		DrvServoMoveToPosition( CONF_SERVO_PATTE_ARRIERE_DROITE_EPAULE_INDEX, i_message_from_digi[ 4U ], vit);	
	}	
	else if( i_message_from_digi[ 3U ] == 13U )
    13ea:	8d 30       	cpi	r24, 0x0D	; 13
    13ec:	09 f0       	breq	.+2      	; 0x13f0 <CtrlUartProtocoleDispatcher+0x150>
    13ee:	9c cf       	rjmp	.-200    	; 0x1328 <CtrlUartProtocoleDispatcher+0x88>
	{
		DrvServoMoveToPosition( CONF_SERVO_PATTE_ARRIERE_DROITE_COUDE_INDEX, i_message_from_digi[ 4U ], vit);	
    13f0:	60 91 f9 01 	lds	r22, 0x01F9
    13f4:	70 e0       	ldi	r23, 0x00	; 0
    13f6:	0e 94 cb 0e 	call	0x1d96	; 0x1d96 <DrvServoMoveToPosition>
    13fa:	96 cf       	rjmp	.-212    	; 0x1328 <CtrlUartProtocoleDispatcher+0x88>
{
	EServoVitesse vit;
	//on cherche la vitesse
	if( i_message_from_digi[ 5U ] == 0U )
	{
		vit = E_SERVO_VITESSE_0;
    13fc:	44 e6       	ldi	r20, 0x64	; 100
    13fe:	d9 cf       	rjmp	.-78     	; 0x13b2 <CtrlUartProtocoleDispatcher+0x112>
{
	EServoVitesse vit;
	//on cherche la vitesse
	if( i_message_from_digi[ 4U ] == 0U )
	{
		vit = E_SERVO_VITESSE_0;
    1400:	64 e6       	ldi	r22, 0x64	; 100
    1402:	8e cf       	rjmp	.-228    	; 0x1320 <CtrlUartProtocoleDispatcher+0x80>
	{
		vit = E_SERVO_VITESSE_0;
	}
	else if( i_message_from_digi[ 5U ] == 1U )
	{
		vit = E_SERVO_VITESSE_1;
    1404:	40 e5       	ldi	r20, 0x50	; 80
    1406:	d5 cf       	rjmp	.-86     	; 0x13b2 <CtrlUartProtocoleDispatcher+0x112>
	}
	else if( i_message_from_digi[ 5U ] == 2U )
	{
		vit = E_SERVO_VITESSE_2;
    1408:	4c e3       	ldi	r20, 0x3C	; 60
    140a:	d3 cf       	rjmp	.-90     	; 0x13b2 <CtrlUartProtocoleDispatcher+0x112>
	}
	else if( i_message_from_digi[ 5U ] == 3U )
	{
		vit = E_SERVO_VITESSE_3;
    140c:	48 e2       	ldi	r20, 0x28	; 40
    140e:	d1 cf       	rjmp	.-94     	; 0x13b2 <CtrlUartProtocoleDispatcher+0x112>
	{
		vit = E_SERVO_VITESSE_0;
	}
	else if( i_message_from_digi[ 4U ] == 1U )
	{
		vit = E_SERVO_VITESSE_1;
    1410:	60 e5       	ldi	r22, 0x50	; 80
    1412:	86 cf       	rjmp	.-244    	; 0x1320 <CtrlUartProtocoleDispatcher+0x80>
	{
		vit = E_SERVO_VITESSE_3;
	}
	else if( i_message_from_digi[ 5U ] == 4U )
	{
		vit = E_SERVO_VITESSE_4;
    1414:	44 e1       	ldi	r20, 0x14	; 20
    1416:	cd cf       	rjmp	.-102    	; 0x13b2 <CtrlUartProtocoleDispatcher+0x112>
	{
		vit = E_SERVO_VITESSE_1;
	}
	else if( i_message_from_digi[ 4U ] == 2U )
	{
		vit = E_SERVO_VITESSE_2;
    1418:	6c e3       	ldi	r22, 0x3C	; 60
    141a:	82 cf       	rjmp	.-252    	; 0x1320 <CtrlUartProtocoleDispatcher+0x80>
	}
	else if( i_message_from_digi[ 4U ] == 3U )
	{
		vit = E_SERVO_VITESSE_3;
    141c:	68 e2       	ldi	r22, 0x28	; 40
    141e:	80 cf       	rjmp	.-256    	; 0x1320 <CtrlUartProtocoleDispatcher+0x80>
	}
	else if( i_message_from_digi[ 4U ] == 4U )
	{
		vit = E_SERVO_VITESSE_4;
    1420:	64 e1       	ldi	r22, 0x14	; 20
    1422:	7e cf       	rjmp	.-260    	; 0x1320 <CtrlUartProtocoleDispatcher+0x80>

00001424 <CtrlUartProtocoleReadHeadUs>:

//on lit la mesure US
Int16U CtrlUartProtocoleReadHeadUs( void ) 
{
	return ultrason_mesure;
}	
    1424:	80 91 58 01 	lds	r24, 0x0158
    1428:	90 91 59 01 	lds	r25, 0x0159
    142c:	08 95       	ret

0000142e <CtrlUartProtocoleSendReadHeadUs>:
	}
}

//valeur mesurer par l'us
void CtrlUartProtocoleSendReadHeadUs( void ) 
{
    142e:	df 93       	push	r29
    1430:	cf 93       	push	r28
    1432:	00 d0       	rcall	.+0      	; 0x1434 <CtrlUartProtocoleSendReadHeadUs+0x6>
    1434:	00 d0       	rcall	.+0      	; 0x1436 <CtrlUartProtocoleSendReadHeadUs+0x8>
    1436:	0f 92       	push	r0
    1438:	cd b7       	in	r28, 0x3d	; 61
    143a:	de b7       	in	r29, 0x3e	; 62
	Int8U message[ 5U ] = {'*',0,0,'#','#'};
    143c:	ce 01       	movw	r24, r28
    143e:	01 96       	adiw	r24, 0x01	; 1
    1440:	dc 01       	movw	r26, r24
    1442:	ea e0       	ldi	r30, 0x0A	; 10
    1444:	f1 e0       	ldi	r31, 0x01	; 1
    1446:	25 e0       	ldi	r18, 0x05	; 5
    1448:	01 90       	ld	r0, Z+
    144a:	0d 92       	st	X+, r0
    144c:	21 50       	subi	r18, 0x01	; 1
    144e:	e1 f7       	brne	.-8      	; 0x1448 <CtrlUartProtocoleSendReadHeadUs+0x1a>
	//on l'envoie a la tete
	DrvUart0SendMessage( message, 5U );
    1450:	65 e0       	ldi	r22, 0x05	; 5
    1452:	0e 94 71 15 	call	0x2ae2	; 0x2ae2 <DrvUart0SendMessage>
}
    1456:	0f 90       	pop	r0
    1458:	0f 90       	pop	r0
    145a:	0f 90       	pop	r0
    145c:	0f 90       	pop	r0
    145e:	0f 90       	pop	r0
    1460:	cf 91       	pop	r28
    1462:	df 91       	pop	r29
    1464:	08 95       	ret

00001466 <DrvEvent>:
  
/////////////////////////////////////////PUBLIC FUNCTIONS/////////////////////////////////////////
// Init du Drv Event 
void DrvEvent( void )
{
	event_flags = 0;
    1466:	10 92 5b 01 	sts	0x015B, r1
    146a:	10 92 5a 01 	sts	0x015A, r1
}
    146e:	08 95       	ret

00001470 <DrvEventKillEvent>:
////////////////////////////////////////PRIVATE FUNCTIONS/////////////////////////////////////////

//
inline void DrvEventKillEvent(Event_t in_event) 
{
	ATOMIC(
    1470:	f8 94       	cli
    1472:	20 91 5a 01 	lds	r18, 0x015A
    1476:	30 91 5b 01 	lds	r19, 0x015B
    147a:	80 95       	com	r24
    147c:	90 95       	com	r25
    147e:	82 23       	and	r24, r18
    1480:	93 23       	and	r25, r19
    1482:	90 93 5b 01 	sts	0x015B, r25
    1486:	80 93 5a 01 	sts	0x015A, r24
    148a:	78 94       	sei
		event_flags = ~(in_event | ~event_flags);
	)
}
    148c:	08 95       	ret

0000148e <DrvEventGetEvent>:

//
inline Event_t DrvEventGetEvent(void)
{
  return event_flags;
}
    148e:	80 91 5a 01 	lds	r24, 0x015A
    1492:	90 91 5b 01 	lds	r25, 0x015B
    1496:	08 95       	ret

00001498 <DrvEventTestEvent>:

//
inline Boolean DrvEventTestEvent(Event_t in_event,Int8U conf_event ) 
{
	if (( in_event & ( 1 << conf_event)) > 0 )
    1498:	21 e0       	ldi	r18, 0x01	; 1
    149a:	30 e0       	ldi	r19, 0x00	; 0
    149c:	02 c0       	rjmp	.+4      	; 0x14a2 <DrvEventTestEvent+0xa>
    149e:	22 0f       	add	r18, r18
    14a0:	33 1f       	adc	r19, r19
    14a2:	6a 95       	dec	r22
    14a4:	e2 f7       	brpl	.-8      	; 0x149e <DrvEventTestEvent+0x6>
    14a6:	28 23       	and	r18, r24
    14a8:	39 23       	and	r19, r25
	{
		return TRUE;
    14aa:	81 e0       	ldi	r24, 0x01	; 1
    14ac:	21 15       	cp	r18, r1
    14ae:	31 05       	cpc	r19, r1
    14b0:	09 f4       	brne	.+2      	; 0x14b4 <DrvEventTestEvent+0x1c>
    14b2:	80 e0       	ldi	r24, 0x00	; 0
	}
	else
	{
		return FALSE;
	}
}
    14b4:	08 95       	ret

000014b6 <DrvEventAddEvent>:

//
inline Boolean DrvEventAddEvent(Event_t event)
{
	Boolean o_success = FALSE;
	event_flags |= (1<<event) ;
    14b6:	21 e0       	ldi	r18, 0x01	; 1
    14b8:	30 e0       	ldi	r19, 0x00	; 0
    14ba:	02 c0       	rjmp	.+4      	; 0x14c0 <DrvEventAddEvent+0xa>
    14bc:	22 0f       	add	r18, r18
    14be:	33 1f       	adc	r19, r19
    14c0:	8a 95       	dec	r24
    14c2:	e2 f7       	brpl	.-8      	; 0x14bc <DrvEventAddEvent+0x6>
    14c4:	80 91 5a 01 	lds	r24, 0x015A
    14c8:	90 91 5b 01 	lds	r25, 0x015B
    14cc:	82 2b       	or	r24, r18
    14ce:	93 2b       	or	r25, r19
    14d0:	90 93 5b 01 	sts	0x015B, r25
    14d4:	80 93 5a 01 	sts	0x015A, r24
	o_success = TRUE;
	return o_success;
}
    14d8:	81 e0       	ldi	r24, 0x01	; 1
    14da:	08 95       	ret

000014dc <DrvInterruptClearAllInterrupts>:
  
/////////////////////////////////////////PUBLIC FUNCTIONS/////////////////////////////////////////
// On clear toutes les ITs 
void DrvInterruptClearAllInterrupts( void )
{
	cli();
    14dc:	f8 94       	cli
}	
    14de:	08 95       	ret

000014e0 <DrvInterruptSetAllInterrupts>:

// On clear toutes les ITs 
void DrvInterruptSetAllInterrupts( void )
{
	sei();
    14e0:	78 94       	sei
}
    14e2:	08 95       	ret

000014e4 <DrvLedFlash_ISR>:
//ISR de flash de la led
void DrvLedFlash_ISR( void )
{
	for (Int8U loop_index = 0U ; loop_index < CONF_LED_NB ; loop_index++ )
	{
		if( MesLeds[ loop_index ].flash_active == TRUE )
    14e4:	80 91 5d 02 	lds	r24, 0x025D
    14e8:	81 30       	cpi	r24, 0x01	; 1
    14ea:	09 f4       	brne	.+2      	; 0x14ee <DrvLedFlash_ISR+0xa>
    14ec:	a6 c0       	rjmp	.+332    	; 0x163a <DrvLedFlash_ISR+0x156>
    14ee:	80 91 6c 02 	lds	r24, 0x026C
    14f2:	81 30       	cpi	r24, 0x01	; 1
    14f4:	09 f4       	brne	.+2      	; 0x14f8 <DrvLedFlash_ISR+0x14>
    14f6:	6e c0       	rjmp	.+220    	; 0x15d4 <DrvLedFlash_ISR+0xf0>
    14f8:	80 91 7b 02 	lds	r24, 0x027B
    14fc:	81 30       	cpi	r24, 0x01	; 1
    14fe:	b9 f1       	breq	.+110    	; 0x156e <DrvLedFlash_ISR+0x8a>
    1500:	80 91 8a 02 	lds	r24, 0x028A
    1504:	81 30       	cpi	r24, 0x01	; 1
    1506:	09 f0       	breq	.+2      	; 0x150a <DrvLedFlash_ISR+0x26>
    1508:	08 95       	ret
		{
			if(MesLeds[ loop_index ].cpt_nb_flash < MesLeds[ loop_index ].nb_flash)
    150a:	90 91 94 02 	lds	r25, 0x0294
    150e:	80 91 93 02 	lds	r24, 0x0293
    1512:	98 17       	cp	r25, r24
    1514:	08 f0       	brcs	.+2      	; 0x1518 <DrvLedFlash_ISR+0x34>
    1516:	08 c1       	rjmp	.+528    	; 0x1728 <DrvLedFlash_ISR+0x244>
			{
				//paire on allume
				if( MesLeds[ loop_index ].actual_state == STATE_LED_OFF )
    1518:	80 91 89 02 	lds	r24, 0x0289
    151c:	81 30       	cpi	r24, 0x01	; 1
    151e:	09 f4       	brne	.+2      	; 0x1522 <DrvLedFlash_ISR+0x3e>
    1520:	1a c1       	rjmp	.+564    	; 0x1756 <DrvLedFlash_ISR+0x272>
					}			
				}	
				//impaire on eteinds
				else
				{
					MesLeds[ loop_index ].cpt_time_on++;
    1522:	80 91 8d 02 	lds	r24, 0x028D
    1526:	90 91 8e 02 	lds	r25, 0x028E
    152a:	01 96       	adiw	r24, 0x01	; 1
    152c:	90 93 8e 02 	sts	0x028E, r25
    1530:	80 93 8d 02 	sts	0x028D, r24
					if( MesLeds[ loop_index ].cpt_time_on == MesLeds[ loop_index ].time_on )
    1534:	20 91 8b 02 	lds	r18, 0x028B
    1538:	30 91 8c 02 	lds	r19, 0x028C
    153c:	82 17       	cp	r24, r18
    153e:	93 07       	cpc	r25, r19
    1540:	19 f7       	brne	.-58     	; 0x1508 <DrvLedFlash_ISR+0x24>
}

// Etiends la led
void DrvLedOff ( Int8U led_name )
{
	if( MesLeds[ led_name ].active_level == IO_LEVEL_VCC )
    1542:	80 91 87 02 	lds	r24, 0x0287
    1546:	81 30       	cpi	r24, 0x01	; 1
    1548:	09 f4       	brne	.+2      	; 0x154c <DrvLedFlash_ISR+0x68>
    154a:	8d c1       	rjmp	.+794    	; 0x1866 <DrvLedFlash_ISR+0x382>
	{
		micIoPortsConfigureToLowLevel(MesLeds[ led_name ].pin_name);
	}
	else
	{
		micIoPortsConfigureToHighLevel(MesLeds[ led_name ].pin_name);
    154c:	80 91 86 02 	lds	r24, 0x0286
    1550:	0e 94 ce 18 	call	0x319c	; 0x319c <micIoPortsConfigureToHighLevel>
					MesLeds[ loop_index ].cpt_time_on++;
					if( MesLeds[ loop_index ].cpt_time_on == MesLeds[ loop_index ].time_on )
					{
						//fin de period de ON on met a OFF	
						DrvLedOff( loop_index );
						MesLeds[ loop_index ].actual_state = STATE_LED_OFF;
    1554:	81 e0       	ldi	r24, 0x01	; 1
    1556:	80 93 89 02 	sts	0x0289, r24
						MesLeds[ loop_index ].cpt_time_on = 0;	
    155a:	10 92 8e 02 	sts	0x028E, r1
    155e:	10 92 8d 02 	sts	0x028D, r1
						//on incremente le nombre de flash a chaque passage a off
						MesLeds[ loop_index ].cpt_nb_flash++;
    1562:	80 91 94 02 	lds	r24, 0x0294
    1566:	8f 5f       	subi	r24, 0xFF	; 255
    1568:	80 93 94 02 	sts	0x0294, r24
    156c:	08 95       	ret
{
	for (Int8U loop_index = 0U ; loop_index < CONF_LED_NB ; loop_index++ )
	{
		if( MesLeds[ loop_index ].flash_active == TRUE )
		{
			if(MesLeds[ loop_index ].cpt_nb_flash < MesLeds[ loop_index ].nb_flash)
    156e:	90 91 85 02 	lds	r25, 0x0285
    1572:	80 91 84 02 	lds	r24, 0x0284
    1576:	98 17       	cp	r25, r24
    1578:	08 f0       	brcs	.+2      	; 0x157c <DrvLedFlash_ISR+0x98>
    157a:	bf c0       	rjmp	.+382    	; 0x16fa <DrvLedFlash_ISR+0x216>
			{
				//paire on allume
				if( MesLeds[ loop_index ].actual_state == STATE_LED_OFF )
    157c:	80 91 7a 02 	lds	r24, 0x027A
    1580:	81 30       	cpi	r24, 0x01	; 1
    1582:	09 f4       	brne	.+2      	; 0x1586 <DrvLedFlash_ISR+0xa2>
    1584:	09 c1       	rjmp	.+530    	; 0x1798 <DrvLedFlash_ISR+0x2b4>
					}			
				}	
				//impaire on eteinds
				else
				{
					MesLeds[ loop_index ].cpt_time_on++;
    1586:	80 91 7e 02 	lds	r24, 0x027E
    158a:	90 91 7f 02 	lds	r25, 0x027F
    158e:	01 96       	adiw	r24, 0x01	; 1
    1590:	90 93 7f 02 	sts	0x027F, r25
    1594:	80 93 7e 02 	sts	0x027E, r24
					if( MesLeds[ loop_index ].cpt_time_on == MesLeds[ loop_index ].time_on )
    1598:	20 91 7c 02 	lds	r18, 0x027C
    159c:	30 91 7d 02 	lds	r19, 0x027D
    15a0:	82 17       	cp	r24, r18
    15a2:	93 07       	cpc	r25, r19
    15a4:	09 f0       	breq	.+2      	; 0x15a8 <DrvLedFlash_ISR+0xc4>
    15a6:	ac cf       	rjmp	.-168    	; 0x1500 <DrvLedFlash_ISR+0x1c>
}

// Etiends la led
void DrvLedOff ( Int8U led_name )
{
	if( MesLeds[ led_name ].active_level == IO_LEVEL_VCC )
    15a8:	80 91 78 02 	lds	r24, 0x0278
    15ac:	81 30       	cpi	r24, 0x01	; 1
    15ae:	09 f4       	brne	.+2      	; 0x15b2 <DrvLedFlash_ISR+0xce>
    15b0:	5f c1       	rjmp	.+702    	; 0x1870 <DrvLedFlash_ISR+0x38c>
	{
		micIoPortsConfigureToLowLevel(MesLeds[ led_name ].pin_name);
	}
	else
	{
		micIoPortsConfigureToHighLevel(MesLeds[ led_name ].pin_name);
    15b2:	80 91 77 02 	lds	r24, 0x0277
    15b6:	0e 94 ce 18 	call	0x319c	; 0x319c <micIoPortsConfigureToHighLevel>
					MesLeds[ loop_index ].cpt_time_on++;
					if( MesLeds[ loop_index ].cpt_time_on == MesLeds[ loop_index ].time_on )
					{
						//fin de period de ON on met a OFF	
						DrvLedOff( loop_index );
						MesLeds[ loop_index ].actual_state = STATE_LED_OFF;
    15ba:	81 e0       	ldi	r24, 0x01	; 1
    15bc:	80 93 7a 02 	sts	0x027A, r24
						MesLeds[ loop_index ].cpt_time_on = 0;	
    15c0:	10 92 7f 02 	sts	0x027F, r1
    15c4:	10 92 7e 02 	sts	0x027E, r1
						//on incremente le nombre de flash a chaque passage a off
						MesLeds[ loop_index ].cpt_nb_flash++;
    15c8:	80 91 85 02 	lds	r24, 0x0285
    15cc:	8f 5f       	subi	r24, 0xFF	; 255
    15ce:	80 93 85 02 	sts	0x0285, r24
    15d2:	96 cf       	rjmp	.-212    	; 0x1500 <DrvLedFlash_ISR+0x1c>
{
	for (Int8U loop_index = 0U ; loop_index < CONF_LED_NB ; loop_index++ )
	{
		if( MesLeds[ loop_index ].flash_active == TRUE )
		{
			if(MesLeds[ loop_index ].cpt_nb_flash < MesLeds[ loop_index ].nb_flash)
    15d4:	90 91 76 02 	lds	r25, 0x0276
    15d8:	80 91 75 02 	lds	r24, 0x0275
    15dc:	98 17       	cp	r25, r24
    15de:	08 f0       	brcs	.+2      	; 0x15e2 <DrvLedFlash_ISR+0xfe>
    15e0:	75 c0       	rjmp	.+234    	; 0x16cc <DrvLedFlash_ISR+0x1e8>
			{
				//paire on allume
				if( MesLeds[ loop_index ].actual_state == STATE_LED_OFF )
    15e2:	80 91 6b 02 	lds	r24, 0x026B
    15e6:	81 30       	cpi	r24, 0x01	; 1
    15e8:	09 f4       	brne	.+2      	; 0x15ec <DrvLedFlash_ISR+0x108>
    15ea:	f7 c0       	rjmp	.+494    	; 0x17da <DrvLedFlash_ISR+0x2f6>
					}			
				}	
				//impaire on eteinds
				else
				{
					MesLeds[ loop_index ].cpt_time_on++;
    15ec:	80 91 6f 02 	lds	r24, 0x026F
    15f0:	90 91 70 02 	lds	r25, 0x0270
    15f4:	01 96       	adiw	r24, 0x01	; 1
    15f6:	90 93 70 02 	sts	0x0270, r25
    15fa:	80 93 6f 02 	sts	0x026F, r24
					if( MesLeds[ loop_index ].cpt_time_on == MesLeds[ loop_index ].time_on )
    15fe:	20 91 6d 02 	lds	r18, 0x026D
    1602:	30 91 6e 02 	lds	r19, 0x026E
    1606:	82 17       	cp	r24, r18
    1608:	93 07       	cpc	r25, r19
    160a:	09 f0       	breq	.+2      	; 0x160e <DrvLedFlash_ISR+0x12a>
    160c:	75 cf       	rjmp	.-278    	; 0x14f8 <DrvLedFlash_ISR+0x14>
}

// Etiends la led
void DrvLedOff ( Int8U led_name )
{
	if( MesLeds[ led_name ].active_level == IO_LEVEL_VCC )
    160e:	80 91 69 02 	lds	r24, 0x0269
    1612:	81 30       	cpi	r24, 0x01	; 1
    1614:	09 f4       	brne	.+2      	; 0x1618 <DrvLedFlash_ISR+0x134>
    1616:	31 c1       	rjmp	.+610    	; 0x187a <DrvLedFlash_ISR+0x396>
	{
		micIoPortsConfigureToLowLevel(MesLeds[ led_name ].pin_name);
	}
	else
	{
		micIoPortsConfigureToHighLevel(MesLeds[ led_name ].pin_name);
    1618:	80 91 68 02 	lds	r24, 0x0268
    161c:	0e 94 ce 18 	call	0x319c	; 0x319c <micIoPortsConfigureToHighLevel>
					MesLeds[ loop_index ].cpt_time_on++;
					if( MesLeds[ loop_index ].cpt_time_on == MesLeds[ loop_index ].time_on )
					{
						//fin de period de ON on met a OFF	
						DrvLedOff( loop_index );
						MesLeds[ loop_index ].actual_state = STATE_LED_OFF;
    1620:	81 e0       	ldi	r24, 0x01	; 1
    1622:	80 93 6b 02 	sts	0x026B, r24
						MesLeds[ loop_index ].cpt_time_on = 0;	
    1626:	10 92 70 02 	sts	0x0270, r1
    162a:	10 92 6f 02 	sts	0x026F, r1
						//on incremente le nombre de flash a chaque passage a off
						MesLeds[ loop_index ].cpt_nb_flash++;
    162e:	80 91 76 02 	lds	r24, 0x0276
    1632:	8f 5f       	subi	r24, 0xFF	; 255
    1634:	80 93 76 02 	sts	0x0276, r24
    1638:	5f cf       	rjmp	.-322    	; 0x14f8 <DrvLedFlash_ISR+0x14>
{
	for (Int8U loop_index = 0U ; loop_index < CONF_LED_NB ; loop_index++ )
	{
		if( MesLeds[ loop_index ].flash_active == TRUE )
		{
			if(MesLeds[ loop_index ].cpt_nb_flash < MesLeds[ loop_index ].nb_flash)
    163a:	90 91 66 02 	lds	r25, 0x0266
    163e:	80 91 67 02 	lds	r24, 0x0267
    1642:	89 17       	cp	r24, r25
    1644:	60 f5       	brcc	.+88     	; 0x169e <DrvLedFlash_ISR+0x1ba>
			{
				//paire on allume
				if( MesLeds[ loop_index ].actual_state == STATE_LED_OFF )
    1646:	80 91 5c 02 	lds	r24, 0x025C
    164a:	81 30       	cpi	r24, 0x01	; 1
    164c:	09 f4       	brne	.+2      	; 0x1650 <DrvLedFlash_ISR+0x16c>
    164e:	e6 c0       	rjmp	.+460    	; 0x181c <DrvLedFlash_ISR+0x338>
					}			
				}	
				//impaire on eteinds
				else
				{
					MesLeds[ loop_index ].cpt_time_on++;
    1650:	80 91 60 02 	lds	r24, 0x0260
    1654:	90 91 61 02 	lds	r25, 0x0261
    1658:	01 96       	adiw	r24, 0x01	; 1
    165a:	90 93 61 02 	sts	0x0261, r25
    165e:	80 93 60 02 	sts	0x0260, r24
					if( MesLeds[ loop_index ].cpt_time_on == MesLeds[ loop_index ].time_on )
    1662:	20 91 5e 02 	lds	r18, 0x025E
    1666:	30 91 5f 02 	lds	r19, 0x025F
    166a:	82 17       	cp	r24, r18
    166c:	93 07       	cpc	r25, r19
    166e:	09 f0       	breq	.+2      	; 0x1672 <DrvLedFlash_ISR+0x18e>
    1670:	3e cf       	rjmp	.-388    	; 0x14ee <DrvLedFlash_ISR+0xa>
}

// Etiends la led
void DrvLedOff ( Int8U led_name )
{
	if( MesLeds[ led_name ].active_level == IO_LEVEL_VCC )
    1672:	80 91 5a 02 	lds	r24, 0x025A
    1676:	81 30       	cpi	r24, 0x01	; 1
    1678:	09 f4       	brne	.+2      	; 0x167c <DrvLedFlash_ISR+0x198>
    167a:	f0 c0       	rjmp	.+480    	; 0x185c <DrvLedFlash_ISR+0x378>
	{
		micIoPortsConfigureToLowLevel(MesLeds[ led_name ].pin_name);
	}
	else
	{
		micIoPortsConfigureToHighLevel(MesLeds[ led_name ].pin_name);
    167c:	80 91 59 02 	lds	r24, 0x0259
    1680:	0e 94 ce 18 	call	0x319c	; 0x319c <micIoPortsConfigureToHighLevel>
					MesLeds[ loop_index ].cpt_time_on++;
					if( MesLeds[ loop_index ].cpt_time_on == MesLeds[ loop_index ].time_on )
					{
						//fin de period de ON on met a OFF	
						DrvLedOff( loop_index );
						MesLeds[ loop_index ].actual_state = STATE_LED_OFF;
    1684:	81 e0       	ldi	r24, 0x01	; 1
    1686:	80 93 5c 02 	sts	0x025C, r24
						MesLeds[ loop_index ].cpt_time_on = 0;	
    168a:	10 92 61 02 	sts	0x0261, r1
    168e:	10 92 60 02 	sts	0x0260, r1
						//on incremente le nombre de flash a chaque passage a off
						MesLeds[ loop_index ].cpt_nb_flash++;
    1692:	80 91 67 02 	lds	r24, 0x0267
    1696:	8f 5f       	subi	r24, 0xFF	; 255
    1698:	80 93 67 02 	sts	0x0267, r24
    169c:	28 cf       	rjmp	.-432    	; 0x14ee <DrvLedFlash_ISR+0xa>
				}
			}	
			//plus de flash a faire
			else
			{
				MesLeds[ loop_index ].flash_active	= FALSE;
    169e:	10 92 5d 02 	sts	0x025D, r1
				MesLeds[ loop_index ].time_on		= 0U;
    16a2:	10 92 5f 02 	sts	0x025F, r1
    16a6:	10 92 5e 02 	sts	0x025E, r1
				MesLeds[ loop_index ].cpt_time_on	= 0U;
    16aa:	10 92 61 02 	sts	0x0261, r1
    16ae:	10 92 60 02 	sts	0x0260, r1
				MesLeds[ loop_index ].time_off		= 0U;
    16b2:	10 92 63 02 	sts	0x0263, r1
    16b6:	10 92 62 02 	sts	0x0262, r1
				MesLeds[ loop_index ].cpt_time_off	= 0U;
    16ba:	10 92 65 02 	sts	0x0265, r1
    16be:	10 92 64 02 	sts	0x0264, r1
				MesLeds[ loop_index ].nb_flash		= 0U;
    16c2:	10 92 66 02 	sts	0x0266, r1
				MesLeds[ loop_index ].cpt_nb_flash	= 0U;
    16c6:	10 92 67 02 	sts	0x0267, r1
    16ca:	11 cf       	rjmp	.-478    	; 0x14ee <DrvLedFlash_ISR+0xa>
				}
			}	
			//plus de flash a faire
			else
			{
				MesLeds[ loop_index ].flash_active	= FALSE;
    16cc:	10 92 6c 02 	sts	0x026C, r1
				MesLeds[ loop_index ].time_on		= 0U;
    16d0:	10 92 6e 02 	sts	0x026E, r1
    16d4:	10 92 6d 02 	sts	0x026D, r1
				MesLeds[ loop_index ].cpt_time_on	= 0U;
    16d8:	10 92 70 02 	sts	0x0270, r1
    16dc:	10 92 6f 02 	sts	0x026F, r1
				MesLeds[ loop_index ].time_off		= 0U;
    16e0:	10 92 72 02 	sts	0x0272, r1
    16e4:	10 92 71 02 	sts	0x0271, r1
				MesLeds[ loop_index ].cpt_time_off	= 0U;
    16e8:	10 92 74 02 	sts	0x0274, r1
    16ec:	10 92 73 02 	sts	0x0273, r1
				MesLeds[ loop_index ].nb_flash		= 0U;
    16f0:	10 92 75 02 	sts	0x0275, r1
				MesLeds[ loop_index ].cpt_nb_flash	= 0U;
    16f4:	10 92 76 02 	sts	0x0276, r1
    16f8:	ff ce       	rjmp	.-514    	; 0x14f8 <DrvLedFlash_ISR+0x14>
				}
			}	
			//plus de flash a faire
			else
			{
				MesLeds[ loop_index ].flash_active	= FALSE;
    16fa:	10 92 7b 02 	sts	0x027B, r1
				MesLeds[ loop_index ].time_on		= 0U;
    16fe:	10 92 7d 02 	sts	0x027D, r1
    1702:	10 92 7c 02 	sts	0x027C, r1
				MesLeds[ loop_index ].cpt_time_on	= 0U;
    1706:	10 92 7f 02 	sts	0x027F, r1
    170a:	10 92 7e 02 	sts	0x027E, r1
				MesLeds[ loop_index ].time_off		= 0U;
    170e:	10 92 81 02 	sts	0x0281, r1
    1712:	10 92 80 02 	sts	0x0280, r1
				MesLeds[ loop_index ].cpt_time_off	= 0U;
    1716:	10 92 83 02 	sts	0x0283, r1
    171a:	10 92 82 02 	sts	0x0282, r1
				MesLeds[ loop_index ].nb_flash		= 0U;
    171e:	10 92 84 02 	sts	0x0284, r1
				MesLeds[ loop_index ].cpt_nb_flash	= 0U;
    1722:	10 92 85 02 	sts	0x0285, r1
    1726:	ec ce       	rjmp	.-552    	; 0x1500 <DrvLedFlash_ISR+0x1c>
				}
			}	
			//plus de flash a faire
			else
			{
				MesLeds[ loop_index ].flash_active	= FALSE;
    1728:	10 92 8a 02 	sts	0x028A, r1
				MesLeds[ loop_index ].time_on		= 0U;
    172c:	10 92 8c 02 	sts	0x028C, r1
    1730:	10 92 8b 02 	sts	0x028B, r1
				MesLeds[ loop_index ].cpt_time_on	= 0U;
    1734:	10 92 8e 02 	sts	0x028E, r1
    1738:	10 92 8d 02 	sts	0x028D, r1
				MesLeds[ loop_index ].time_off		= 0U;
    173c:	10 92 90 02 	sts	0x0290, r1
    1740:	10 92 8f 02 	sts	0x028F, r1
				MesLeds[ loop_index ].cpt_time_off	= 0U;
    1744:	10 92 92 02 	sts	0x0292, r1
    1748:	10 92 91 02 	sts	0x0291, r1
				MesLeds[ loop_index ].nb_flash		= 0U;
    174c:	10 92 93 02 	sts	0x0293, r1
				MesLeds[ loop_index ].cpt_nb_flash	= 0U;
    1750:	10 92 94 02 	sts	0x0294, r1
    1754:	08 95       	ret
			if(MesLeds[ loop_index ].cpt_nb_flash < MesLeds[ loop_index ].nb_flash)
			{
				//paire on allume
				if( MesLeds[ loop_index ].actual_state == STATE_LED_OFF )
				{
					MesLeds[ loop_index ].cpt_time_off++;
    1756:	80 91 91 02 	lds	r24, 0x0291
    175a:	90 91 92 02 	lds	r25, 0x0292
    175e:	01 96       	adiw	r24, 0x01	; 1
    1760:	90 93 92 02 	sts	0x0292, r25
    1764:	80 93 91 02 	sts	0x0291, r24
					if( MesLeds[ loop_index ].cpt_time_off == MesLeds[ loop_index ].time_off )
    1768:	20 91 8f 02 	lds	r18, 0x028F
    176c:	30 91 90 02 	lds	r19, 0x0290
    1770:	82 17       	cp	r24, r18
    1772:	93 07       	cpc	r25, r19
    1774:	09 f0       	breq	.+2      	; 0x1778 <DrvLedFlash_ISR+0x294>
    1776:	c8 ce       	rjmp	.-624    	; 0x1508 <DrvLedFlash_ISR+0x24>
}

// Allume la led
void DrvLedOn ( Int8U led_name )
{
	if( MesLeds[ led_name ].active_level == IO_LEVEL_VCC )
    1778:	80 91 87 02 	lds	r24, 0x0287
    177c:	81 30       	cpi	r24, 0x01	; 1
    177e:	09 f4       	brne	.+2      	; 0x1782 <DrvLedFlash_ISR+0x29e>
    1780:	90 c0       	rjmp	.+288    	; 0x18a2 <DrvLedFlash_ISR+0x3be>
	{
		micIoPortsConfigureToHighLevel(MesLeds[ led_name ].pin_name);
	}
	else
	{
		micIoPortsConfigureToLowLevel(MesLeds[ led_name ].pin_name);
    1782:	80 91 86 02 	lds	r24, 0x0286
    1786:	0e 94 d8 18 	call	0x31b0	; 0x31b0 <micIoPortsConfigureToLowLevel>
					MesLeds[ loop_index ].cpt_time_off++;
					if( MesLeds[ loop_index ].cpt_time_off == MesLeds[ loop_index ].time_off )
					{
						//fin de period de OFF on met a ON	
						DrvLedOn( loop_index );
						MesLeds[ loop_index ].actual_state = STATE_LED_ON;
    178a:	10 92 89 02 	sts	0x0289, r1
						MesLeds[ loop_index ].cpt_time_off = 0;		
    178e:	10 92 92 02 	sts	0x0292, r1
    1792:	10 92 91 02 	sts	0x0291, r1
    1796:	08 95       	ret
			if(MesLeds[ loop_index ].cpt_nb_flash < MesLeds[ loop_index ].nb_flash)
			{
				//paire on allume
				if( MesLeds[ loop_index ].actual_state == STATE_LED_OFF )
				{
					MesLeds[ loop_index ].cpt_time_off++;
    1798:	80 91 82 02 	lds	r24, 0x0282
    179c:	90 91 83 02 	lds	r25, 0x0283
    17a0:	01 96       	adiw	r24, 0x01	; 1
    17a2:	90 93 83 02 	sts	0x0283, r25
    17a6:	80 93 82 02 	sts	0x0282, r24
					if( MesLeds[ loop_index ].cpt_time_off == MesLeds[ loop_index ].time_off )
    17aa:	20 91 80 02 	lds	r18, 0x0280
    17ae:	30 91 81 02 	lds	r19, 0x0281
    17b2:	82 17       	cp	r24, r18
    17b4:	93 07       	cpc	r25, r19
    17b6:	09 f0       	breq	.+2      	; 0x17ba <DrvLedFlash_ISR+0x2d6>
    17b8:	a3 ce       	rjmp	.-698    	; 0x1500 <DrvLedFlash_ISR+0x1c>
}

// Allume la led
void DrvLedOn ( Int8U led_name )
{
	if( MesLeds[ led_name ].active_level == IO_LEVEL_VCC )
    17ba:	80 91 78 02 	lds	r24, 0x0278
    17be:	81 30       	cpi	r24, 0x01	; 1
    17c0:	09 f4       	brne	.+2      	; 0x17c4 <DrvLedFlash_ISR+0x2e0>
    17c2:	60 c0       	rjmp	.+192    	; 0x1884 <DrvLedFlash_ISR+0x3a0>
	{
		micIoPortsConfigureToHighLevel(MesLeds[ led_name ].pin_name);
	}
	else
	{
		micIoPortsConfigureToLowLevel(MesLeds[ led_name ].pin_name);
    17c4:	80 91 77 02 	lds	r24, 0x0277
    17c8:	0e 94 d8 18 	call	0x31b0	; 0x31b0 <micIoPortsConfigureToLowLevel>
					MesLeds[ loop_index ].cpt_time_off++;
					if( MesLeds[ loop_index ].cpt_time_off == MesLeds[ loop_index ].time_off )
					{
						//fin de period de OFF on met a ON	
						DrvLedOn( loop_index );
						MesLeds[ loop_index ].actual_state = STATE_LED_ON;
    17cc:	10 92 7a 02 	sts	0x027A, r1
						MesLeds[ loop_index ].cpt_time_off = 0;		
    17d0:	10 92 83 02 	sts	0x0283, r1
    17d4:	10 92 82 02 	sts	0x0282, r1
    17d8:	93 ce       	rjmp	.-730    	; 0x1500 <DrvLedFlash_ISR+0x1c>
			if(MesLeds[ loop_index ].cpt_nb_flash < MesLeds[ loop_index ].nb_flash)
			{
				//paire on allume
				if( MesLeds[ loop_index ].actual_state == STATE_LED_OFF )
				{
					MesLeds[ loop_index ].cpt_time_off++;
    17da:	80 91 73 02 	lds	r24, 0x0273
    17de:	90 91 74 02 	lds	r25, 0x0274
    17e2:	01 96       	adiw	r24, 0x01	; 1
    17e4:	90 93 74 02 	sts	0x0274, r25
    17e8:	80 93 73 02 	sts	0x0273, r24
					if( MesLeds[ loop_index ].cpt_time_off == MesLeds[ loop_index ].time_off )
    17ec:	20 91 71 02 	lds	r18, 0x0271
    17f0:	30 91 72 02 	lds	r19, 0x0272
    17f4:	82 17       	cp	r24, r18
    17f6:	93 07       	cpc	r25, r19
    17f8:	09 f0       	breq	.+2      	; 0x17fc <DrvLedFlash_ISR+0x318>
    17fa:	7e ce       	rjmp	.-772    	; 0x14f8 <DrvLedFlash_ISR+0x14>
}

// Allume la led
void DrvLedOn ( Int8U led_name )
{
	if( MesLeds[ led_name ].active_level == IO_LEVEL_VCC )
    17fc:	80 91 69 02 	lds	r24, 0x0269
    1800:	81 30       	cpi	r24, 0x01	; 1
    1802:	09 f4       	brne	.+2      	; 0x1806 <DrvLedFlash_ISR+0x322>
    1804:	44 c0       	rjmp	.+136    	; 0x188e <DrvLedFlash_ISR+0x3aa>
	{
		micIoPortsConfigureToHighLevel(MesLeds[ led_name ].pin_name);
	}
	else
	{
		micIoPortsConfigureToLowLevel(MesLeds[ led_name ].pin_name);
    1806:	80 91 68 02 	lds	r24, 0x0268
    180a:	0e 94 d8 18 	call	0x31b0	; 0x31b0 <micIoPortsConfigureToLowLevel>
					MesLeds[ loop_index ].cpt_time_off++;
					if( MesLeds[ loop_index ].cpt_time_off == MesLeds[ loop_index ].time_off )
					{
						//fin de period de OFF on met a ON	
						DrvLedOn( loop_index );
						MesLeds[ loop_index ].actual_state = STATE_LED_ON;
    180e:	10 92 6b 02 	sts	0x026B, r1
						MesLeds[ loop_index ].cpt_time_off = 0;		
    1812:	10 92 74 02 	sts	0x0274, r1
    1816:	10 92 73 02 	sts	0x0273, r1
    181a:	6e ce       	rjmp	.-804    	; 0x14f8 <DrvLedFlash_ISR+0x14>
			if(MesLeds[ loop_index ].cpt_nb_flash < MesLeds[ loop_index ].nb_flash)
			{
				//paire on allume
				if( MesLeds[ loop_index ].actual_state == STATE_LED_OFF )
				{
					MesLeds[ loop_index ].cpt_time_off++;
    181c:	80 91 64 02 	lds	r24, 0x0264
    1820:	90 91 65 02 	lds	r25, 0x0265
    1824:	01 96       	adiw	r24, 0x01	; 1
    1826:	90 93 65 02 	sts	0x0265, r25
    182a:	80 93 64 02 	sts	0x0264, r24
					if( MesLeds[ loop_index ].cpt_time_off == MesLeds[ loop_index ].time_off )
    182e:	20 91 62 02 	lds	r18, 0x0262
    1832:	30 91 63 02 	lds	r19, 0x0263
    1836:	82 17       	cp	r24, r18
    1838:	93 07       	cpc	r25, r19
    183a:	09 f0       	breq	.+2      	; 0x183e <DrvLedFlash_ISR+0x35a>
    183c:	58 ce       	rjmp	.-848    	; 0x14ee <DrvLedFlash_ISR+0xa>
}

// Allume la led
void DrvLedOn ( Int8U led_name )
{
	if( MesLeds[ led_name ].active_level == IO_LEVEL_VCC )
    183e:	80 91 5a 02 	lds	r24, 0x025A
    1842:	81 30       	cpi	r24, 0x01	; 1
    1844:	49 f1       	breq	.+82     	; 0x1898 <DrvLedFlash_ISR+0x3b4>
	{
		micIoPortsConfigureToHighLevel(MesLeds[ led_name ].pin_name);
	}
	else
	{
		micIoPortsConfigureToLowLevel(MesLeds[ led_name ].pin_name);
    1846:	80 91 59 02 	lds	r24, 0x0259
    184a:	0e 94 d8 18 	call	0x31b0	; 0x31b0 <micIoPortsConfigureToLowLevel>
					MesLeds[ loop_index ].cpt_time_off++;
					if( MesLeds[ loop_index ].cpt_time_off == MesLeds[ loop_index ].time_off )
					{
						//fin de period de OFF on met a ON	
						DrvLedOn( loop_index );
						MesLeds[ loop_index ].actual_state = STATE_LED_ON;
    184e:	10 92 5c 02 	sts	0x025C, r1
						MesLeds[ loop_index ].cpt_time_off = 0;		
    1852:	10 92 65 02 	sts	0x0265, r1
    1856:	10 92 64 02 	sts	0x0264, r1
    185a:	49 ce       	rjmp	.-878    	; 0x14ee <DrvLedFlash_ISR+0xa>
// Etiends la led
void DrvLedOff ( Int8U led_name )
{
	if( MesLeds[ led_name ].active_level == IO_LEVEL_VCC )
	{
		micIoPortsConfigureToLowLevel(MesLeds[ led_name ].pin_name);
    185c:	80 91 59 02 	lds	r24, 0x0259
    1860:	0e 94 d8 18 	call	0x31b0	; 0x31b0 <micIoPortsConfigureToLowLevel>
    1864:	0f cf       	rjmp	.-482    	; 0x1684 <DrvLedFlash_ISR+0x1a0>
    1866:	80 91 86 02 	lds	r24, 0x0286
    186a:	0e 94 d8 18 	call	0x31b0	; 0x31b0 <micIoPortsConfigureToLowLevel>
    186e:	72 ce       	rjmp	.-796    	; 0x1554 <DrvLedFlash_ISR+0x70>
    1870:	80 91 77 02 	lds	r24, 0x0277
    1874:	0e 94 d8 18 	call	0x31b0	; 0x31b0 <micIoPortsConfigureToLowLevel>
    1878:	a0 ce       	rjmp	.-704    	; 0x15ba <DrvLedFlash_ISR+0xd6>
    187a:	80 91 68 02 	lds	r24, 0x0268
    187e:	0e 94 d8 18 	call	0x31b0	; 0x31b0 <micIoPortsConfigureToLowLevel>
    1882:	ce ce       	rjmp	.-612    	; 0x1620 <DrvLedFlash_ISR+0x13c>
// Allume la led
void DrvLedOn ( Int8U led_name )
{
	if( MesLeds[ led_name ].active_level == IO_LEVEL_VCC )
	{
		micIoPortsConfigureToHighLevel(MesLeds[ led_name ].pin_name);
    1884:	80 91 77 02 	lds	r24, 0x0277
    1888:	0e 94 ce 18 	call	0x319c	; 0x319c <micIoPortsConfigureToHighLevel>
    188c:	9f cf       	rjmp	.-194    	; 0x17cc <DrvLedFlash_ISR+0x2e8>
    188e:	80 91 68 02 	lds	r24, 0x0268
    1892:	0e 94 ce 18 	call	0x319c	; 0x319c <micIoPortsConfigureToHighLevel>
    1896:	bb cf       	rjmp	.-138    	; 0x180e <DrvLedFlash_ISR+0x32a>
    1898:	80 91 59 02 	lds	r24, 0x0259
    189c:	0e 94 ce 18 	call	0x319c	; 0x319c <micIoPortsConfigureToHighLevel>
    18a0:	d6 cf       	rjmp	.-84     	; 0x184e <DrvLedFlash_ISR+0x36a>
    18a2:	80 91 86 02 	lds	r24, 0x0286
    18a6:	0e 94 ce 18 	call	0x319c	; 0x319c <micIoPortsConfigureToHighLevel>
    18aa:	6f cf       	rjmp	.-290    	; 0x178a <DrvLedFlash_ISR+0x2a6>

000018ac <DrvLed>:
void DrvLed ( void )
{
	//on configure chaque LED
	for (Int8U loop_led = 0 ; loop_led < CONF_LED_NB ; loop_led++)
	{
		MesLeds[ loop_led ].pin_name		= led_pin_name[ loop_led ];
    18ac:	80 91 0f 01 	lds	r24, 0x010F
    18b0:	80 93 59 02 	sts	0x0259, r24
		MesLeds[ loop_led ].active_level	= IO_LEVEL_GND;
    18b4:	10 92 5a 02 	sts	0x025A, r1
		MesLeds[ loop_led ].init_state		= STATE_LED_OFF;
    18b8:	91 e0       	ldi	r25, 0x01	; 1
    18ba:	90 93 5b 02 	sts	0x025B, r25
		MesLeds[ loop_led ].actual_state	= STATE_LED_OFF;
    18be:	90 93 5c 02 	sts	0x025C, r25
		MesLeds[ loop_led ].flash_active	= FALSE;
    18c2:	10 92 5d 02 	sts	0x025D, r1
		MesLeds[ loop_led ].time_on			= 0U;
    18c6:	10 92 5f 02 	sts	0x025F, r1
    18ca:	10 92 5e 02 	sts	0x025E, r1
		MesLeds[ loop_led ].cpt_time_on		= 0U;
    18ce:	10 92 61 02 	sts	0x0261, r1
    18d2:	10 92 60 02 	sts	0x0260, r1
		MesLeds[ loop_led ].time_off		= 0U;
    18d6:	10 92 63 02 	sts	0x0263, r1
    18da:	10 92 62 02 	sts	0x0262, r1
		MesLeds[ loop_led ].cpt_time_off	= 0U;
    18de:	10 92 65 02 	sts	0x0265, r1
    18e2:	10 92 64 02 	sts	0x0264, r1
		MesLeds[ loop_led ].nb_flash		= 0U;
    18e6:	10 92 66 02 	sts	0x0266, r1
		MesLeds[ loop_led ].cpt_nb_flash	= 0U;
    18ea:	10 92 67 02 	sts	0x0267, r1
		
		//on configure l'IO en sortie
		micIoPortsConfigureOutput(MesLeds[ loop_led ].pin_name);
    18ee:	0e 94 77 19 	call	0x32ee	; 0x32ee <micIoPortsConfigureOutput>
		//on init l'etat initial de la led
		if( MesLeds[ loop_led ].init_state == STATE_LED_ON )
    18f2:	80 91 5b 02 	lds	r24, 0x025B
    18f6:	88 23       	and	r24, r24
    18f8:	09 f4       	brne	.+2      	; 0x18fc <DrvLed+0x50>
    18fa:	c0 c0       	rjmp	.+384    	; 0x1a7c <DrvLed+0x1d0>
}

// Etiends la led
void DrvLedOff ( Int8U led_name )
{
	if( MesLeds[ led_name ].active_level == IO_LEVEL_VCC )
    18fc:	80 91 5a 02 	lds	r24, 0x025A
    1900:	81 30       	cpi	r24, 0x01	; 1
    1902:	09 f4       	brne	.+2      	; 0x1906 <DrvLed+0x5a>
    1904:	c0 c0       	rjmp	.+384    	; 0x1a86 <DrvLed+0x1da>
// Allume la led
void DrvLedOn ( Int8U led_name )
{
	if( MesLeds[ led_name ].active_level == IO_LEVEL_VCC )
	{
		micIoPortsConfigureToHighLevel(MesLeds[ led_name ].pin_name);
    1906:	80 91 59 02 	lds	r24, 0x0259
    190a:	0e 94 ce 18 	call	0x319c	; 0x319c <micIoPortsConfigureToHighLevel>
void DrvLed ( void )
{
	//on configure chaque LED
	for (Int8U loop_led = 0 ; loop_led < CONF_LED_NB ; loop_led++)
	{
		MesLeds[ loop_led ].pin_name		= led_pin_name[ loop_led ];
    190e:	80 91 10 01 	lds	r24, 0x0110
    1912:	80 93 68 02 	sts	0x0268, r24
		MesLeds[ loop_led ].active_level	= IO_LEVEL_GND;
    1916:	10 92 69 02 	sts	0x0269, r1
		MesLeds[ loop_led ].init_state		= STATE_LED_OFF;
    191a:	91 e0       	ldi	r25, 0x01	; 1
    191c:	90 93 6a 02 	sts	0x026A, r25
		MesLeds[ loop_led ].actual_state	= STATE_LED_OFF;
    1920:	90 93 6b 02 	sts	0x026B, r25
		MesLeds[ loop_led ].flash_active	= FALSE;
    1924:	10 92 6c 02 	sts	0x026C, r1
		MesLeds[ loop_led ].time_on			= 0U;
    1928:	10 92 6e 02 	sts	0x026E, r1
    192c:	10 92 6d 02 	sts	0x026D, r1
		MesLeds[ loop_led ].cpt_time_on		= 0U;
    1930:	10 92 70 02 	sts	0x0270, r1
    1934:	10 92 6f 02 	sts	0x026F, r1
		MesLeds[ loop_led ].time_off		= 0U;
    1938:	10 92 72 02 	sts	0x0272, r1
    193c:	10 92 71 02 	sts	0x0271, r1
		MesLeds[ loop_led ].cpt_time_off	= 0U;
    1940:	10 92 74 02 	sts	0x0274, r1
    1944:	10 92 73 02 	sts	0x0273, r1
		MesLeds[ loop_led ].nb_flash		= 0U;
    1948:	10 92 75 02 	sts	0x0275, r1
		MesLeds[ loop_led ].cpt_nb_flash	= 0U;
    194c:	10 92 76 02 	sts	0x0276, r1
		
		//on configure l'IO en sortie
		micIoPortsConfigureOutput(MesLeds[ loop_led ].pin_name);
    1950:	0e 94 77 19 	call	0x32ee	; 0x32ee <micIoPortsConfigureOutput>
		//on init l'etat initial de la led
		if( MesLeds[ loop_led ].init_state == STATE_LED_ON )
    1954:	80 91 6a 02 	lds	r24, 0x026A
    1958:	88 23       	and	r24, r24
    195a:	09 f4       	brne	.+2      	; 0x195e <DrvLed+0xb2>
    195c:	85 c0       	rjmp	.+266    	; 0x1a68 <DrvLed+0x1bc>
}

// Etiends la led
void DrvLedOff ( Int8U led_name )
{
	if( MesLeds[ led_name ].active_level == IO_LEVEL_VCC )
    195e:	80 91 69 02 	lds	r24, 0x0269
    1962:	81 30       	cpi	r24, 0x01	; 1
    1964:	09 f4       	brne	.+2      	; 0x1968 <DrvLed+0xbc>
    1966:	85 c0       	rjmp	.+266    	; 0x1a72 <DrvLed+0x1c6>
// Allume la led
void DrvLedOn ( Int8U led_name )
{
	if( MesLeds[ led_name ].active_level == IO_LEVEL_VCC )
	{
		micIoPortsConfigureToHighLevel(MesLeds[ led_name ].pin_name);
    1968:	80 91 68 02 	lds	r24, 0x0268
    196c:	0e 94 ce 18 	call	0x319c	; 0x319c <micIoPortsConfigureToHighLevel>
void DrvLed ( void )
{
	//on configure chaque LED
	for (Int8U loop_led = 0 ; loop_led < CONF_LED_NB ; loop_led++)
	{
		MesLeds[ loop_led ].pin_name		= led_pin_name[ loop_led ];
    1970:	80 91 11 01 	lds	r24, 0x0111
    1974:	80 93 77 02 	sts	0x0277, r24
		MesLeds[ loop_led ].active_level	= IO_LEVEL_GND;
    1978:	10 92 78 02 	sts	0x0278, r1
		MesLeds[ loop_led ].init_state		= STATE_LED_OFF;
    197c:	91 e0       	ldi	r25, 0x01	; 1
    197e:	90 93 79 02 	sts	0x0279, r25
		MesLeds[ loop_led ].actual_state	= STATE_LED_OFF;
    1982:	90 93 7a 02 	sts	0x027A, r25
		MesLeds[ loop_led ].flash_active	= FALSE;
    1986:	10 92 7b 02 	sts	0x027B, r1
		MesLeds[ loop_led ].time_on			= 0U;
    198a:	10 92 7d 02 	sts	0x027D, r1
    198e:	10 92 7c 02 	sts	0x027C, r1
		MesLeds[ loop_led ].cpt_time_on		= 0U;
    1992:	10 92 7f 02 	sts	0x027F, r1
    1996:	10 92 7e 02 	sts	0x027E, r1
		MesLeds[ loop_led ].time_off		= 0U;
    199a:	10 92 81 02 	sts	0x0281, r1
    199e:	10 92 80 02 	sts	0x0280, r1
		MesLeds[ loop_led ].cpt_time_off	= 0U;
    19a2:	10 92 83 02 	sts	0x0283, r1
    19a6:	10 92 82 02 	sts	0x0282, r1
		MesLeds[ loop_led ].nb_flash		= 0U;
    19aa:	10 92 84 02 	sts	0x0284, r1
		MesLeds[ loop_led ].cpt_nb_flash	= 0U;
    19ae:	10 92 85 02 	sts	0x0285, r1
		
		//on configure l'IO en sortie
		micIoPortsConfigureOutput(MesLeds[ loop_led ].pin_name);
    19b2:	0e 94 77 19 	call	0x32ee	; 0x32ee <micIoPortsConfigureOutput>
		//on init l'etat initial de la led
		if( MesLeds[ loop_led ].init_state == STATE_LED_ON )
    19b6:	80 91 79 02 	lds	r24, 0x0279
    19ba:	88 23       	and	r24, r24
    19bc:	09 f4       	brne	.+2      	; 0x19c0 <DrvLed+0x114>
    19be:	4a c0       	rjmp	.+148    	; 0x1a54 <DrvLed+0x1a8>
}

// Etiends la led
void DrvLedOff ( Int8U led_name )
{
	if( MesLeds[ led_name ].active_level == IO_LEVEL_VCC )
    19c0:	80 91 78 02 	lds	r24, 0x0278
    19c4:	81 30       	cpi	r24, 0x01	; 1
    19c6:	09 f4       	brne	.+2      	; 0x19ca <DrvLed+0x11e>
    19c8:	4a c0       	rjmp	.+148    	; 0x1a5e <DrvLed+0x1b2>
// Allume la led
void DrvLedOn ( Int8U led_name )
{
	if( MesLeds[ led_name ].active_level == IO_LEVEL_VCC )
	{
		micIoPortsConfigureToHighLevel(MesLeds[ led_name ].pin_name);
    19ca:	80 91 77 02 	lds	r24, 0x0277
    19ce:	0e 94 ce 18 	call	0x319c	; 0x319c <micIoPortsConfigureToHighLevel>
void DrvLed ( void )
{
	//on configure chaque LED
	for (Int8U loop_led = 0 ; loop_led < CONF_LED_NB ; loop_led++)
	{
		MesLeds[ loop_led ].pin_name		= led_pin_name[ loop_led ];
    19d2:	80 91 12 01 	lds	r24, 0x0112
    19d6:	80 93 86 02 	sts	0x0286, r24
		MesLeds[ loop_led ].active_level	= IO_LEVEL_GND;
    19da:	10 92 87 02 	sts	0x0287, r1
		MesLeds[ loop_led ].init_state		= STATE_LED_OFF;
    19de:	91 e0       	ldi	r25, 0x01	; 1
    19e0:	90 93 88 02 	sts	0x0288, r25
		MesLeds[ loop_led ].actual_state	= STATE_LED_OFF;
    19e4:	90 93 89 02 	sts	0x0289, r25
		MesLeds[ loop_led ].flash_active	= FALSE;
    19e8:	10 92 8a 02 	sts	0x028A, r1
		MesLeds[ loop_led ].time_on			= 0U;
    19ec:	10 92 8c 02 	sts	0x028C, r1
    19f0:	10 92 8b 02 	sts	0x028B, r1
		MesLeds[ loop_led ].cpt_time_on		= 0U;
    19f4:	10 92 8e 02 	sts	0x028E, r1
    19f8:	10 92 8d 02 	sts	0x028D, r1
		MesLeds[ loop_led ].time_off		= 0U;
    19fc:	10 92 90 02 	sts	0x0290, r1
    1a00:	10 92 8f 02 	sts	0x028F, r1
		MesLeds[ loop_led ].cpt_time_off	= 0U;
    1a04:	10 92 92 02 	sts	0x0292, r1
    1a08:	10 92 91 02 	sts	0x0291, r1
		MesLeds[ loop_led ].nb_flash		= 0U;
    1a0c:	10 92 93 02 	sts	0x0293, r1
		MesLeds[ loop_led ].cpt_nb_flash	= 0U;
    1a10:	10 92 94 02 	sts	0x0294, r1
		
		//on configure l'IO en sortie
		micIoPortsConfigureOutput(MesLeds[ loop_led ].pin_name);
    1a14:	0e 94 77 19 	call	0x32ee	; 0x32ee <micIoPortsConfigureOutput>
		//on init l'etat initial de la led
		if( MesLeds[ loop_led ].init_state == STATE_LED_ON )
    1a18:	80 91 88 02 	lds	r24, 0x0288
    1a1c:	88 23       	and	r24, r24
    1a1e:	89 f4       	brne	.+34     	; 0x1a42 <DrvLed+0x196>
}

// Allume la led
void DrvLedOn ( Int8U led_name )
{
	if( MesLeds[ led_name ].active_level == IO_LEVEL_VCC )
    1a20:	80 91 87 02 	lds	r24, 0x0287
    1a24:	81 30       	cpi	r24, 0x01	; 1
    1a26:	89 f0       	breq	.+34     	; 0x1a4a <DrvLed+0x19e>
// Etiends la led
void DrvLedOff ( Int8U led_name )
{
	if( MesLeds[ led_name ].active_level == IO_LEVEL_VCC )
	{
		micIoPortsConfigureToLowLevel(MesLeds[ led_name ].pin_name);
    1a28:	80 91 86 02 	lds	r24, 0x0286
    1a2c:	0e 94 d8 18 	call	0x31b0	; 0x31b0 <micIoPortsConfigureToLowLevel>
			DrvLedOff( loop_led );
		}
	}
	
	//on met le timer pour la fonction flash des leds
	DrvTimerPlayTimer( CONF_TIMER_LED, 1, E_TIMER_MODE_PERIODIC, DrvLedFlash_ISR );
    1a30:	81 e0       	ldi	r24, 0x01	; 1
    1a32:	61 e0       	ldi	r22, 0x01	; 1
    1a34:	70 e0       	ldi	r23, 0x00	; 0
    1a36:	41 e0       	ldi	r20, 0x01	; 1
    1a38:	22 e7       	ldi	r18, 0x72	; 114
    1a3a:	3a e0       	ldi	r19, 0x0A	; 10
    1a3c:	0e 94 e3 13 	call	0x27c6	; 0x27c6 <DrvTimerPlayTimer>
}
    1a40:	08 95       	ret
}

// Etiends la led
void DrvLedOff ( Int8U led_name )
{
	if( MesLeds[ led_name ].active_level == IO_LEVEL_VCC )
    1a42:	80 91 87 02 	lds	r24, 0x0287
    1a46:	81 30       	cpi	r24, 0x01	; 1
    1a48:	79 f3       	breq	.-34     	; 0x1a28 <DrvLed+0x17c>
	{
		micIoPortsConfigureToLowLevel(MesLeds[ led_name ].pin_name);
	}
	else
	{
		micIoPortsConfigureToHighLevel(MesLeds[ led_name ].pin_name);
    1a4a:	80 91 86 02 	lds	r24, 0x0286
    1a4e:	0e 94 ce 18 	call	0x319c	; 0x319c <micIoPortsConfigureToHighLevel>
    1a52:	ee cf       	rjmp	.-36     	; 0x1a30 <DrvLed+0x184>
}

// Allume la led
void DrvLedOn ( Int8U led_name )
{
	if( MesLeds[ led_name ].active_level == IO_LEVEL_VCC )
    1a54:	80 91 78 02 	lds	r24, 0x0278
    1a58:	81 30       	cpi	r24, 0x01	; 1
    1a5a:	09 f4       	brne	.+2      	; 0x1a5e <DrvLed+0x1b2>
    1a5c:	b6 cf       	rjmp	.-148    	; 0x19ca <DrvLed+0x11e>
	{
		micIoPortsConfigureToHighLevel(MesLeds[ led_name ].pin_name);
	}
	else
	{
		micIoPortsConfigureToLowLevel(MesLeds[ led_name ].pin_name);
    1a5e:	80 91 77 02 	lds	r24, 0x0277
    1a62:	0e 94 d8 18 	call	0x31b0	; 0x31b0 <micIoPortsConfigureToLowLevel>
    1a66:	b5 cf       	rjmp	.-150    	; 0x19d2 <DrvLed+0x126>
}

// Allume la led
void DrvLedOn ( Int8U led_name )
{
	if( MesLeds[ led_name ].active_level == IO_LEVEL_VCC )
    1a68:	80 91 69 02 	lds	r24, 0x0269
    1a6c:	81 30       	cpi	r24, 0x01	; 1
    1a6e:	09 f4       	brne	.+2      	; 0x1a72 <DrvLed+0x1c6>
    1a70:	7b cf       	rjmp	.-266    	; 0x1968 <DrvLed+0xbc>
	{
		micIoPortsConfigureToHighLevel(MesLeds[ led_name ].pin_name);
	}
	else
	{
		micIoPortsConfigureToLowLevel(MesLeds[ led_name ].pin_name);
    1a72:	80 91 68 02 	lds	r24, 0x0268
    1a76:	0e 94 d8 18 	call	0x31b0	; 0x31b0 <micIoPortsConfigureToLowLevel>
    1a7a:	7a cf       	rjmp	.-268    	; 0x1970 <DrvLed+0xc4>
}

// Allume la led
void DrvLedOn ( Int8U led_name )
{
	if( MesLeds[ led_name ].active_level == IO_LEVEL_VCC )
    1a7c:	80 91 5a 02 	lds	r24, 0x025A
    1a80:	81 30       	cpi	r24, 0x01	; 1
    1a82:	09 f4       	brne	.+2      	; 0x1a86 <DrvLed+0x1da>
    1a84:	40 cf       	rjmp	.-384    	; 0x1906 <DrvLed+0x5a>
	{
		micIoPortsConfigureToHighLevel(MesLeds[ led_name ].pin_name);
	}
	else
	{
		micIoPortsConfigureToLowLevel(MesLeds[ led_name ].pin_name);
    1a86:	80 91 59 02 	lds	r24, 0x0259
    1a8a:	0e 94 d8 18 	call	0x31b0	; 0x31b0 <micIoPortsConfigureToLowLevel>
    1a8e:	3f cf       	rjmp	.-386    	; 0x190e <DrvLed+0x62>

00001a90 <DrvLedOn>:
}

// Allume la led
void DrvLedOn ( Int8U led_name )
{
	if( MesLeds[ led_name ].active_level == IO_LEVEL_VCC )
    1a90:	90 e0       	ldi	r25, 0x00	; 0
    1a92:	9c 01       	movw	r18, r24
    1a94:	22 0f       	add	r18, r18
    1a96:	33 1f       	adc	r19, r19
    1a98:	28 0f       	add	r18, r24
    1a9a:	39 1f       	adc	r19, r25
    1a9c:	f9 01       	movw	r30, r18
    1a9e:	ee 0f       	add	r30, r30
    1aa0:	ff 1f       	adc	r31, r31
    1aa2:	ee 0f       	add	r30, r30
    1aa4:	ff 1f       	adc	r31, r31
    1aa6:	e2 0f       	add	r30, r18
    1aa8:	f3 1f       	adc	r31, r19
    1aaa:	e7 5a       	subi	r30, 0xA7	; 167
    1aac:	fd 4f       	sbci	r31, 0xFD	; 253
    1aae:	81 81       	ldd	r24, Z+1	; 0x01
    1ab0:	81 30       	cpi	r24, 0x01	; 1
    1ab2:	21 f0       	breq	.+8      	; 0x1abc <DrvLedOn+0x2c>
	{
		micIoPortsConfigureToHighLevel(MesLeds[ led_name ].pin_name);
	}
	else
	{
		micIoPortsConfigureToLowLevel(MesLeds[ led_name ].pin_name);
    1ab4:	80 81       	ld	r24, Z
    1ab6:	0e 94 d8 18 	call	0x31b0	; 0x31b0 <micIoPortsConfigureToLowLevel>
    1aba:	08 95       	ret
// Allume la led
void DrvLedOn ( Int8U led_name )
{
	if( MesLeds[ led_name ].active_level == IO_LEVEL_VCC )
	{
		micIoPortsConfigureToHighLevel(MesLeds[ led_name ].pin_name);
    1abc:	80 81       	ld	r24, Z
    1abe:	0e 94 ce 18 	call	0x319c	; 0x319c <micIoPortsConfigureToHighLevel>
    1ac2:	08 95       	ret

00001ac4 <DrvLedOff>:
}

// Etiends la led
void DrvLedOff ( Int8U led_name )
{
	if( MesLeds[ led_name ].active_level == IO_LEVEL_VCC )
    1ac4:	90 e0       	ldi	r25, 0x00	; 0
    1ac6:	9c 01       	movw	r18, r24
    1ac8:	22 0f       	add	r18, r18
    1aca:	33 1f       	adc	r19, r19
    1acc:	28 0f       	add	r18, r24
    1ace:	39 1f       	adc	r19, r25
    1ad0:	f9 01       	movw	r30, r18
    1ad2:	ee 0f       	add	r30, r30
    1ad4:	ff 1f       	adc	r31, r31
    1ad6:	ee 0f       	add	r30, r30
    1ad8:	ff 1f       	adc	r31, r31
    1ada:	e2 0f       	add	r30, r18
    1adc:	f3 1f       	adc	r31, r19
    1ade:	e7 5a       	subi	r30, 0xA7	; 167
    1ae0:	fd 4f       	sbci	r31, 0xFD	; 253
    1ae2:	81 81       	ldd	r24, Z+1	; 0x01
    1ae4:	81 30       	cpi	r24, 0x01	; 1
    1ae6:	21 f0       	breq	.+8      	; 0x1af0 <DrvLedOff+0x2c>
	{
		micIoPortsConfigureToLowLevel(MesLeds[ led_name ].pin_name);
	}
	else
	{
		micIoPortsConfigureToHighLevel(MesLeds[ led_name ].pin_name);
    1ae8:	80 81       	ld	r24, Z
    1aea:	0e 94 ce 18 	call	0x319c	; 0x319c <micIoPortsConfigureToHighLevel>
    1aee:	08 95       	ret
// Etiends la led
void DrvLedOff ( Int8U led_name )
{
	if( MesLeds[ led_name ].active_level == IO_LEVEL_VCC )
	{
		micIoPortsConfigureToLowLevel(MesLeds[ led_name ].pin_name);
    1af0:	80 81       	ld	r24, Z
    1af2:	0e 94 d8 18 	call	0x31b0	; 0x31b0 <micIoPortsConfigureToLowLevel>
    1af6:	08 95       	ret

00001af8 <DrvLedToggle>:
}

// Toggle la led
void DrvLedToggle ( Int8U led_name )
{
	micIoPortsConfigureToToggleLevel(MesLeds[ led_name ].pin_name);
    1af8:	90 e0       	ldi	r25, 0x00	; 0
    1afa:	9c 01       	movw	r18, r24
    1afc:	22 0f       	add	r18, r18
    1afe:	33 1f       	adc	r19, r19
    1b00:	28 0f       	add	r18, r24
    1b02:	39 1f       	adc	r19, r25
    1b04:	f9 01       	movw	r30, r18
    1b06:	ee 0f       	add	r30, r30
    1b08:	ff 1f       	adc	r31, r31
    1b0a:	ee 0f       	add	r30, r30
    1b0c:	ff 1f       	adc	r31, r31
    1b0e:	e2 0f       	add	r30, r18
    1b10:	f3 1f       	adc	r31, r19
    1b12:	e7 5a       	subi	r30, 0xA7	; 167
    1b14:	fd 4f       	sbci	r31, 0xFD	; 253
    1b16:	80 81       	ld	r24, Z
    1b18:	0e 94 17 18 	call	0x302e	; 0x302e <micIoPortsConfigureToToggleLevel>
}
    1b1c:	08 95       	ret

00001b1e <DrvLedFlash>:

// Flash la led
void DrvLedFlash ( Int8U led_name, Int8U nb_flash, Int16U time_on, Int16U time_off )
{
	MesLeds[ led_name ].time_on			= time_on;
    1b1e:	90 e0       	ldi	r25, 0x00	; 0
    1b20:	dc 01       	movw	r26, r24
    1b22:	aa 0f       	add	r26, r26
    1b24:	bb 1f       	adc	r27, r27
    1b26:	a8 0f       	add	r26, r24
    1b28:	b9 1f       	adc	r27, r25
    1b2a:	fd 01       	movw	r30, r26
    1b2c:	ee 0f       	add	r30, r30
    1b2e:	ff 1f       	adc	r31, r31
    1b30:	ee 0f       	add	r30, r30
    1b32:	ff 1f       	adc	r31, r31
    1b34:	ea 0f       	add	r30, r26
    1b36:	fb 1f       	adc	r31, r27
    1b38:	e7 5a       	subi	r30, 0xA7	; 167
    1b3a:	fd 4f       	sbci	r31, 0xFD	; 253
    1b3c:	56 83       	std	Z+6, r21	; 0x06
    1b3e:	45 83       	std	Z+5, r20	; 0x05
	MesLeds[ led_name ].cpt_time_on		= 0U;
    1b40:	10 86       	std	Z+8, r1	; 0x08
    1b42:	17 82       	std	Z+7, r1	; 0x07
	MesLeds[ led_name ].time_off		= time_off;
    1b44:	32 87       	std	Z+10, r19	; 0x0a
    1b46:	21 87       	std	Z+9, r18	; 0x09
	MesLeds[ led_name ].cpt_time_off	= 0U;
    1b48:	14 86       	std	Z+12, r1	; 0x0c
    1b4a:	13 86       	std	Z+11, r1	; 0x0b
	MesLeds[ led_name ].nb_flash		= nb_flash;
    1b4c:	65 87       	std	Z+13, r22	; 0x0d
	MesLeds[ led_name ].cpt_nb_flash	= 0U;
    1b4e:	16 86       	std	Z+14, r1	; 0x0e
	MesLeds[ led_name ].flash_active	= TRUE;
    1b50:	81 e0       	ldi	r24, 0x01	; 1
    1b52:	84 83       	std	Z+4, r24	; 0x04
}
    1b54:	08 95       	ret

00001b56 <DrvServo>:
/////////////////////////////////////////PUBLIC FUNCTIONS/////////////////////////////////////////
// Init du Drv servo 
void DrvServo( void )
{
	//on init le timer 1 tick = 1us
	TCCR1A	= 0;             
    1b56:	10 92 80 00 	sts	0x0080, r1
    TCCR1B	|= _BV(CS11);     
    1b5a:	e1 e8       	ldi	r30, 0x81	; 129
    1b5c:	f0 e0       	ldi	r31, 0x00	; 0
    1b5e:	80 81       	ld	r24, Z
    1b60:	82 60       	ori	r24, 0x02	; 2
    1b62:	80 83       	st	Z, r24
    TCNT1	= 0;               
    1b64:	10 92 85 00 	sts	0x0085, r1
    1b68:	10 92 84 00 	sts	0x0084, r1
    TIFR1	|= _BV(OCF1A);     
    1b6c:	b1 9a       	sbi	0x16, 1	; 22
    TIMSK1	|= _BV(OCIE1A) ;
    1b6e:	ef e6       	ldi	r30, 0x6F	; 111
    1b70:	f0 e0       	ldi	r31, 0x00	; 0
    1b72:	80 81       	ld	r24, Z
    1b74:	82 60       	ori	r24, 0x02	; 2
    1b76:	80 83       	st	Z, r24
}
    1b78:	08 95       	ret

00001b7a <DrvAddServo>:

// Ajout d'un Drv Servo 
void DrvAddServo( EIoPin pin , Int16U angle) 
{
    1b7a:	1f 93       	push	r17
    1b7c:	48 2f       	mov	r20, r24
	MesServos[ nb_servo_active ].active			= TRUE;
    1b7e:	50 91 e8 01 	lds	r21, 0x01E8
    1b82:	2c e5       	ldi	r18, 0x5C	; 92
    1b84:	31 e0       	ldi	r19, 0x01	; 1
    1b86:	85 2f       	mov	r24, r21
    1b88:	90 e0       	ldi	r25, 0x00	; 0
    1b8a:	fc 01       	movw	r30, r24
    1b8c:	ee 0f       	add	r30, r30
    1b8e:	ff 1f       	adc	r31, r31
    1b90:	88 0f       	add	r24, r24
    1b92:	99 1f       	adc	r25, r25
    1b94:	88 0f       	add	r24, r24
    1b96:	99 1f       	adc	r25, r25
    1b98:	88 0f       	add	r24, r24
    1b9a:	99 1f       	adc	r25, r25
    1b9c:	e8 0f       	add	r30, r24
    1b9e:	f9 1f       	adc	r31, r25
    1ba0:	e2 0f       	add	r30, r18
    1ba2:	f3 1f       	adc	r31, r19
    1ba4:	81 e0       	ldi	r24, 0x01	; 1
    1ba6:	81 87       	std	Z+9, r24	; 0x09
	MesServos[ nb_servo_active ].moving			= FALSE;
    1ba8:	50 91 e8 01 	lds	r21, 0x01E8
    1bac:	85 2f       	mov	r24, r21
    1bae:	90 e0       	ldi	r25, 0x00	; 0
    1bb0:	fc 01       	movw	r30, r24
    1bb2:	ee 0f       	add	r30, r30
    1bb4:	ff 1f       	adc	r31, r31
    1bb6:	88 0f       	add	r24, r24
    1bb8:	99 1f       	adc	r25, r25
    1bba:	88 0f       	add	r24, r24
    1bbc:	99 1f       	adc	r25, r25
    1bbe:	88 0f       	add	r24, r24
    1bc0:	99 1f       	adc	r25, r25
    1bc2:	e8 0f       	add	r30, r24
    1bc4:	f9 1f       	adc	r31, r25
    1bc6:	e2 0f       	add	r30, r18
    1bc8:	f3 1f       	adc	r31, r19
    1bca:	10 86       	std	Z+8, r1	; 0x08
	MesServos[ nb_servo_active ].pin			= pin;
    1bcc:	50 91 e8 01 	lds	r21, 0x01E8
    1bd0:	85 2f       	mov	r24, r21
    1bd2:	90 e0       	ldi	r25, 0x00	; 0
    1bd4:	fc 01       	movw	r30, r24
    1bd6:	ee 0f       	add	r30, r30
    1bd8:	ff 1f       	adc	r31, r31
    1bda:	88 0f       	add	r24, r24
    1bdc:	99 1f       	adc	r25, r25
    1bde:	88 0f       	add	r24, r24
    1be0:	99 1f       	adc	r25, r25
    1be2:	88 0f       	add	r24, r24
    1be4:	99 1f       	adc	r25, r25
    1be6:	e8 0f       	add	r30, r24
    1be8:	f9 1f       	adc	r31, r25
    1bea:	e2 0f       	add	r30, r18
    1bec:	f3 1f       	adc	r31, r19
    1bee:	40 83       	st	Z, r20
	MesServos[ nb_servo_active ].ticks			= ConvertAngleToTick(angle);
    1bf0:	10 91 e8 01 	lds	r17, 0x01E8
    1bf4:	ee eb       	ldi	r30, 0xBE	; 190
    1bf6:	f0 e0       	ldi	r31, 0x00	; 0
    1bf8:	6e 9f       	mul	r22, r30
    1bfa:	c0 01       	movw	r24, r0
    1bfc:	6f 9f       	mul	r22, r31
    1bfe:	90 0d       	add	r25, r0
    1c00:	7e 9f       	mul	r23, r30
    1c02:	90 0d       	add	r25, r0
    1c04:	11 24       	eor	r1, r1
    1c06:	62 e1       	ldi	r22, 0x12	; 18
    1c08:	70 e0       	ldi	r23, 0x00	; 0
    1c0a:	0e 94 05 1f 	call	0x3e0a	; 0x3e0a <__udivmodhi4>
    1c0e:	60 57       	subi	r22, 0x70	; 112
    1c10:	7e 4f       	sbci	r23, 0xFE	; 254
    1c12:	66 0f       	add	r22, r22
    1c14:	77 1f       	adc	r23, r23
    1c16:	81 2f       	mov	r24, r17
    1c18:	90 e0       	ldi	r25, 0x00	; 0
    1c1a:	fc 01       	movw	r30, r24
    1c1c:	ee 0f       	add	r30, r30
    1c1e:	ff 1f       	adc	r31, r31
    1c20:	88 0f       	add	r24, r24
    1c22:	99 1f       	adc	r25, r25
    1c24:	88 0f       	add	r24, r24
    1c26:	99 1f       	adc	r25, r25
    1c28:	88 0f       	add	r24, r24
    1c2a:	99 1f       	adc	r25, r25
    1c2c:	e8 0f       	add	r30, r24
    1c2e:	f9 1f       	adc	r31, r25
    1c30:	e2 0f       	add	r30, r18
    1c32:	f3 1f       	adc	r31, r19
    1c34:	72 83       	std	Z+2, r23	; 0x02
    1c36:	61 83       	std	Z+1, r22	; 0x01
	MesServos[ nb_servo_active ].ticks_consigne = MesServos[ nb_servo_active ].ticks;
    1c38:	50 91 e8 01 	lds	r21, 0x01E8
    1c3c:	60 91 e8 01 	lds	r22, 0x01E8
    1c40:	86 2f       	mov	r24, r22
    1c42:	90 e0       	ldi	r25, 0x00	; 0
    1c44:	fc 01       	movw	r30, r24
    1c46:	ee 0f       	add	r30, r30
    1c48:	ff 1f       	adc	r31, r31
    1c4a:	88 0f       	add	r24, r24
    1c4c:	99 1f       	adc	r25, r25
    1c4e:	88 0f       	add	r24, r24
    1c50:	99 1f       	adc	r25, r25
    1c52:	88 0f       	add	r24, r24
    1c54:	99 1f       	adc	r25, r25
    1c56:	e8 0f       	add	r30, r24
    1c58:	f9 1f       	adc	r31, r25
    1c5a:	e2 0f       	add	r30, r18
    1c5c:	f3 1f       	adc	r31, r19
    1c5e:	61 81       	ldd	r22, Z+1	; 0x01
    1c60:	72 81       	ldd	r23, Z+2	; 0x02
    1c62:	85 2f       	mov	r24, r21
    1c64:	90 e0       	ldi	r25, 0x00	; 0
    1c66:	fc 01       	movw	r30, r24
    1c68:	ee 0f       	add	r30, r30
    1c6a:	ff 1f       	adc	r31, r31
    1c6c:	88 0f       	add	r24, r24
    1c6e:	99 1f       	adc	r25, r25
    1c70:	88 0f       	add	r24, r24
    1c72:	99 1f       	adc	r25, r25
    1c74:	88 0f       	add	r24, r24
    1c76:	99 1f       	adc	r25, r25
    1c78:	e8 0f       	add	r30, r24
    1c7a:	f9 1f       	adc	r31, r25
    1c7c:	e2 0f       	add	r30, r18
    1c7e:	f3 1f       	adc	r31, r19
    1c80:	74 83       	std	Z+4, r23	; 0x04
    1c82:	63 83       	std	Z+3, r22	; 0x03
	MesServos[ nb_servo_active ].vitesse		= E_SERVO_VITESSE_0;
    1c84:	50 91 e8 01 	lds	r21, 0x01E8
    1c88:	85 2f       	mov	r24, r21
    1c8a:	90 e0       	ldi	r25, 0x00	; 0
    1c8c:	fc 01       	movw	r30, r24
    1c8e:	ee 0f       	add	r30, r30
    1c90:	ff 1f       	adc	r31, r31
    1c92:	88 0f       	add	r24, r24
    1c94:	99 1f       	adc	r25, r25
    1c96:	88 0f       	add	r24, r24
    1c98:	99 1f       	adc	r25, r25
    1c9a:	88 0f       	add	r24, r24
    1c9c:	99 1f       	adc	r25, r25
    1c9e:	e8 0f       	add	r30, r24
    1ca0:	f9 1f       	adc	r31, r25
    1ca2:	e2 0f       	add	r30, r18
    1ca4:	f3 1f       	adc	r31, r19
    1ca6:	84 e6       	ldi	r24, 0x64	; 100
    1ca8:	85 83       	std	Z+5, r24	; 0x05
	
	micIoPortsConfigureOutput( pin );
    1caa:	84 2f       	mov	r24, r20
    1cac:	0e 94 77 19 	call	0x32ee	; 0x32ee <micIoPortsConfigureOutput>
	nb_servo_active++;
    1cb0:	80 91 e8 01 	lds	r24, 0x01E8
    1cb4:	8f 5f       	subi	r24, 0xFF	; 255
    1cb6:	80 93 e8 01 	sts	0x01E8, r24
}
    1cba:	1f 91       	pop	r17
    1cbc:	08 95       	ret

00001cbe <DrvDeleteServo>:

// Ajout d'un Drv Servo 
void DrvDeleteServo( EIoPin pin ) 
{
    1cbe:	1f 93       	push	r17
	Int8U remove_index_servo = 0xFF;
	
	for(Int8U loop_servo = 0U ; loop_servo < nb_servo_active ; loop_servo++)
    1cc0:	90 91 e8 01 	lds	r25, 0x01E8
    1cc4:	99 23       	and	r25, r25
    1cc6:	09 f4       	brne	.+2      	; 0x1cca <DrvDeleteServo+0xc>
    1cc8:	64 c0       	rjmp	.+200    	; 0x1d92 <DrvDeleteServo+0xd4>
    1cca:	90 e0       	ldi	r25, 0x00	; 0
    1ccc:	1f ef       	ldi	r17, 0xFF	; 255
    1cce:	13 c0       	rjmp	.+38     	; 0x1cf6 <DrvDeleteServo+0x38>
	{
		if(MesServos[ nb_servo_active ].pin == pin)
		{
			remove_index_servo = loop_servo;
		}
		if( loop_servo >= remove_index_servo ) 
    1cd0:	91 17       	cp	r25, r17
    1cd2:	30 f5       	brcc	.+76     	; 0x1d20 <DrvDeleteServo+0x62>
    1cd4:	49 2f       	mov	r20, r25
    1cd6:	50 e0       	ldi	r21, 0x00	; 0
		{
			MesServos[ loop_servo ] = MesServos[ loop_servo + 1 ];
		}
		if( loop_servo == (nb_servo_active - 1U) ) 
    1cd8:	20 91 e8 01 	lds	r18, 0x01E8
    1cdc:	30 e0       	ldi	r19, 0x00	; 0
    1cde:	21 50       	subi	r18, 0x01	; 1
    1ce0:	30 40       	sbci	r19, 0x00	; 0
    1ce2:	42 17       	cp	r20, r18
    1ce4:	53 07       	cpc	r21, r19
    1ce6:	09 f4       	brne	.+2      	; 0x1cea <DrvDeleteServo+0x2c>
    1ce8:	49 c0       	rjmp	.+146    	; 0x1d7c <DrvDeleteServo+0xbe>
// Ajout d'un Drv Servo 
void DrvDeleteServo( EIoPin pin ) 
{
	Int8U remove_index_servo = 0xFF;
	
	for(Int8U loop_servo = 0U ; loop_servo < nb_servo_active ; loop_servo++)
    1cea:	9f 5f       	subi	r25, 0xFF	; 255
    1cec:	20 91 e8 01 	lds	r18, 0x01E8
    1cf0:	92 17       	cp	r25, r18
    1cf2:	08 f0       	brcs	.+2      	; 0x1cf6 <DrvDeleteServo+0x38>
    1cf4:	4e c0       	rjmp	.+156    	; 0x1d92 <DrvDeleteServo+0xd4>
	{
		if(MesServos[ nb_servo_active ].pin == pin)
    1cf6:	40 91 e8 01 	lds	r20, 0x01E8
    1cfa:	24 2f       	mov	r18, r20
    1cfc:	30 e0       	ldi	r19, 0x00	; 0
    1cfe:	f9 01       	movw	r30, r18
    1d00:	ee 0f       	add	r30, r30
    1d02:	ff 1f       	adc	r31, r31
    1d04:	22 0f       	add	r18, r18
    1d06:	33 1f       	adc	r19, r19
    1d08:	22 0f       	add	r18, r18
    1d0a:	33 1f       	adc	r19, r19
    1d0c:	22 0f       	add	r18, r18
    1d0e:	33 1f       	adc	r19, r19
    1d10:	e2 0f       	add	r30, r18
    1d12:	f3 1f       	adc	r31, r19
    1d14:	e4 5a       	subi	r30, 0xA4	; 164
    1d16:	fe 4f       	sbci	r31, 0xFE	; 254
    1d18:	20 81       	ld	r18, Z
    1d1a:	28 17       	cp	r18, r24
    1d1c:	c9 f6       	brne	.-78     	; 0x1cd0 <DrvDeleteServo+0x12>
    1d1e:	19 2f       	mov	r17, r25
		{
			remove_index_servo = loop_servo;
		}
		if( loop_servo >= remove_index_servo ) 
		{
			MesServos[ loop_servo ] = MesServos[ loop_servo + 1 ];
    1d20:	49 2f       	mov	r20, r25
    1d22:	50 e0       	ldi	r21, 0x00	; 0
    1d24:	9a 01       	movw	r18, r20
    1d26:	2f 5f       	subi	r18, 0xFF	; 255
    1d28:	3f 4f       	sbci	r19, 0xFF	; 255
    1d2a:	da 01       	movw	r26, r20
    1d2c:	aa 0f       	add	r26, r26
    1d2e:	bb 1f       	adc	r27, r27
    1d30:	ba 01       	movw	r22, r20
    1d32:	66 0f       	add	r22, r22
    1d34:	77 1f       	adc	r23, r23
    1d36:	66 0f       	add	r22, r22
    1d38:	77 1f       	adc	r23, r23
    1d3a:	66 0f       	add	r22, r22
    1d3c:	77 1f       	adc	r23, r23
    1d3e:	a6 0f       	add	r26, r22
    1d40:	b7 1f       	adc	r27, r23
    1d42:	f9 01       	movw	r30, r18
    1d44:	ee 0f       	add	r30, r30
    1d46:	ff 1f       	adc	r31, r31
    1d48:	22 0f       	add	r18, r18
    1d4a:	33 1f       	adc	r19, r19
    1d4c:	22 0f       	add	r18, r18
    1d4e:	33 1f       	adc	r19, r19
    1d50:	22 0f       	add	r18, r18
    1d52:	33 1f       	adc	r19, r19
    1d54:	e2 0f       	add	r30, r18
    1d56:	f3 1f       	adc	r31, r19
    1d58:	a4 5a       	subi	r26, 0xA4	; 164
    1d5a:	be 4f       	sbci	r27, 0xFE	; 254
    1d5c:	e4 5a       	subi	r30, 0xA4	; 164
    1d5e:	fe 4f       	sbci	r31, 0xFE	; 254
    1d60:	2a e0       	ldi	r18, 0x0A	; 10
    1d62:	01 90       	ld	r0, Z+
    1d64:	0d 92       	st	X+, r0
    1d66:	21 50       	subi	r18, 0x01	; 1
    1d68:	e1 f7       	brne	.-8      	; 0x1d62 <DrvDeleteServo+0xa4>
		}
		if( loop_servo == (nb_servo_active - 1U) ) 
    1d6a:	20 91 e8 01 	lds	r18, 0x01E8
    1d6e:	30 e0       	ldi	r19, 0x00	; 0
    1d70:	21 50       	subi	r18, 0x01	; 1
    1d72:	30 40       	sbci	r19, 0x00	; 0
    1d74:	42 17       	cp	r20, r18
    1d76:	53 07       	cpc	r21, r19
    1d78:	09 f0       	breq	.+2      	; 0x1d7c <DrvDeleteServo+0xbe>
    1d7a:	b7 cf       	rjmp	.-146    	; 0x1cea <DrvDeleteServo+0x2c>
		{
			nb_servo_active--;
    1d7c:	20 91 e8 01 	lds	r18, 0x01E8
    1d80:	21 50       	subi	r18, 0x01	; 1
    1d82:	20 93 e8 01 	sts	0x01E8, r18
// Ajout d'un Drv Servo 
void DrvDeleteServo( EIoPin pin ) 
{
	Int8U remove_index_servo = 0xFF;
	
	for(Int8U loop_servo = 0U ; loop_servo < nb_servo_active ; loop_servo++)
    1d86:	9f 5f       	subi	r25, 0xFF	; 255
    1d88:	20 91 e8 01 	lds	r18, 0x01E8
    1d8c:	92 17       	cp	r25, r18
    1d8e:	08 f4       	brcc	.+2      	; 0x1d92 <DrvDeleteServo+0xd4>
    1d90:	b2 cf       	rjmp	.-156    	; 0x1cf6 <DrvDeleteServo+0x38>
		if( loop_servo == (nb_servo_active - 1U) ) 
		{
			nb_servo_active--;
		}
	}
}
    1d92:	1f 91       	pop	r17
    1d94:	08 95       	ret

00001d96 <DrvServoMoveToPosition>:


// bouge le servo a la position voulu en angle
Boolean DrvServoMoveToPosition( Int8U index, Int16U angle, EServoVitesse vitesse)
{
    1d96:	28 2f       	mov	r18, r24
	Boolean ret = FALSE; 
	
	if(MesServos[ index ].moving != TRUE)
    1d98:	90 e0       	ldi	r25, 0x00	; 0
    1d9a:	fc 01       	movw	r30, r24
    1d9c:	ee 0f       	add	r30, r30
    1d9e:	ff 1f       	adc	r31, r31
    1da0:	88 0f       	add	r24, r24
    1da2:	99 1f       	adc	r25, r25
    1da4:	88 0f       	add	r24, r24
    1da6:	99 1f       	adc	r25, r25
    1da8:	88 0f       	add	r24, r24
    1daa:	99 1f       	adc	r25, r25
    1dac:	e8 0f       	add	r30, r24
    1dae:	f9 1f       	adc	r31, r25
    1db0:	e4 5a       	subi	r30, 0xA4	; 164
    1db2:	fe 4f       	sbci	r31, 0xFE	; 254
    1db4:	80 85       	ldd	r24, Z+8	; 0x08
    1db6:	81 30       	cpi	r24, 0x01	; 1
    1db8:	09 f4       	brne	.+2      	; 0x1dbc <DrvServoMoveToPosition+0x26>
    1dba:	01 c1       	rjmp	.+514    	; 0x1fbe <DrvServoMoveToPosition+0x228>
Boolean DrvServoDirectMoveToPosition( Int8U index, Int16U angle, EServoVitesse vitesse)
{
	Boolean ret = FALSE; 
	
	//consigne
	MesServos[ index ].ticks_consigne = ConvertAngleToTick(angle);
    1dbc:	ee eb       	ldi	r30, 0xBE	; 190
    1dbe:	f0 e0       	ldi	r31, 0x00	; 0
    1dc0:	6e 9f       	mul	r22, r30
    1dc2:	c0 01       	movw	r24, r0
    1dc4:	6f 9f       	mul	r22, r31
    1dc6:	90 0d       	add	r25, r0
    1dc8:	7e 9f       	mul	r23, r30
    1dca:	90 0d       	add	r25, r0
    1dcc:	11 24       	eor	r1, r1
    1dce:	62 e1       	ldi	r22, 0x12	; 18
    1dd0:	70 e0       	ldi	r23, 0x00	; 0
    1dd2:	0e 94 05 1f 	call	0x3e0a	; 0x3e0a <__udivmodhi4>
    1dd6:	60 57       	subi	r22, 0x70	; 112
    1dd8:	7e 4f       	sbci	r23, 0xFE	; 254
    1dda:	66 0f       	add	r22, r22
    1ddc:	77 1f       	adc	r23, r23
    1dde:	82 2f       	mov	r24, r18
    1de0:	90 e0       	ldi	r25, 0x00	; 0
    1de2:	fc 01       	movw	r30, r24
    1de4:	ee 0f       	add	r30, r30
    1de6:	ff 1f       	adc	r31, r31
    1de8:	88 0f       	add	r24, r24
    1dea:	99 1f       	adc	r25, r25
    1dec:	88 0f       	add	r24, r24
    1dee:	99 1f       	adc	r25, r25
    1df0:	88 0f       	add	r24, r24
    1df2:	99 1f       	adc	r25, r25
    1df4:	e8 0f       	add	r30, r24
    1df6:	f9 1f       	adc	r31, r25
    1df8:	e4 5a       	subi	r30, 0xA4	; 164
    1dfa:	fe 4f       	sbci	r31, 0xFE	; 254
    1dfc:	74 83       	std	Z+4, r23	; 0x04
    1dfe:	63 83       	std	Z+3, r22	; 0x03
	if( MesServos[ index ].ticks_consigne != MesServos[index].ticks )
    1e00:	82 2f       	mov	r24, r18
    1e02:	90 e0       	ldi	r25, 0x00	; 0
    1e04:	fc 01       	movw	r30, r24
    1e06:	ee 0f       	add	r30, r30
    1e08:	ff 1f       	adc	r31, r31
    1e0a:	88 0f       	add	r24, r24
    1e0c:	99 1f       	adc	r25, r25
    1e0e:	88 0f       	add	r24, r24
    1e10:	99 1f       	adc	r25, r25
    1e12:	88 0f       	add	r24, r24
    1e14:	99 1f       	adc	r25, r25
    1e16:	e8 0f       	add	r30, r24
    1e18:	f9 1f       	adc	r31, r25
    1e1a:	e4 5a       	subi	r30, 0xA4	; 164
    1e1c:	fe 4f       	sbci	r31, 0xFE	; 254
    1e1e:	63 81       	ldd	r22, Z+3	; 0x03
    1e20:	74 81       	ldd	r23, Z+4	; 0x04
    1e22:	82 2f       	mov	r24, r18
    1e24:	90 e0       	ldi	r25, 0x00	; 0
    1e26:	fc 01       	movw	r30, r24
    1e28:	ee 0f       	add	r30, r30
    1e2a:	ff 1f       	adc	r31, r31
    1e2c:	88 0f       	add	r24, r24
    1e2e:	99 1f       	adc	r25, r25
    1e30:	88 0f       	add	r24, r24
    1e32:	99 1f       	adc	r25, r25
    1e34:	88 0f       	add	r24, r24
    1e36:	99 1f       	adc	r25, r25
    1e38:	e8 0f       	add	r30, r24
    1e3a:	f9 1f       	adc	r31, r25
    1e3c:	e4 5a       	subi	r30, 0xA4	; 164
    1e3e:	fe 4f       	sbci	r31, 0xFE	; 254
    1e40:	81 81       	ldd	r24, Z+1	; 0x01
    1e42:	92 81       	ldd	r25, Z+2	; 0x02
    1e44:	68 17       	cp	r22, r24
    1e46:	79 07       	cpc	r23, r25
    1e48:	09 f4       	brne	.+2      	; 0x1e4c <DrvServoMoveToPosition+0xb6>
    1e4a:	de c0       	rjmp	.+444    	; 0x2008 <DrvServoMoveToPosition+0x272>
	{
		MesServos[ index ].vitesse	= vitesse;
    1e4c:	82 2f       	mov	r24, r18
    1e4e:	90 e0       	ldi	r25, 0x00	; 0
    1e50:	fc 01       	movw	r30, r24
    1e52:	ee 0f       	add	r30, r30
    1e54:	ff 1f       	adc	r31, r31
    1e56:	88 0f       	add	r24, r24
    1e58:	99 1f       	adc	r25, r25
    1e5a:	88 0f       	add	r24, r24
    1e5c:	99 1f       	adc	r25, r25
    1e5e:	88 0f       	add	r24, r24
    1e60:	99 1f       	adc	r25, r25
    1e62:	e8 0f       	add	r30, r24
    1e64:	f9 1f       	adc	r31, r25
    1e66:	e4 5a       	subi	r30, 0xA4	; 164
    1e68:	fe 4f       	sbci	r31, 0xFE	; 254
    1e6a:	45 83       	std	Z+5, r20	; 0x05
		MesServos[ index ].moving	= TRUE;		
    1e6c:	82 2f       	mov	r24, r18
    1e6e:	90 e0       	ldi	r25, 0x00	; 0
    1e70:	fc 01       	movw	r30, r24
    1e72:	ee 0f       	add	r30, r30
    1e74:	ff 1f       	adc	r31, r31
    1e76:	88 0f       	add	r24, r24
    1e78:	99 1f       	adc	r25, r25
    1e7a:	88 0f       	add	r24, r24
    1e7c:	99 1f       	adc	r25, r25
    1e7e:	88 0f       	add	r24, r24
    1e80:	99 1f       	adc	r25, r25
    1e82:	e8 0f       	add	r30, r24
    1e84:	f9 1f       	adc	r31, r25
    1e86:	e4 5a       	subi	r30, 0xA4	; 164
    1e88:	fe 4f       	sbci	r31, 0xFE	; 254
    1e8a:	81 e0       	ldi	r24, 0x01	; 1
    1e8c:	80 87       	std	Z+8, r24	; 0x08
		//calcul de la vitesse d'incrementation pour atteindre la consigne
		if( MesServos[index].ticks < MesServos[index].ticks_consigne )
    1e8e:	82 2f       	mov	r24, r18
    1e90:	90 e0       	ldi	r25, 0x00	; 0
    1e92:	fc 01       	movw	r30, r24
    1e94:	ee 0f       	add	r30, r30
    1e96:	ff 1f       	adc	r31, r31
    1e98:	88 0f       	add	r24, r24
    1e9a:	99 1f       	adc	r25, r25
    1e9c:	88 0f       	add	r24, r24
    1e9e:	99 1f       	adc	r25, r25
    1ea0:	88 0f       	add	r24, r24
    1ea2:	99 1f       	adc	r25, r25
    1ea4:	e8 0f       	add	r30, r24
    1ea6:	f9 1f       	adc	r31, r25
    1ea8:	e4 5a       	subi	r30, 0xA4	; 164
    1eaa:	fe 4f       	sbci	r31, 0xFE	; 254
    1eac:	41 81       	ldd	r20, Z+1	; 0x01
    1eae:	52 81       	ldd	r21, Z+2	; 0x02
    1eb0:	82 2f       	mov	r24, r18
    1eb2:	90 e0       	ldi	r25, 0x00	; 0
    1eb4:	fc 01       	movw	r30, r24
    1eb6:	ee 0f       	add	r30, r30
    1eb8:	ff 1f       	adc	r31, r31
    1eba:	88 0f       	add	r24, r24
    1ebc:	99 1f       	adc	r25, r25
    1ebe:	88 0f       	add	r24, r24
    1ec0:	99 1f       	adc	r25, r25
    1ec2:	88 0f       	add	r24, r24
    1ec4:	99 1f       	adc	r25, r25
    1ec6:	e8 0f       	add	r30, r24
    1ec8:	f9 1f       	adc	r31, r25
    1eca:	e4 5a       	subi	r30, 0xA4	; 164
    1ecc:	fe 4f       	sbci	r31, 0xFE	; 254
    1ece:	83 81       	ldd	r24, Z+3	; 0x03
    1ed0:	94 81       	ldd	r25, Z+4	; 0x04
    1ed2:	48 17       	cp	r20, r24
    1ed4:	59 07       	cpc	r21, r25
    1ed6:	08 f0       	brcs	.+2      	; 0x1eda <DrvServoMoveToPosition+0x144>
    1ed8:	74 c0       	rjmp	.+232    	; 0x1fc2 <DrvServoMoveToPosition+0x22c>
		{
			MesServos[index].increment = ( MesServos[index].ticks_consigne - MesServos[index].ticks ) / (12U + MesServos[ index ].vitesse);
    1eda:	82 2f       	mov	r24, r18
    1edc:	90 e0       	ldi	r25, 0x00	; 0
    1ede:	fc 01       	movw	r30, r24
    1ee0:	ee 0f       	add	r30, r30
    1ee2:	ff 1f       	adc	r31, r31
    1ee4:	88 0f       	add	r24, r24
    1ee6:	99 1f       	adc	r25, r25
    1ee8:	88 0f       	add	r24, r24
    1eea:	99 1f       	adc	r25, r25
    1eec:	88 0f       	add	r24, r24
    1eee:	99 1f       	adc	r25, r25
    1ef0:	e8 0f       	add	r30, r24
    1ef2:	f9 1f       	adc	r31, r25
    1ef4:	e4 5a       	subi	r30, 0xA4	; 164
    1ef6:	fe 4f       	sbci	r31, 0xFE	; 254
    1ef8:	83 81       	ldd	r24, Z+3	; 0x03
    1efa:	94 81       	ldd	r25, Z+4	; 0x04
    1efc:	42 2f       	mov	r20, r18
    1efe:	50 e0       	ldi	r21, 0x00	; 0
    1f00:	fa 01       	movw	r30, r20
    1f02:	ee 0f       	add	r30, r30
    1f04:	ff 1f       	adc	r31, r31
    1f06:	44 0f       	add	r20, r20
    1f08:	55 1f       	adc	r21, r21
    1f0a:	44 0f       	add	r20, r20
    1f0c:	55 1f       	adc	r21, r21
    1f0e:	44 0f       	add	r20, r20
    1f10:	55 1f       	adc	r21, r21
    1f12:	e4 0f       	add	r30, r20
    1f14:	f5 1f       	adc	r31, r21
    1f16:	e4 5a       	subi	r30, 0xA4	; 164
    1f18:	fe 4f       	sbci	r31, 0xFE	; 254
    1f1a:	a1 81       	ldd	r26, Z+1	; 0x01
    1f1c:	b2 81       	ldd	r27, Z+2	; 0x02
		}
		else
		{
			MesServos[index].increment = ( MesServos[index].ticks - MesServos[index].ticks_consigne ) / (12U + MesServos[ index ].vitesse);
    1f1e:	42 2f       	mov	r20, r18
    1f20:	50 e0       	ldi	r21, 0x00	; 0
    1f22:	fa 01       	movw	r30, r20
    1f24:	ee 0f       	add	r30, r30
    1f26:	ff 1f       	adc	r31, r31
    1f28:	44 0f       	add	r20, r20
    1f2a:	55 1f       	adc	r21, r21
    1f2c:	44 0f       	add	r20, r20
    1f2e:	55 1f       	adc	r21, r21
    1f30:	44 0f       	add	r20, r20
    1f32:	55 1f       	adc	r21, r21
    1f34:	e4 0f       	add	r30, r20
    1f36:	f5 1f       	adc	r31, r21
    1f38:	e4 5a       	subi	r30, 0xA4	; 164
    1f3a:	fe 4f       	sbci	r31, 0xFE	; 254
    1f3c:	65 81       	ldd	r22, Z+5	; 0x05
    1f3e:	8a 1b       	sub	r24, r26
    1f40:	9b 0b       	sbc	r25, r27
    1f42:	70 e0       	ldi	r23, 0x00	; 0
    1f44:	64 5f       	subi	r22, 0xF4	; 244
    1f46:	7f 4f       	sbci	r23, 0xFF	; 255
    1f48:	0e 94 05 1f 	call	0x3e0a	; 0x3e0a <__udivmodhi4>
    1f4c:	82 2f       	mov	r24, r18
    1f4e:	90 e0       	ldi	r25, 0x00	; 0
    1f50:	fc 01       	movw	r30, r24
    1f52:	ee 0f       	add	r30, r30
    1f54:	ff 1f       	adc	r31, r31
    1f56:	88 0f       	add	r24, r24
    1f58:	99 1f       	adc	r25, r25
    1f5a:	88 0f       	add	r24, r24
    1f5c:	99 1f       	adc	r25, r25
    1f5e:	88 0f       	add	r24, r24
    1f60:	99 1f       	adc	r25, r25
    1f62:	e8 0f       	add	r30, r24
    1f64:	f9 1f       	adc	r31, r25
    1f66:	e4 5a       	subi	r30, 0xA4	; 164
    1f68:	fe 4f       	sbci	r31, 0xFE	; 254
    1f6a:	77 83       	std	Z+7, r23	; 0x07
    1f6c:	66 83       	std	Z+6, r22	; 0x06
		}
			
		//si le calcul renvoit 0 on le met a 1
		if(MesServos[index].increment == 0U)
    1f6e:	82 2f       	mov	r24, r18
    1f70:	90 e0       	ldi	r25, 0x00	; 0
    1f72:	fc 01       	movw	r30, r24
    1f74:	ee 0f       	add	r30, r30
    1f76:	ff 1f       	adc	r31, r31
    1f78:	88 0f       	add	r24, r24
    1f7a:	99 1f       	adc	r25, r25
    1f7c:	88 0f       	add	r24, r24
    1f7e:	99 1f       	adc	r25, r25
    1f80:	88 0f       	add	r24, r24
    1f82:	99 1f       	adc	r25, r25
    1f84:	e8 0f       	add	r30, r24
    1f86:	f9 1f       	adc	r31, r25
    1f88:	e4 5a       	subi	r30, 0xA4	; 164
    1f8a:	fe 4f       	sbci	r31, 0xFE	; 254
    1f8c:	86 81       	ldd	r24, Z+6	; 0x06
    1f8e:	97 81       	ldd	r25, Z+7	; 0x07
    1f90:	00 97       	sbiw	r24, 0x00	; 0
    1f92:	e1 f5       	brne	.+120    	; 0x200c <DrvServoMoveToPosition+0x276>
		{
			MesServos[index].increment = 1U;
    1f94:	82 2f       	mov	r24, r18
    1f96:	90 e0       	ldi	r25, 0x00	; 0
    1f98:	fc 01       	movw	r30, r24
    1f9a:	ee 0f       	add	r30, r30
    1f9c:	ff 1f       	adc	r31, r31
    1f9e:	88 0f       	add	r24, r24
    1fa0:	99 1f       	adc	r25, r25
    1fa2:	88 0f       	add	r24, r24
    1fa4:	99 1f       	adc	r25, r25
    1fa6:	88 0f       	add	r24, r24
    1fa8:	99 1f       	adc	r25, r25
    1faa:	e8 0f       	add	r30, r24
    1fac:	f9 1f       	adc	r31, r25
    1fae:	e4 5a       	subi	r30, 0xA4	; 164
    1fb0:	fe 4f       	sbci	r31, 0xFE	; 254
    1fb2:	81 e0       	ldi	r24, 0x01	; 1
    1fb4:	90 e0       	ldi	r25, 0x00	; 0
    1fb6:	97 83       	std	Z+7, r25	; 0x07
    1fb8:	86 83       	std	Z+6, r24	; 0x06


// bouge le servo a la position voulu en angle sans savoir si il été deja en mouvement
Boolean DrvServoDirectMoveToPosition( Int8U index, Int16U angle, EServoVitesse vitesse)
{
	Boolean ret = FALSE; 
    1fba:	80 e0       	ldi	r24, 0x00	; 0
    1fbc:	08 95       	ret


// bouge le servo a la position voulu en angle
Boolean DrvServoMoveToPosition( Int8U index, Int16U angle, EServoVitesse vitesse)
{
	Boolean ret = FALSE; 
    1fbe:	80 e0       	ldi	r24, 0x00	; 0
	if(MesServos[ index ].moving != TRUE)
	{
		ret = DrvServoDirectMoveToPosition(index, angle, vitesse);
	}
	return ret;
}
    1fc0:	08 95       	ret
		{
			MesServos[index].increment = ( MesServos[index].ticks_consigne - MesServos[index].ticks ) / (12U + MesServos[ index ].vitesse);
		}
		else
		{
			MesServos[index].increment = ( MesServos[index].ticks - MesServos[index].ticks_consigne ) / (12U + MesServos[ index ].vitesse);
    1fc2:	82 2f       	mov	r24, r18
    1fc4:	90 e0       	ldi	r25, 0x00	; 0
    1fc6:	fc 01       	movw	r30, r24
    1fc8:	ee 0f       	add	r30, r30
    1fca:	ff 1f       	adc	r31, r31
    1fcc:	88 0f       	add	r24, r24
    1fce:	99 1f       	adc	r25, r25
    1fd0:	88 0f       	add	r24, r24
    1fd2:	99 1f       	adc	r25, r25
    1fd4:	88 0f       	add	r24, r24
    1fd6:	99 1f       	adc	r25, r25
    1fd8:	e8 0f       	add	r30, r24
    1fda:	f9 1f       	adc	r31, r25
    1fdc:	e4 5a       	subi	r30, 0xA4	; 164
    1fde:	fe 4f       	sbci	r31, 0xFE	; 254
    1fe0:	81 81       	ldd	r24, Z+1	; 0x01
    1fe2:	92 81       	ldd	r25, Z+2	; 0x02
    1fe4:	42 2f       	mov	r20, r18
    1fe6:	50 e0       	ldi	r21, 0x00	; 0
    1fe8:	fa 01       	movw	r30, r20
    1fea:	ee 0f       	add	r30, r30
    1fec:	ff 1f       	adc	r31, r31
    1fee:	44 0f       	add	r20, r20
    1ff0:	55 1f       	adc	r21, r21
    1ff2:	44 0f       	add	r20, r20
    1ff4:	55 1f       	adc	r21, r21
    1ff6:	44 0f       	add	r20, r20
    1ff8:	55 1f       	adc	r21, r21
    1ffa:	e4 0f       	add	r30, r20
    1ffc:	f5 1f       	adc	r31, r21
    1ffe:	e4 5a       	subi	r30, 0xA4	; 164
    2000:	fe 4f       	sbci	r31, 0xFE	; 254
    2002:	a3 81       	ldd	r26, Z+3	; 0x03
    2004:	b4 81       	ldd	r27, Z+4	; 0x04
    2006:	8b cf       	rjmp	.-234    	; 0x1f1e <DrvServoMoveToPosition+0x188>
			MesServos[index].increment = 1U;
		}
	}
	else
	{
		ret = TRUE;
    2008:	81 e0       	ldi	r24, 0x01	; 1
    200a:	08 95       	ret


// bouge le servo a la position voulu en angle sans savoir si il été deja en mouvement
Boolean DrvServoDirectMoveToPosition( Int8U index, Int16U angle, EServoVitesse vitesse)
{
	Boolean ret = FALSE; 
    200c:	80 e0       	ldi	r24, 0x00	; 0
    200e:	08 95       	ret

00002010 <DrvServoDirectMoveToPosition>:
}


// bouge le servo a la position voulu en angle sans savoir si il été deja en mouvement
Boolean DrvServoDirectMoveToPosition( Int8U index, Int16U angle, EServoVitesse vitesse)
{
    2010:	28 2f       	mov	r18, r24
	Boolean ret = FALSE; 
	
	//consigne
	MesServos[ index ].ticks_consigne = ConvertAngleToTick(angle);
    2012:	ee eb       	ldi	r30, 0xBE	; 190
    2014:	f0 e0       	ldi	r31, 0x00	; 0
    2016:	6e 9f       	mul	r22, r30
    2018:	c0 01       	movw	r24, r0
    201a:	6f 9f       	mul	r22, r31
    201c:	90 0d       	add	r25, r0
    201e:	7e 9f       	mul	r23, r30
    2020:	90 0d       	add	r25, r0
    2022:	11 24       	eor	r1, r1
    2024:	62 e1       	ldi	r22, 0x12	; 18
    2026:	70 e0       	ldi	r23, 0x00	; 0
    2028:	0e 94 05 1f 	call	0x3e0a	; 0x3e0a <__udivmodhi4>
    202c:	60 57       	subi	r22, 0x70	; 112
    202e:	7e 4f       	sbci	r23, 0xFE	; 254
    2030:	66 0f       	add	r22, r22
    2032:	77 1f       	adc	r23, r23
    2034:	82 2f       	mov	r24, r18
    2036:	90 e0       	ldi	r25, 0x00	; 0
    2038:	fc 01       	movw	r30, r24
    203a:	ee 0f       	add	r30, r30
    203c:	ff 1f       	adc	r31, r31
    203e:	88 0f       	add	r24, r24
    2040:	99 1f       	adc	r25, r25
    2042:	88 0f       	add	r24, r24
    2044:	99 1f       	adc	r25, r25
    2046:	88 0f       	add	r24, r24
    2048:	99 1f       	adc	r25, r25
    204a:	e8 0f       	add	r30, r24
    204c:	f9 1f       	adc	r31, r25
    204e:	e4 5a       	subi	r30, 0xA4	; 164
    2050:	fe 4f       	sbci	r31, 0xFE	; 254
    2052:	74 83       	std	Z+4, r23	; 0x04
    2054:	63 83       	std	Z+3, r22	; 0x03
	if( MesServos[ index ].ticks_consigne != MesServos[index].ticks )
    2056:	82 2f       	mov	r24, r18
    2058:	90 e0       	ldi	r25, 0x00	; 0
    205a:	fc 01       	movw	r30, r24
    205c:	ee 0f       	add	r30, r30
    205e:	ff 1f       	adc	r31, r31
    2060:	88 0f       	add	r24, r24
    2062:	99 1f       	adc	r25, r25
    2064:	88 0f       	add	r24, r24
    2066:	99 1f       	adc	r25, r25
    2068:	88 0f       	add	r24, r24
    206a:	99 1f       	adc	r25, r25
    206c:	e8 0f       	add	r30, r24
    206e:	f9 1f       	adc	r31, r25
    2070:	e4 5a       	subi	r30, 0xA4	; 164
    2072:	fe 4f       	sbci	r31, 0xFE	; 254
    2074:	63 81       	ldd	r22, Z+3	; 0x03
    2076:	74 81       	ldd	r23, Z+4	; 0x04
    2078:	82 2f       	mov	r24, r18
    207a:	90 e0       	ldi	r25, 0x00	; 0
    207c:	fc 01       	movw	r30, r24
    207e:	ee 0f       	add	r30, r30
    2080:	ff 1f       	adc	r31, r31
    2082:	88 0f       	add	r24, r24
    2084:	99 1f       	adc	r25, r25
    2086:	88 0f       	add	r24, r24
    2088:	99 1f       	adc	r25, r25
    208a:	88 0f       	add	r24, r24
    208c:	99 1f       	adc	r25, r25
    208e:	e8 0f       	add	r30, r24
    2090:	f9 1f       	adc	r31, r25
    2092:	e4 5a       	subi	r30, 0xA4	; 164
    2094:	fe 4f       	sbci	r31, 0xFE	; 254
    2096:	81 81       	ldd	r24, Z+1	; 0x01
    2098:	92 81       	ldd	r25, Z+2	; 0x02
    209a:	68 17       	cp	r22, r24
    209c:	79 07       	cpc	r23, r25
    209e:	09 f4       	brne	.+2      	; 0x20a2 <DrvServoDirectMoveToPosition+0x92>
    20a0:	de c0       	rjmp	.+444    	; 0x225e <DrvServoDirectMoveToPosition+0x24e>
	{
		MesServos[ index ].vitesse	= vitesse;
    20a2:	82 2f       	mov	r24, r18
    20a4:	90 e0       	ldi	r25, 0x00	; 0
    20a6:	fc 01       	movw	r30, r24
    20a8:	ee 0f       	add	r30, r30
    20aa:	ff 1f       	adc	r31, r31
    20ac:	88 0f       	add	r24, r24
    20ae:	99 1f       	adc	r25, r25
    20b0:	88 0f       	add	r24, r24
    20b2:	99 1f       	adc	r25, r25
    20b4:	88 0f       	add	r24, r24
    20b6:	99 1f       	adc	r25, r25
    20b8:	e8 0f       	add	r30, r24
    20ba:	f9 1f       	adc	r31, r25
    20bc:	e4 5a       	subi	r30, 0xA4	; 164
    20be:	fe 4f       	sbci	r31, 0xFE	; 254
    20c0:	45 83       	std	Z+5, r20	; 0x05
		MesServos[ index ].moving	= TRUE;		
    20c2:	82 2f       	mov	r24, r18
    20c4:	90 e0       	ldi	r25, 0x00	; 0
    20c6:	fc 01       	movw	r30, r24
    20c8:	ee 0f       	add	r30, r30
    20ca:	ff 1f       	adc	r31, r31
    20cc:	88 0f       	add	r24, r24
    20ce:	99 1f       	adc	r25, r25
    20d0:	88 0f       	add	r24, r24
    20d2:	99 1f       	adc	r25, r25
    20d4:	88 0f       	add	r24, r24
    20d6:	99 1f       	adc	r25, r25
    20d8:	e8 0f       	add	r30, r24
    20da:	f9 1f       	adc	r31, r25
    20dc:	e4 5a       	subi	r30, 0xA4	; 164
    20de:	fe 4f       	sbci	r31, 0xFE	; 254
    20e0:	81 e0       	ldi	r24, 0x01	; 1
    20e2:	80 87       	std	Z+8, r24	; 0x08
		//calcul de la vitesse d'incrementation pour atteindre la consigne
		if( MesServos[index].ticks < MesServos[index].ticks_consigne )
    20e4:	82 2f       	mov	r24, r18
    20e6:	90 e0       	ldi	r25, 0x00	; 0
    20e8:	fc 01       	movw	r30, r24
    20ea:	ee 0f       	add	r30, r30
    20ec:	ff 1f       	adc	r31, r31
    20ee:	88 0f       	add	r24, r24
    20f0:	99 1f       	adc	r25, r25
    20f2:	88 0f       	add	r24, r24
    20f4:	99 1f       	adc	r25, r25
    20f6:	88 0f       	add	r24, r24
    20f8:	99 1f       	adc	r25, r25
    20fa:	e8 0f       	add	r30, r24
    20fc:	f9 1f       	adc	r31, r25
    20fe:	e4 5a       	subi	r30, 0xA4	; 164
    2100:	fe 4f       	sbci	r31, 0xFE	; 254
    2102:	41 81       	ldd	r20, Z+1	; 0x01
    2104:	52 81       	ldd	r21, Z+2	; 0x02
    2106:	82 2f       	mov	r24, r18
    2108:	90 e0       	ldi	r25, 0x00	; 0
    210a:	fc 01       	movw	r30, r24
    210c:	ee 0f       	add	r30, r30
    210e:	ff 1f       	adc	r31, r31
    2110:	88 0f       	add	r24, r24
    2112:	99 1f       	adc	r25, r25
    2114:	88 0f       	add	r24, r24
    2116:	99 1f       	adc	r25, r25
    2118:	88 0f       	add	r24, r24
    211a:	99 1f       	adc	r25, r25
    211c:	e8 0f       	add	r30, r24
    211e:	f9 1f       	adc	r31, r25
    2120:	e4 5a       	subi	r30, 0xA4	; 164
    2122:	fe 4f       	sbci	r31, 0xFE	; 254
    2124:	83 81       	ldd	r24, Z+3	; 0x03
    2126:	94 81       	ldd	r25, Z+4	; 0x04
    2128:	48 17       	cp	r20, r24
    212a:	59 07       	cpc	r21, r25
    212c:	08 f4       	brcc	.+2      	; 0x2130 <DrvServoDirectMoveToPosition+0x120>
    212e:	72 c0       	rjmp	.+228    	; 0x2214 <DrvServoDirectMoveToPosition+0x204>
		{
			MesServos[index].increment = ( MesServos[index].ticks_consigne - MesServos[index].ticks ) / (12U + MesServos[ index ].vitesse);
		}
		else
		{
			MesServos[index].increment = ( MesServos[index].ticks - MesServos[index].ticks_consigne ) / (12U + MesServos[ index ].vitesse);
    2130:	82 2f       	mov	r24, r18
    2132:	90 e0       	ldi	r25, 0x00	; 0
    2134:	fc 01       	movw	r30, r24
    2136:	ee 0f       	add	r30, r30
    2138:	ff 1f       	adc	r31, r31
    213a:	88 0f       	add	r24, r24
    213c:	99 1f       	adc	r25, r25
    213e:	88 0f       	add	r24, r24
    2140:	99 1f       	adc	r25, r25
    2142:	88 0f       	add	r24, r24
    2144:	99 1f       	adc	r25, r25
    2146:	e8 0f       	add	r30, r24
    2148:	f9 1f       	adc	r31, r25
    214a:	e4 5a       	subi	r30, 0xA4	; 164
    214c:	fe 4f       	sbci	r31, 0xFE	; 254
    214e:	81 81       	ldd	r24, Z+1	; 0x01
    2150:	92 81       	ldd	r25, Z+2	; 0x02
    2152:	42 2f       	mov	r20, r18
    2154:	50 e0       	ldi	r21, 0x00	; 0
    2156:	fa 01       	movw	r30, r20
    2158:	ee 0f       	add	r30, r30
    215a:	ff 1f       	adc	r31, r31
    215c:	44 0f       	add	r20, r20
    215e:	55 1f       	adc	r21, r21
    2160:	44 0f       	add	r20, r20
    2162:	55 1f       	adc	r21, r21
    2164:	44 0f       	add	r20, r20
    2166:	55 1f       	adc	r21, r21
    2168:	e4 0f       	add	r30, r20
    216a:	f5 1f       	adc	r31, r21
    216c:	e4 5a       	subi	r30, 0xA4	; 164
    216e:	fe 4f       	sbci	r31, 0xFE	; 254
    2170:	a3 81       	ldd	r26, Z+3	; 0x03
    2172:	b4 81       	ldd	r27, Z+4	; 0x04
    2174:	42 2f       	mov	r20, r18
    2176:	50 e0       	ldi	r21, 0x00	; 0
    2178:	fa 01       	movw	r30, r20
    217a:	ee 0f       	add	r30, r30
    217c:	ff 1f       	adc	r31, r31
    217e:	44 0f       	add	r20, r20
    2180:	55 1f       	adc	r21, r21
    2182:	44 0f       	add	r20, r20
    2184:	55 1f       	adc	r21, r21
    2186:	44 0f       	add	r20, r20
    2188:	55 1f       	adc	r21, r21
    218a:	e4 0f       	add	r30, r20
    218c:	f5 1f       	adc	r31, r21
    218e:	e4 5a       	subi	r30, 0xA4	; 164
    2190:	fe 4f       	sbci	r31, 0xFE	; 254
    2192:	65 81       	ldd	r22, Z+5	; 0x05
    2194:	8a 1b       	sub	r24, r26
    2196:	9b 0b       	sbc	r25, r27
    2198:	70 e0       	ldi	r23, 0x00	; 0
    219a:	64 5f       	subi	r22, 0xF4	; 244
    219c:	7f 4f       	sbci	r23, 0xFF	; 255
    219e:	0e 94 05 1f 	call	0x3e0a	; 0x3e0a <__udivmodhi4>
    21a2:	82 2f       	mov	r24, r18
    21a4:	90 e0       	ldi	r25, 0x00	; 0
    21a6:	fc 01       	movw	r30, r24
    21a8:	ee 0f       	add	r30, r30
    21aa:	ff 1f       	adc	r31, r31
    21ac:	88 0f       	add	r24, r24
    21ae:	99 1f       	adc	r25, r25
    21b0:	88 0f       	add	r24, r24
    21b2:	99 1f       	adc	r25, r25
    21b4:	88 0f       	add	r24, r24
    21b6:	99 1f       	adc	r25, r25
    21b8:	e8 0f       	add	r30, r24
    21ba:	f9 1f       	adc	r31, r25
    21bc:	e4 5a       	subi	r30, 0xA4	; 164
    21be:	fe 4f       	sbci	r31, 0xFE	; 254
    21c0:	77 83       	std	Z+7, r23	; 0x07
    21c2:	66 83       	std	Z+6, r22	; 0x06
		}
			
		//si le calcul renvoit 0 on le met a 1
		if(MesServos[index].increment == 0U)
    21c4:	82 2f       	mov	r24, r18
    21c6:	90 e0       	ldi	r25, 0x00	; 0
    21c8:	fc 01       	movw	r30, r24
    21ca:	ee 0f       	add	r30, r30
    21cc:	ff 1f       	adc	r31, r31
    21ce:	88 0f       	add	r24, r24
    21d0:	99 1f       	adc	r25, r25
    21d2:	88 0f       	add	r24, r24
    21d4:	99 1f       	adc	r25, r25
    21d6:	88 0f       	add	r24, r24
    21d8:	99 1f       	adc	r25, r25
    21da:	e8 0f       	add	r30, r24
    21dc:	f9 1f       	adc	r31, r25
    21de:	e4 5a       	subi	r30, 0xA4	; 164
    21e0:	fe 4f       	sbci	r31, 0xFE	; 254
    21e2:	86 81       	ldd	r24, Z+6	; 0x06
    21e4:	97 81       	ldd	r25, Z+7	; 0x07
    21e6:	00 97       	sbiw	r24, 0x00	; 0
    21e8:	c1 f5       	brne	.+112    	; 0x225a <DrvServoDirectMoveToPosition+0x24a>
		{
			MesServos[index].increment = 1U;
    21ea:	82 2f       	mov	r24, r18
    21ec:	90 e0       	ldi	r25, 0x00	; 0
    21ee:	fc 01       	movw	r30, r24
    21f0:	ee 0f       	add	r30, r30
    21f2:	ff 1f       	adc	r31, r31
    21f4:	88 0f       	add	r24, r24
    21f6:	99 1f       	adc	r25, r25
    21f8:	88 0f       	add	r24, r24
    21fa:	99 1f       	adc	r25, r25
    21fc:	88 0f       	add	r24, r24
    21fe:	99 1f       	adc	r25, r25
    2200:	e8 0f       	add	r30, r24
    2202:	f9 1f       	adc	r31, r25
    2204:	e4 5a       	subi	r30, 0xA4	; 164
    2206:	fe 4f       	sbci	r31, 0xFE	; 254
    2208:	81 e0       	ldi	r24, 0x01	; 1
    220a:	90 e0       	ldi	r25, 0x00	; 0
    220c:	97 83       	std	Z+7, r25	; 0x07
    220e:	86 83       	std	Z+6, r24	; 0x06


// bouge le servo a la position voulu en angle sans savoir si il été deja en mouvement
Boolean DrvServoDirectMoveToPosition( Int8U index, Int16U angle, EServoVitesse vitesse)
{
	Boolean ret = FALSE; 
    2210:	80 e0       	ldi	r24, 0x00	; 0
    2212:	08 95       	ret
		MesServos[ index ].vitesse	= vitesse;
		MesServos[ index ].moving	= TRUE;		
		//calcul de la vitesse d'incrementation pour atteindre la consigne
		if( MesServos[index].ticks < MesServos[index].ticks_consigne )
		{
			MesServos[index].increment = ( MesServos[index].ticks_consigne - MesServos[index].ticks ) / (12U + MesServos[ index ].vitesse);
    2214:	82 2f       	mov	r24, r18
    2216:	90 e0       	ldi	r25, 0x00	; 0
    2218:	fc 01       	movw	r30, r24
    221a:	ee 0f       	add	r30, r30
    221c:	ff 1f       	adc	r31, r31
    221e:	88 0f       	add	r24, r24
    2220:	99 1f       	adc	r25, r25
    2222:	88 0f       	add	r24, r24
    2224:	99 1f       	adc	r25, r25
    2226:	88 0f       	add	r24, r24
    2228:	99 1f       	adc	r25, r25
    222a:	e8 0f       	add	r30, r24
    222c:	f9 1f       	adc	r31, r25
    222e:	e4 5a       	subi	r30, 0xA4	; 164
    2230:	fe 4f       	sbci	r31, 0xFE	; 254
    2232:	83 81       	ldd	r24, Z+3	; 0x03
    2234:	94 81       	ldd	r25, Z+4	; 0x04
    2236:	42 2f       	mov	r20, r18
    2238:	50 e0       	ldi	r21, 0x00	; 0
    223a:	fa 01       	movw	r30, r20
    223c:	ee 0f       	add	r30, r30
    223e:	ff 1f       	adc	r31, r31
    2240:	44 0f       	add	r20, r20
    2242:	55 1f       	adc	r21, r21
    2244:	44 0f       	add	r20, r20
    2246:	55 1f       	adc	r21, r21
    2248:	44 0f       	add	r20, r20
    224a:	55 1f       	adc	r21, r21
    224c:	e4 0f       	add	r30, r20
    224e:	f5 1f       	adc	r31, r21
    2250:	e4 5a       	subi	r30, 0xA4	; 164
    2252:	fe 4f       	sbci	r31, 0xFE	; 254
    2254:	a1 81       	ldd	r26, Z+1	; 0x01
    2256:	b2 81       	ldd	r27, Z+2	; 0x02
    2258:	8d cf       	rjmp	.-230    	; 0x2174 <DrvServoDirectMoveToPosition+0x164>


// bouge le servo a la position voulu en angle sans savoir si il été deja en mouvement
Boolean DrvServoDirectMoveToPosition( Int8U index, Int16U angle, EServoVitesse vitesse)
{
	Boolean ret = FALSE; 
    225a:	80 e0       	ldi	r24, 0x00	; 0
	else
	{
		ret = TRUE;
	}
	return ret;
}
    225c:	08 95       	ret
			MesServos[index].increment = 1U;
		}
	}
	else
	{
		ret = TRUE;
    225e:	81 e0       	ldi	r24, 0x01	; 1
    2260:	08 95       	ret

00002262 <DrvServoMoving>:
}

// si le servo a une consigne ne cours
Boolean DrvServoMoving( Int8U index ) 
{
	return MesServos[ index ].moving;
    2262:	28 2f       	mov	r18, r24
    2264:	30 e0       	ldi	r19, 0x00	; 0
    2266:	f9 01       	movw	r30, r18
    2268:	ee 0f       	add	r30, r30
    226a:	ff 1f       	adc	r31, r31
    226c:	22 0f       	add	r18, r18
    226e:	33 1f       	adc	r19, r19
    2270:	22 0f       	add	r18, r18
    2272:	33 1f       	adc	r19, r19
    2274:	22 0f       	add	r18, r18
    2276:	33 1f       	adc	r19, r19
    2278:	e2 0f       	add	r30, r18
    227a:	f3 1f       	adc	r31, r19
    227c:	e4 5a       	subi	r30, 0xA4	; 164
    227e:	fe 4f       	sbci	r31, 0xFE	; 254
    2280:	80 85       	ldd	r24, Z+8	; 0x08
}
    2282:	08 95       	ret

00002284 <DrvServoGetPosition>:

// donne la position du servo en angle
Int16U DrvServoGetPosition( Int8U index ) 
{
	return ConvertTickToAngle(MesServos[ index ].ticks);
    2284:	28 2f       	mov	r18, r24
    2286:	30 e0       	ldi	r19, 0x00	; 0
    2288:	f9 01       	movw	r30, r18
    228a:	ee 0f       	add	r30, r30
    228c:	ff 1f       	adc	r31, r31
    228e:	22 0f       	add	r18, r18
    2290:	33 1f       	adc	r19, r19
    2292:	22 0f       	add	r18, r18
    2294:	33 1f       	adc	r19, r19
    2296:	22 0f       	add	r18, r18
    2298:	33 1f       	adc	r19, r19
    229a:	e2 0f       	add	r30, r18
    229c:	f3 1f       	adc	r31, r19
    229e:	e4 5a       	subi	r30, 0xA4	; 164
    22a0:	fe 4f       	sbci	r31, 0xFE	; 254
    22a2:	81 81       	ldd	r24, Z+1	; 0x01
    22a4:	92 81       	ldd	r25, Z+2	; 0x02
    22a6:	80 52       	subi	r24, 0x20	; 32
    22a8:	93 40       	sbci	r25, 0x03	; 3
    22aa:	65 e1       	ldi	r22, 0x15	; 21
    22ac:	70 e0       	ldi	r23, 0x00	; 0
    22ae:	0e 94 05 1f 	call	0x3e0a	; 0x3e0a <__udivmodhi4>
}	
    22b2:	cb 01       	movw	r24, r22
    22b4:	08 95       	ret

000022b6 <DrvServoSendUartPosition>:


// envoie la position de tout les servo sur l'UART
void DrvServoSendUartPosition( void ) 
{
    22b6:	0f 93       	push	r16
    22b8:	1f 93       	push	r17
    22ba:	df 93       	push	r29
    22bc:	cf 93       	push	r28
    22be:	cd b7       	in	r28, 0x3d	; 61
    22c0:	de b7       	in	r29, 0x3e	; 62
    22c2:	63 97       	sbiw	r28, 0x13	; 19
    22c4:	0f b6       	in	r0, 0x3f	; 63
    22c6:	f8 94       	cli
    22c8:	de bf       	out	0x3e, r29	; 62
    22ca:	0f be       	out	0x3f, r0	; 63
    22cc:	cd bf       	out	0x3d, r28	; 61
	Int8U o_message[ 19U ];
		
	//on envoie la position des servos
	o_message[ 0U ] = '*';
    22ce:	8a e2       	ldi	r24, 0x2A	; 42
    22d0:	89 83       	std	Y+1, r24	; 0x01
	o_message[ 1U ] = 1;
    22d2:	81 e0       	ldi	r24, 0x01	; 1
    22d4:	8a 83       	std	Y+2, r24	; 0x02
	o_message[ 2U ] = 0;
    22d6:	1b 82       	std	Y+3, r1	; 0x03
	for(Int8U loop_servo = 0U ; loop_servo < nb_servo_active ; loop_servo++)
    22d8:	80 91 e8 01 	lds	r24, 0x01E8
    22dc:	88 23       	and	r24, r24
    22de:	09 f4       	brne	.+2      	; 0x22e2 <DrvServoSendUartPosition+0x2c>
    22e0:	42 c0       	rjmp	.+132    	; 0x2366 <DrvServoSendUartPosition+0xb0>
    22e2:	40 e0       	ldi	r20, 0x00	; 0
    22e4:	8e 01       	movw	r16, r28
    22e6:	0c 5f       	subi	r16, 0xFC	; 252
    22e8:	1f 4f       	sbci	r17, 0xFF	; 255
	{
		o_message[ 3U + loop_servo ] = ConvertTickToAngle( MesServos[ loop_servo ].ticks_consigne );
    22ea:	25 e1       	ldi	r18, 0x15	; 21
    22ec:	30 e0       	ldi	r19, 0x00	; 0
    22ee:	84 2f       	mov	r24, r20
    22f0:	90 e0       	ldi	r25, 0x00	; 0
    22f2:	fc 01       	movw	r30, r24
    22f4:	ee 0f       	add	r30, r30
    22f6:	ff 1f       	adc	r31, r31
    22f8:	88 0f       	add	r24, r24
    22fa:	99 1f       	adc	r25, r25
    22fc:	88 0f       	add	r24, r24
    22fe:	99 1f       	adc	r25, r25
    2300:	88 0f       	add	r24, r24
    2302:	99 1f       	adc	r25, r25
    2304:	e8 0f       	add	r30, r24
    2306:	f9 1f       	adc	r31, r25
    2308:	e4 5a       	subi	r30, 0xA4	; 164
    230a:	fe 4f       	sbci	r31, 0xFE	; 254
    230c:	83 81       	ldd	r24, Z+3	; 0x03
    230e:	94 81       	ldd	r25, Z+4	; 0x04
    2310:	f8 01       	movw	r30, r16
    2312:	e4 0f       	add	r30, r20
    2314:	f1 1d       	adc	r31, r1
    2316:	80 52       	subi	r24, 0x20	; 32
    2318:	93 40       	sbci	r25, 0x03	; 3
    231a:	b9 01       	movw	r22, r18
    231c:	0e 94 05 1f 	call	0x3e0a	; 0x3e0a <__udivmodhi4>
    2320:	60 83       	st	Z, r22
		
	//on envoie la position des servos
	o_message[ 0U ] = '*';
	o_message[ 1U ] = 1;
	o_message[ 2U ] = 0;
	for(Int8U loop_servo = 0U ; loop_servo < nb_servo_active ; loop_servo++)
    2322:	4f 5f       	subi	r20, 0xFF	; 255
    2324:	80 91 e8 01 	lds	r24, 0x01E8
    2328:	48 17       	cp	r20, r24
    232a:	08 f3       	brcs	.-62     	; 0x22ee <DrvServoSendUartPosition+0x38>
	{
		o_message[ 3U + loop_servo ] = ConvertTickToAngle( MesServos[ loop_servo ].ticks_consigne );
	}		
	o_message[ 3U + nb_servo_active ] = '#';
    232c:	80 91 e8 01 	lds	r24, 0x01E8
    2330:	f8 01       	movw	r30, r16
    2332:	e8 0f       	add	r30, r24
    2334:	f1 1d       	adc	r31, r1
    2336:	83 e2       	ldi	r24, 0x23	; 35
    2338:	80 83       	st	Z, r24
	o_message[ 4U + nb_servo_active ] = '#';
    233a:	90 91 e8 01 	lds	r25, 0x01E8
    233e:	fe 01       	movw	r30, r28
    2340:	e9 0f       	add	r30, r25
    2342:	f1 1d       	adc	r31, r1
    2344:	85 83       	std	Z+5, r24	; 0x05
	DrvUart1SendMessage( o_message, 19U );		
    2346:	ce 01       	movw	r24, r28
    2348:	01 96       	adiw	r24, 0x01	; 1
    234a:	63 e1       	ldi	r22, 0x13	; 19
    234c:	0e 94 98 15 	call	0x2b30	; 0x2b30 <DrvUart1SendMessage>
	
}
    2350:	63 96       	adiw	r28, 0x13	; 19
    2352:	0f b6       	in	r0, 0x3f	; 63
    2354:	f8 94       	cli
    2356:	de bf       	out	0x3e, r29	; 62
    2358:	0f be       	out	0x3f, r0	; 63
    235a:	cd bf       	out	0x3d, r28	; 61
    235c:	cf 91       	pop	r28
    235e:	df 91       	pop	r29
    2360:	1f 91       	pop	r17
    2362:	0f 91       	pop	r16
    2364:	08 95       	ret
    2366:	8e 01       	movw	r16, r28
    2368:	0c 5f       	subi	r16, 0xFC	; 252
    236a:	1f 4f       	sbci	r17, 0xFF	; 255
    236c:	df cf       	rjmp	.-66     	; 0x232c <DrvServoSendUartPosition+0x76>

0000236e <__vector_13>:
////////////////////////////////////////PRIVATE FUNCTIONS/////////////////////////////////////////


///////////////////////////////////////////ISR FUNCTIONS//////////////////////////////////////////
SIGNAL (TIMER1_COMPA_vect) 
{ 
    236e:	1f 92       	push	r1
    2370:	0f 92       	push	r0
    2372:	0f b6       	in	r0, 0x3f	; 63
    2374:	0f 92       	push	r0
    2376:	0b b6       	in	r0, 0x3b	; 59
    2378:	0f 92       	push	r0
    237a:	11 24       	eor	r1, r1
    237c:	2f 93       	push	r18
    237e:	3f 93       	push	r19
    2380:	4f 93       	push	r20
    2382:	5f 93       	push	r21
    2384:	6f 93       	push	r22
    2386:	7f 93       	push	r23
    2388:	8f 93       	push	r24
    238a:	9f 93       	push	r25
    238c:	af 93       	push	r26
    238e:	bf 93       	push	r27
    2390:	ef 93       	push	r30
    2392:	ff 93       	push	r31
	if(pin_servo < 0)
    2394:	80 91 13 01 	lds	r24, 0x0113
    2398:	87 fd       	sbrc	r24, 7
    239a:	8a c0       	rjmp	.+276    	; 0x24b0 <__vector_13+0x142>
	{
		TCNT1 = 0U;
	}
	else
	{
		if( ( MesServos[pin_servo].active == TRUE ) && ( pin_servo < nb_servo_active ) )
    239c:	80 91 13 01 	lds	r24, 0x0113
    23a0:	99 27       	eor	r25, r25
    23a2:	87 fd       	sbrc	r24, 7
    23a4:	90 95       	com	r25
    23a6:	fc 01       	movw	r30, r24
    23a8:	ee 0f       	add	r30, r30
    23aa:	ff 1f       	adc	r31, r31
    23ac:	88 0f       	add	r24, r24
    23ae:	99 1f       	adc	r25, r25
    23b0:	88 0f       	add	r24, r24
    23b2:	99 1f       	adc	r25, r25
    23b4:	88 0f       	add	r24, r24
    23b6:	99 1f       	adc	r25, r25
    23b8:	e8 0f       	add	r30, r24
    23ba:	f9 1f       	adc	r31, r25
    23bc:	e4 5a       	subi	r30, 0xA4	; 164
    23be:	fe 4f       	sbci	r31, 0xFE	; 254
    23c0:	81 85       	ldd	r24, Z+9	; 0x09
    23c2:	81 30       	cpi	r24, 0x01	; 1
    23c4:	09 f4       	brne	.+2      	; 0x23c8 <__vector_13+0x5a>
    23c6:	79 c0       	rjmp	.+242    	; 0x24ba <__vector_13+0x14c>
		{
			micIoPortsConfigureToLowLevel(MesServos[pin_servo].pin);
		}
	}
		
	pin_servo++;
    23c8:	80 91 13 01 	lds	r24, 0x0113
    23cc:	8f 5f       	subi	r24, 0xFF	; 255
    23ce:	80 93 13 01 	sts	0x0113, r24
	if(pin_servo < nb_servo_active)
    23d2:	20 91 13 01 	lds	r18, 0x0113
    23d6:	80 91 e8 01 	lds	r24, 0x01E8
    23da:	33 27       	eor	r19, r19
    23dc:	27 fd       	sbrc	r18, 7
    23de:	30 95       	com	r19
    23e0:	90 e0       	ldi	r25, 0x00	; 0
    23e2:	28 17       	cp	r18, r24
    23e4:	39 07       	cpc	r19, r25
    23e6:	0c f0       	brlt	.+2      	; 0x23ea <__vector_13+0x7c>
    23e8:	47 c0       	rjmp	.+142    	; 0x2478 <__vector_13+0x10a>
	{
		OCR1A = TCNT1 + MesServos[pin_servo].ticks ;
    23ea:	20 91 84 00 	lds	r18, 0x0084
    23ee:	30 91 85 00 	lds	r19, 0x0085
    23f2:	80 91 13 01 	lds	r24, 0x0113
    23f6:	99 27       	eor	r25, r25
    23f8:	87 fd       	sbrc	r24, 7
    23fa:	90 95       	com	r25
    23fc:	fc 01       	movw	r30, r24
    23fe:	ee 0f       	add	r30, r30
    2400:	ff 1f       	adc	r31, r31
    2402:	88 0f       	add	r24, r24
    2404:	99 1f       	adc	r25, r25
    2406:	88 0f       	add	r24, r24
    2408:	99 1f       	adc	r25, r25
    240a:	88 0f       	add	r24, r24
    240c:	99 1f       	adc	r25, r25
    240e:	e8 0f       	add	r30, r24
    2410:	f9 1f       	adc	r31, r25
    2412:	e4 5a       	subi	r30, 0xA4	; 164
    2414:	fe 4f       	sbci	r31, 0xFE	; 254
    2416:	81 81       	ldd	r24, Z+1	; 0x01
    2418:	92 81       	ldd	r25, Z+2	; 0x02
    241a:	82 0f       	add	r24, r18
    241c:	93 1f       	adc	r25, r19
    241e:	90 93 89 00 	sts	0x0089, r25
    2422:	80 93 88 00 	sts	0x0088, r24
		if( ( MesServos[pin_servo].active == TRUE ) && ( pin_servo < nb_servo_active ) )
    2426:	80 91 13 01 	lds	r24, 0x0113
    242a:	99 27       	eor	r25, r25
    242c:	87 fd       	sbrc	r24, 7
    242e:	90 95       	com	r25
    2430:	fc 01       	movw	r30, r24
    2432:	ee 0f       	add	r30, r30
    2434:	ff 1f       	adc	r31, r31
    2436:	88 0f       	add	r24, r24
    2438:	99 1f       	adc	r25, r25
    243a:	88 0f       	add	r24, r24
    243c:	99 1f       	adc	r25, r25
    243e:	88 0f       	add	r24, r24
    2440:	99 1f       	adc	r25, r25
    2442:	e8 0f       	add	r30, r24
    2444:	f9 1f       	adc	r31, r25
    2446:	e4 5a       	subi	r30, 0xA4	; 164
    2448:	fe 4f       	sbci	r31, 0xFE	; 254
    244a:	81 85       	ldd	r24, Z+9	; 0x09
    244c:	81 30       	cpi	r24, 0x01	; 1
    244e:	09 f4       	brne	.+2      	; 0x2452 <__vector_13+0xe4>
    2450:	56 c0       	rjmp	.+172    	; 0x24fe <__vector_13+0x190>
		{
			OCR1A = TCNT1 + OFFSET_TIMER;
		}
		pin_servo = -1;
	}				
    2452:	ff 91       	pop	r31
    2454:	ef 91       	pop	r30
    2456:	bf 91       	pop	r27
    2458:	af 91       	pop	r26
    245a:	9f 91       	pop	r25
    245c:	8f 91       	pop	r24
    245e:	7f 91       	pop	r23
    2460:	6f 91       	pop	r22
    2462:	5f 91       	pop	r21
    2464:	4f 91       	pop	r20
    2466:	3f 91       	pop	r19
    2468:	2f 91       	pop	r18
    246a:	0f 90       	pop	r0
    246c:	0b be       	out	0x3b, r0	; 59
    246e:	0f 90       	pop	r0
    2470:	0f be       	out	0x3f, r0	; 63
    2472:	0f 90       	pop	r0
    2474:	1f 90       	pop	r1
    2476:	18 95       	reti
			}
		}
	}
	else
	{
		if( TCNT1 <  (unsigned int)(REFRESH_INTERVAL + OFFSET_TIMER) )
    2478:	80 91 84 00 	lds	r24, 0x0084
    247c:	90 91 85 00 	lds	r25, 0x0085
    2480:	2e e4       	ldi	r18, 0x4E	; 78
    2482:	87 32       	cpi	r24, 0x27	; 39
    2484:	92 07       	cpc	r25, r18
    2486:	68 f0       	brcs	.+26     	; 0x24a2 <__vector_13+0x134>
		{
			OCR1A = (unsigned int)REFRESH_INTERVAL;  
		}
		else
		{
			OCR1A = TCNT1 + OFFSET_TIMER;
    2488:	80 91 84 00 	lds	r24, 0x0084
    248c:	90 91 85 00 	lds	r25, 0x0085
    2490:	07 96       	adiw	r24, 0x07	; 7
    2492:	90 93 89 00 	sts	0x0089, r25
    2496:	80 93 88 00 	sts	0x0088, r24
		}
		pin_servo = -1;
    249a:	8f ef       	ldi	r24, 0xFF	; 255
    249c:	80 93 13 01 	sts	0x0113, r24
    24a0:	d8 cf       	rjmp	.-80     	; 0x2452 <__vector_13+0xe4>
	}
	else
	{
		if( TCNT1 <  (unsigned int)(REFRESH_INTERVAL + OFFSET_TIMER) )
		{
			OCR1A = (unsigned int)REFRESH_INTERVAL;  
    24a2:	80 e2       	ldi	r24, 0x20	; 32
    24a4:	9e e4       	ldi	r25, 0x4E	; 78
    24a6:	90 93 89 00 	sts	0x0089, r25
    24aa:	80 93 88 00 	sts	0x0088, r24
    24ae:	f5 cf       	rjmp	.-22     	; 0x249a <__vector_13+0x12c>
///////////////////////////////////////////ISR FUNCTIONS//////////////////////////////////////////
SIGNAL (TIMER1_COMPA_vect) 
{ 
	if(pin_servo < 0)
	{
		TCNT1 = 0U;
    24b0:	10 92 85 00 	sts	0x0085, r1
    24b4:	10 92 84 00 	sts	0x0084, r1
    24b8:	87 cf       	rjmp	.-242    	; 0x23c8 <__vector_13+0x5a>
	}
	else
	{
		if( ( MesServos[pin_servo].active == TRUE ) && ( pin_servo < nb_servo_active ) )
    24ba:	20 91 13 01 	lds	r18, 0x0113
    24be:	80 91 e8 01 	lds	r24, 0x01E8
    24c2:	33 27       	eor	r19, r19
    24c4:	27 fd       	sbrc	r18, 7
    24c6:	30 95       	com	r19
    24c8:	90 e0       	ldi	r25, 0x00	; 0
    24ca:	28 17       	cp	r18, r24
    24cc:	39 07       	cpc	r19, r25
    24ce:	0c f0       	brlt	.+2      	; 0x24d2 <__vector_13+0x164>
    24d0:	7b cf       	rjmp	.-266    	; 0x23c8 <__vector_13+0x5a>
		{
			micIoPortsConfigureToLowLevel(MesServos[pin_servo].pin);
    24d2:	80 91 13 01 	lds	r24, 0x0113
    24d6:	99 27       	eor	r25, r25
    24d8:	87 fd       	sbrc	r24, 7
    24da:	90 95       	com	r25
    24dc:	fc 01       	movw	r30, r24
    24de:	ee 0f       	add	r30, r30
    24e0:	ff 1f       	adc	r31, r31
    24e2:	88 0f       	add	r24, r24
    24e4:	99 1f       	adc	r25, r25
    24e6:	88 0f       	add	r24, r24
    24e8:	99 1f       	adc	r25, r25
    24ea:	88 0f       	add	r24, r24
    24ec:	99 1f       	adc	r25, r25
    24ee:	e8 0f       	add	r30, r24
    24f0:	f9 1f       	adc	r31, r25
    24f2:	e4 5a       	subi	r30, 0xA4	; 164
    24f4:	fe 4f       	sbci	r31, 0xFE	; 254
    24f6:	80 81       	ld	r24, Z
    24f8:	0e 94 d8 18 	call	0x31b0	; 0x31b0 <micIoPortsConfigureToLowLevel>
    24fc:	65 cf       	rjmp	.-310    	; 0x23c8 <__vector_13+0x5a>
		
	pin_servo++;
	if(pin_servo < nb_servo_active)
	{
		OCR1A = TCNT1 + MesServos[pin_servo].ticks ;
		if( ( MesServos[pin_servo].active == TRUE ) && ( pin_servo < nb_servo_active ) )
    24fe:	20 91 13 01 	lds	r18, 0x0113
    2502:	80 91 e8 01 	lds	r24, 0x01E8
    2506:	33 27       	eor	r19, r19
    2508:	27 fd       	sbrc	r18, 7
    250a:	30 95       	com	r19
    250c:	90 e0       	ldi	r25, 0x00	; 0
    250e:	28 17       	cp	r18, r24
    2510:	39 07       	cpc	r19, r25
    2512:	0c f0       	brlt	.+2      	; 0x2516 <__vector_13+0x1a8>
    2514:	9e cf       	rjmp	.-196    	; 0x2452 <__vector_13+0xe4>
		{
			micIoPortsConfigureToHighLevel(MesServos[pin_servo].pin);
    2516:	80 91 13 01 	lds	r24, 0x0113
    251a:	99 27       	eor	r25, r25
    251c:	87 fd       	sbrc	r24, 7
    251e:	90 95       	com	r25
    2520:	fc 01       	movw	r30, r24
    2522:	ee 0f       	add	r30, r30
    2524:	ff 1f       	adc	r31, r31
    2526:	88 0f       	add	r24, r24
    2528:	99 1f       	adc	r25, r25
    252a:	88 0f       	add	r24, r24
    252c:	99 1f       	adc	r25, r25
    252e:	88 0f       	add	r24, r24
    2530:	99 1f       	adc	r25, r25
    2532:	e8 0f       	add	r30, r24
    2534:	f9 1f       	adc	r31, r25
    2536:	e4 5a       	subi	r30, 0xA4	; 164
    2538:	fe 4f       	sbci	r31, 0xFE	; 254
    253a:	80 81       	ld	r24, Z
    253c:	0e 94 ce 18 	call	0x319c	; 0x319c <micIoPortsConfigureToHighLevel>
			//servo en mouvement
			if( MesServos[pin_servo].moving == TRUE )
    2540:	80 91 13 01 	lds	r24, 0x0113
    2544:	99 27       	eor	r25, r25
    2546:	87 fd       	sbrc	r24, 7
    2548:	90 95       	com	r25
    254a:	fc 01       	movw	r30, r24
    254c:	ee 0f       	add	r30, r30
    254e:	ff 1f       	adc	r31, r31
    2550:	88 0f       	add	r24, r24
    2552:	99 1f       	adc	r25, r25
    2554:	88 0f       	add	r24, r24
    2556:	99 1f       	adc	r25, r25
    2558:	88 0f       	add	r24, r24
    255a:	99 1f       	adc	r25, r25
    255c:	e8 0f       	add	r30, r24
    255e:	f9 1f       	adc	r31, r25
    2560:	e4 5a       	subi	r30, 0xA4	; 164
    2562:	fe 4f       	sbci	r31, 0xFE	; 254
    2564:	80 85       	ldd	r24, Z+8	; 0x08
    2566:	81 30       	cpi	r24, 0x01	; 1
    2568:	09 f0       	breq	.+2      	; 0x256c <__vector_13+0x1fe>
    256a:	73 cf       	rjmp	.-282    	; 0x2452 <__vector_13+0xe4>
			{
				//on souhaite atteindre la consigne
				if( MesServos[pin_servo].ticks < MesServos[pin_servo].ticks_consigne )
    256c:	80 91 13 01 	lds	r24, 0x0113
    2570:	99 27       	eor	r25, r25
    2572:	87 fd       	sbrc	r24, 7
    2574:	90 95       	com	r25
    2576:	fc 01       	movw	r30, r24
    2578:	ee 0f       	add	r30, r30
    257a:	ff 1f       	adc	r31, r31
    257c:	88 0f       	add	r24, r24
    257e:	99 1f       	adc	r25, r25
    2580:	88 0f       	add	r24, r24
    2582:	99 1f       	adc	r25, r25
    2584:	88 0f       	add	r24, r24
    2586:	99 1f       	adc	r25, r25
    2588:	e8 0f       	add	r30, r24
    258a:	f9 1f       	adc	r31, r25
    258c:	e4 5a       	subi	r30, 0xA4	; 164
    258e:	fe 4f       	sbci	r31, 0xFE	; 254
    2590:	21 81       	ldd	r18, Z+1	; 0x01
    2592:	32 81       	ldd	r19, Z+2	; 0x02
    2594:	80 91 13 01 	lds	r24, 0x0113
    2598:	99 27       	eor	r25, r25
    259a:	87 fd       	sbrc	r24, 7
    259c:	90 95       	com	r25
    259e:	fc 01       	movw	r30, r24
    25a0:	ee 0f       	add	r30, r30
    25a2:	ff 1f       	adc	r31, r31
    25a4:	88 0f       	add	r24, r24
    25a6:	99 1f       	adc	r25, r25
    25a8:	88 0f       	add	r24, r24
    25aa:	99 1f       	adc	r25, r25
    25ac:	88 0f       	add	r24, r24
    25ae:	99 1f       	adc	r25, r25
    25b0:	e8 0f       	add	r30, r24
    25b2:	f9 1f       	adc	r31, r25
    25b4:	e4 5a       	subi	r30, 0xA4	; 164
    25b6:	fe 4f       	sbci	r31, 0xFE	; 254
    25b8:	83 81       	ldd	r24, Z+3	; 0x03
    25ba:	94 81       	ldd	r25, Z+4	; 0x04
    25bc:	28 17       	cp	r18, r24
    25be:	39 07       	cpc	r19, r25
    25c0:	08 f0       	brcs	.+2      	; 0x25c4 <__vector_13+0x256>
    25c2:	96 c0       	rjmp	.+300    	; 0x26f0 <__vector_13+0x382>
				{
					//on applique la nouvelle consigne				
					MesServos[pin_servo].ticks += MesServos[pin_servo].increment;
    25c4:	80 91 13 01 	lds	r24, 0x0113
    25c8:	99 27       	eor	r25, r25
    25ca:	87 fd       	sbrc	r24, 7
    25cc:	90 95       	com	r25
    25ce:	fc 01       	movw	r30, r24
    25d0:	ee 0f       	add	r30, r30
    25d2:	ff 1f       	adc	r31, r31
    25d4:	88 0f       	add	r24, r24
    25d6:	99 1f       	adc	r25, r25
    25d8:	88 0f       	add	r24, r24
    25da:	99 1f       	adc	r25, r25
    25dc:	88 0f       	add	r24, r24
    25de:	99 1f       	adc	r25, r25
    25e0:	e8 0f       	add	r30, r24
    25e2:	f9 1f       	adc	r31, r25
    25e4:	e4 5a       	subi	r30, 0xA4	; 164
    25e6:	fe 4f       	sbci	r31, 0xFE	; 254
    25e8:	21 81       	ldd	r18, Z+1	; 0x01
    25ea:	32 81       	ldd	r19, Z+2	; 0x02
    25ec:	80 91 13 01 	lds	r24, 0x0113
    25f0:	99 27       	eor	r25, r25
    25f2:	87 fd       	sbrc	r24, 7
    25f4:	90 95       	com	r25
    25f6:	dc 01       	movw	r26, r24
    25f8:	aa 0f       	add	r26, r26
    25fa:	bb 1f       	adc	r27, r27
    25fc:	88 0f       	add	r24, r24
    25fe:	99 1f       	adc	r25, r25
    2600:	88 0f       	add	r24, r24
    2602:	99 1f       	adc	r25, r25
    2604:	88 0f       	add	r24, r24
    2606:	99 1f       	adc	r25, r25
    2608:	a8 0f       	add	r26, r24
    260a:	b9 1f       	adc	r27, r25
    260c:	a4 5a       	subi	r26, 0xA4	; 164
    260e:	be 4f       	sbci	r27, 0xFE	; 254
    2610:	16 96       	adiw	r26, 0x06	; 6
    2612:	8d 91       	ld	r24, X+
    2614:	9c 91       	ld	r25, X
    2616:	17 97       	sbiw	r26, 0x07	; 7
    2618:	82 0f       	add	r24, r18
    261a:	93 1f       	adc	r25, r19
    261c:	92 83       	std	Z+2, r25	; 0x02
    261e:	81 83       	std	Z+1, r24	; 0x01

					//si on est en ovf on reajuste				
					if( MesServos[pin_servo].ticks >= MesServos[pin_servo].ticks_consigne )
    2620:	80 91 13 01 	lds	r24, 0x0113
    2624:	99 27       	eor	r25, r25
    2626:	87 fd       	sbrc	r24, 7
    2628:	90 95       	com	r25
    262a:	fc 01       	movw	r30, r24
    262c:	ee 0f       	add	r30, r30
    262e:	ff 1f       	adc	r31, r31
    2630:	88 0f       	add	r24, r24
    2632:	99 1f       	adc	r25, r25
    2634:	88 0f       	add	r24, r24
    2636:	99 1f       	adc	r25, r25
    2638:	88 0f       	add	r24, r24
    263a:	99 1f       	adc	r25, r25
    263c:	e8 0f       	add	r30, r24
    263e:	f9 1f       	adc	r31, r25
    2640:	e4 5a       	subi	r30, 0xA4	; 164
    2642:	fe 4f       	sbci	r31, 0xFE	; 254
    2644:	21 81       	ldd	r18, Z+1	; 0x01
    2646:	32 81       	ldd	r19, Z+2	; 0x02
    2648:	80 91 13 01 	lds	r24, 0x0113
    264c:	99 27       	eor	r25, r25
    264e:	87 fd       	sbrc	r24, 7
    2650:	90 95       	com	r25
    2652:	fc 01       	movw	r30, r24
    2654:	ee 0f       	add	r30, r30
    2656:	ff 1f       	adc	r31, r31
    2658:	88 0f       	add	r24, r24
    265a:	99 1f       	adc	r25, r25
    265c:	88 0f       	add	r24, r24
    265e:	99 1f       	adc	r25, r25
    2660:	88 0f       	add	r24, r24
    2662:	99 1f       	adc	r25, r25
    2664:	e8 0f       	add	r30, r24
    2666:	f9 1f       	adc	r31, r25
    2668:	e4 5a       	subi	r30, 0xA4	; 164
    266a:	fe 4f       	sbci	r31, 0xFE	; 254
    266c:	83 81       	ldd	r24, Z+3	; 0x03
    266e:	94 81       	ldd	r25, Z+4	; 0x04
    2670:	28 17       	cp	r18, r24
    2672:	39 07       	cpc	r19, r25
    2674:	08 f4       	brcc	.+2      	; 0x2678 <__vector_13+0x30a>
    2676:	ed ce       	rjmp	.-550    	; 0x2452 <__vector_13+0xe4>
					MesServos[pin_servo].ticks -= MesServos[pin_servo].increment;
					
					//si on est en ovf on reajuste	
					if( MesServos[pin_servo].ticks <= MesServos[pin_servo].ticks_consigne )
					{
						MesServos[pin_servo].ticks = MesServos[pin_servo].ticks_consigne;
    2678:	80 91 13 01 	lds	r24, 0x0113
    267c:	99 27       	eor	r25, r25
    267e:	87 fd       	sbrc	r24, 7
    2680:	90 95       	com	r25
    2682:	20 91 13 01 	lds	r18, 0x0113
    2686:	33 27       	eor	r19, r19
    2688:	27 fd       	sbrc	r18, 7
    268a:	30 95       	com	r19
    268c:	f9 01       	movw	r30, r18
    268e:	ee 0f       	add	r30, r30
    2690:	ff 1f       	adc	r31, r31
    2692:	22 0f       	add	r18, r18
    2694:	33 1f       	adc	r19, r19
    2696:	22 0f       	add	r18, r18
    2698:	33 1f       	adc	r19, r19
    269a:	22 0f       	add	r18, r18
    269c:	33 1f       	adc	r19, r19
    269e:	e2 0f       	add	r30, r18
    26a0:	f3 1f       	adc	r31, r19
    26a2:	e4 5a       	subi	r30, 0xA4	; 164
    26a4:	fe 4f       	sbci	r31, 0xFE	; 254
    26a6:	23 81       	ldd	r18, Z+3	; 0x03
    26a8:	34 81       	ldd	r19, Z+4	; 0x04
    26aa:	fc 01       	movw	r30, r24
    26ac:	ee 0f       	add	r30, r30
    26ae:	ff 1f       	adc	r31, r31
    26b0:	88 0f       	add	r24, r24
    26b2:	99 1f       	adc	r25, r25
    26b4:	88 0f       	add	r24, r24
    26b6:	99 1f       	adc	r25, r25
    26b8:	88 0f       	add	r24, r24
    26ba:	99 1f       	adc	r25, r25
    26bc:	e8 0f       	add	r30, r24
    26be:	f9 1f       	adc	r31, r25
    26c0:	e4 5a       	subi	r30, 0xA4	; 164
    26c2:	fe 4f       	sbci	r31, 0xFE	; 254
    26c4:	32 83       	std	Z+2, r19	; 0x02
    26c6:	21 83       	std	Z+1, r18	; 0x01
						MesServos[pin_servo].moving = FALSE;
    26c8:	80 91 13 01 	lds	r24, 0x0113
    26cc:	99 27       	eor	r25, r25
    26ce:	87 fd       	sbrc	r24, 7
    26d0:	90 95       	com	r25
    26d2:	fc 01       	movw	r30, r24
    26d4:	ee 0f       	add	r30, r30
    26d6:	ff 1f       	adc	r31, r31
    26d8:	88 0f       	add	r24, r24
    26da:	99 1f       	adc	r25, r25
    26dc:	88 0f       	add	r24, r24
    26de:	99 1f       	adc	r25, r25
    26e0:	88 0f       	add	r24, r24
    26e2:	99 1f       	adc	r25, r25
    26e4:	e8 0f       	add	r30, r24
    26e6:	f9 1f       	adc	r31, r25
    26e8:	e4 5a       	subi	r30, 0xA4	; 164
    26ea:	fe 4f       	sbci	r31, 0xFE	; 254
    26ec:	10 86       	std	Z+8, r1	; 0x08
    26ee:	b1 ce       	rjmp	.-670    	; 0x2452 <__vector_13+0xe4>
					}						
				}
				else
				{
					//on applique la nouvelle consigne				
					MesServos[pin_servo].ticks -= MesServos[pin_servo].increment;
    26f0:	80 91 13 01 	lds	r24, 0x0113
    26f4:	99 27       	eor	r25, r25
    26f6:	87 fd       	sbrc	r24, 7
    26f8:	90 95       	com	r25
    26fa:	fc 01       	movw	r30, r24
    26fc:	ee 0f       	add	r30, r30
    26fe:	ff 1f       	adc	r31, r31
    2700:	88 0f       	add	r24, r24
    2702:	99 1f       	adc	r25, r25
    2704:	88 0f       	add	r24, r24
    2706:	99 1f       	adc	r25, r25
    2708:	88 0f       	add	r24, r24
    270a:	99 1f       	adc	r25, r25
    270c:	e8 0f       	add	r30, r24
    270e:	f9 1f       	adc	r31, r25
    2710:	e4 5a       	subi	r30, 0xA4	; 164
    2712:	fe 4f       	sbci	r31, 0xFE	; 254
    2714:	81 81       	ldd	r24, Z+1	; 0x01
    2716:	92 81       	ldd	r25, Z+2	; 0x02
    2718:	20 91 13 01 	lds	r18, 0x0113
    271c:	33 27       	eor	r19, r19
    271e:	27 fd       	sbrc	r18, 7
    2720:	30 95       	com	r19
    2722:	d9 01       	movw	r26, r18
    2724:	aa 0f       	add	r26, r26
    2726:	bb 1f       	adc	r27, r27
    2728:	22 0f       	add	r18, r18
    272a:	33 1f       	adc	r19, r19
    272c:	22 0f       	add	r18, r18
    272e:	33 1f       	adc	r19, r19
    2730:	22 0f       	add	r18, r18
    2732:	33 1f       	adc	r19, r19
    2734:	a2 0f       	add	r26, r18
    2736:	b3 1f       	adc	r27, r19
    2738:	a4 5a       	subi	r26, 0xA4	; 164
    273a:	be 4f       	sbci	r27, 0xFE	; 254
    273c:	16 96       	adiw	r26, 0x06	; 6
    273e:	2d 91       	ld	r18, X+
    2740:	3c 91       	ld	r19, X
    2742:	17 97       	sbiw	r26, 0x07	; 7
    2744:	82 1b       	sub	r24, r18
    2746:	93 0b       	sbc	r25, r19
    2748:	92 83       	std	Z+2, r25	; 0x02
    274a:	81 83       	std	Z+1, r24	; 0x01
					
					//si on est en ovf on reajuste	
					if( MesServos[pin_servo].ticks <= MesServos[pin_servo].ticks_consigne )
    274c:	80 91 13 01 	lds	r24, 0x0113
    2750:	99 27       	eor	r25, r25
    2752:	87 fd       	sbrc	r24, 7
    2754:	90 95       	com	r25
    2756:	fc 01       	movw	r30, r24
    2758:	ee 0f       	add	r30, r30
    275a:	ff 1f       	adc	r31, r31
    275c:	88 0f       	add	r24, r24
    275e:	99 1f       	adc	r25, r25
    2760:	88 0f       	add	r24, r24
    2762:	99 1f       	adc	r25, r25
    2764:	88 0f       	add	r24, r24
    2766:	99 1f       	adc	r25, r25
    2768:	e8 0f       	add	r30, r24
    276a:	f9 1f       	adc	r31, r25
    276c:	e4 5a       	subi	r30, 0xA4	; 164
    276e:	fe 4f       	sbci	r31, 0xFE	; 254
    2770:	21 81       	ldd	r18, Z+1	; 0x01
    2772:	32 81       	ldd	r19, Z+2	; 0x02
    2774:	80 91 13 01 	lds	r24, 0x0113
    2778:	99 27       	eor	r25, r25
    277a:	87 fd       	sbrc	r24, 7
    277c:	90 95       	com	r25
    277e:	fc 01       	movw	r30, r24
    2780:	ee 0f       	add	r30, r30
    2782:	ff 1f       	adc	r31, r31
    2784:	88 0f       	add	r24, r24
    2786:	99 1f       	adc	r25, r25
    2788:	88 0f       	add	r24, r24
    278a:	99 1f       	adc	r25, r25
    278c:	88 0f       	add	r24, r24
    278e:	99 1f       	adc	r25, r25
    2790:	e8 0f       	add	r30, r24
    2792:	f9 1f       	adc	r31, r25
    2794:	e4 5a       	subi	r30, 0xA4	; 164
    2796:	fe 4f       	sbci	r31, 0xFE	; 254
    2798:	83 81       	ldd	r24, Z+3	; 0x03
    279a:	94 81       	ldd	r25, Z+4	; 0x04
    279c:	82 17       	cp	r24, r18
    279e:	93 07       	cpc	r25, r19
    27a0:	08 f4       	brcc	.+2      	; 0x27a4 <__vector_13+0x436>
    27a2:	57 ce       	rjmp	.-850    	; 0x2452 <__vector_13+0xe4>
    27a4:	69 cf       	rjmp	.-302    	; 0x2678 <__vector_13+0x30a>

000027a6 <DrvTimer>:
void DrvTimerInitSystemTimer( void )
{
	//timer system a la ms
	ETimer0Clock clock_div;
	Int8U ocr = DrvTimerComputeOCR( 1000U , &clock_div );
	micTimer0SetOutputCompareRegisterA( ocr );
    27a6:	8a ef       	ldi	r24, 0xFA	; 250
    27a8:	0e 94 7d 1c 	call	0x38fa	; 0x38fa <micTimer0SetOutputCompareRegisterA>
    micTimer0SetClockDivision( clock_div ) ;
    27ac:	83 e0       	ldi	r24, 0x03	; 3
    27ae:	0e 94 73 1c 	call	0x38e6	; 0x38e6 <micTimer0SetClockDivision>
	micTimer0WaveformGenerationMode( TIMER_0_CLEAR_ON_COMPARE ); 
    27b2:	82 e0       	ldi	r24, 0x02	; 2
    27b4:	0e 94 4d 1c 	call	0x389a	; 0x389a <micTimer0WaveformGenerationMode>
	micTimer0ClearTimerCounterInterruptFlagRegister( TIMER_0_COMPARE_A_FLAG );
    27b8:	82 e0       	ldi	r24, 0x02	; 2
    27ba:	0e 94 94 1c 	call	0x3928	; 0x3928 <micTimer0ClearTimerCounterInterruptFlagRegister>
	micTimer0SetTimerCounterInterrupt( TIMER_0_COMPARE_A_INTERRUPT );
    27be:	82 e0       	ldi	r24, 0x02	; 2
    27c0:	0e 94 85 1c 	call	0x390a	; 0x390a <micTimer0SetTimerCounterInterrupt>
		MesTimer[ loop_index ].enable = FALSE;
		MesTimer[ loop_index ].ptrfct = NULL;
	}		
	//on init le timer system a 1 ms
	DrvTimerInitSystemTimer();
}
    27c4:	08 95       	ret

000027c6 <DrvTimerPlayTimer>:

	
//fct qui parametre le timer
void DrvTimerPlayTimer( Int8U index_timer, Int16U delay, ETimerMode mode, ptrfct_Isr_Callback_Timer ptrfct )
{
	MesTimer[ index_timer ].enable = TRUE;
    27c6:	e8 2f       	mov	r30, r24
    27c8:	f0 e0       	ldi	r31, 0x00	; 0
    27ca:	ee 0f       	add	r30, r30
    27cc:	ff 1f       	adc	r31, r31
    27ce:	ee 0f       	add	r30, r30
    27d0:	ff 1f       	adc	r31, r31
    27d2:	ee 0f       	add	r30, r30
    27d4:	ff 1f       	adc	r31, r31
    27d6:	eb 56       	subi	r30, 0x6B	; 107
    27d8:	fd 4f       	sbci	r31, 0xFD	; 253
    27da:	81 e0       	ldi	r24, 0x01	; 1
    27dc:	80 83       	st	Z, r24
	MesTimer[ index_timer ].delay = delay;
    27de:	72 83       	std	Z+2, r23	; 0x02
    27e0:	61 83       	std	Z+1, r22	; 0x01
	MesTimer[ index_timer ].cpt_delay = 0U;
    27e2:	14 82       	std	Z+4, r1	; 0x04
    27e4:	13 82       	std	Z+3, r1	; 0x03
	MesTimer[ index_timer ].mode = mode;
    27e6:	45 83       	std	Z+5, r20	; 0x05
	MesTimer[ index_timer ].ptrfct = ptrfct;
    27e8:	37 83       	std	Z+7, r19	; 0x07
    27ea:	26 83       	std	Z+6, r18	; 0x06
}
    27ec:	08 95       	ret

000027ee <DrvTimerPauseTimer>:

//fct qui met en pause le timer
void DrvTimerPauseTimer( Int8U index_timer )
{	
	MesTimer[ index_timer ].enable = FALSE;
    27ee:	e8 2f       	mov	r30, r24
    27f0:	f0 e0       	ldi	r31, 0x00	; 0
    27f2:	ee 0f       	add	r30, r30
    27f4:	ff 1f       	adc	r31, r31
    27f6:	ee 0f       	add	r30, r30
    27f8:	ff 1f       	adc	r31, r31
    27fa:	ee 0f       	add	r30, r30
    27fc:	ff 1f       	adc	r31, r31
    27fe:	eb 56       	subi	r30, 0x6B	; 107
    2800:	fd 4f       	sbci	r31, 0xFD	; 253
    2802:	10 82       	st	Z, r1
}
    2804:	08 95       	ret

00002806 <DrvTimerStopTimer>:

//fct qui remet a zero les parametres du timer
void DrvTimerStopTimer( Int8U index_timer )
{	
	MesTimer[ index_timer ].enable    = FALSE;
    2806:	e8 2f       	mov	r30, r24
    2808:	f0 e0       	ldi	r31, 0x00	; 0
    280a:	ee 0f       	add	r30, r30
    280c:	ff 1f       	adc	r31, r31
    280e:	ee 0f       	add	r30, r30
    2810:	ff 1f       	adc	r31, r31
    2812:	ee 0f       	add	r30, r30
    2814:	ff 1f       	adc	r31, r31
    2816:	eb 56       	subi	r30, 0x6B	; 107
    2818:	fd 4f       	sbci	r31, 0xFD	; 253
    281a:	10 82       	st	Z, r1
	MesTimer[ index_timer ].delay     = 0U ;
    281c:	12 82       	std	Z+2, r1	; 0x02
    281e:	11 82       	std	Z+1, r1	; 0x01
	MesTimer[ index_timer ].cpt_delay = 0U;
    2820:	14 82       	std	Z+4, r1	; 0x04
    2822:	13 82       	std	Z+3, r1	; 0x03
	MesTimer[ index_timer ].mode      = E_TIMER_MODE_NONE;
    2824:	82 e0       	ldi	r24, 0x02	; 2
    2826:	85 83       	std	Z+5, r24	; 0x05
	MesTimer[ index_timer ].ptrfct    = NULL;
    2828:	17 82       	std	Z+7, r1	; 0x07
    282a:	16 82       	std	Z+6, r1	; 0x06
}
    282c:	08 95       	ret

0000282e <DrvTimerResetTimer>:

//fct qui reseter le timer
void DrvTimerResetTimer( Int8U index_timer )
{
	MesTimer[ index_timer ].cpt_delay = 0U;	
    282e:	e8 2f       	mov	r30, r24
    2830:	f0 e0       	ldi	r31, 0x00	; 0
    2832:	ee 0f       	add	r30, r30
    2834:	ff 1f       	adc	r31, r31
    2836:	ee 0f       	add	r30, r30
    2838:	ff 1f       	adc	r31, r31
    283a:	ee 0f       	add	r30, r30
    283c:	ff 1f       	adc	r31, r31
    283e:	eb 56       	subi	r30, 0x6B	; 107
    2840:	fd 4f       	sbci	r31, 0xFD	; 253
    2842:	14 82       	std	Z+4, r1	; 0x04
    2844:	13 82       	std	Z+3, r1	; 0x03
}
    2846:	08 95       	ret

00002848 <DrvTimerDelayTimer>:


//fct qui fixe un delay au timer
void DrvTimerDelayTimer( Int8U index_timer , Int16U delay)
{
	MesTimer[ index_timer ].cpt_delay = 0U;	
    2848:	e8 2f       	mov	r30, r24
    284a:	f0 e0       	ldi	r31, 0x00	; 0
    284c:	ee 0f       	add	r30, r30
    284e:	ff 1f       	adc	r31, r31
    2850:	ee 0f       	add	r30, r30
    2852:	ff 1f       	adc	r31, r31
    2854:	ee 0f       	add	r30, r30
    2856:	ff 1f       	adc	r31, r31
    2858:	eb 56       	subi	r30, 0x6B	; 107
    285a:	fd 4f       	sbci	r31, 0xFD	; 253
    285c:	14 82       	std	Z+4, r1	; 0x04
    285e:	13 82       	std	Z+3, r1	; 0x03
	MesTimer[ index_timer ].delay	  = delay;
    2860:	72 83       	std	Z+2, r23	; 0x02
    2862:	61 83       	std	Z+1, r22	; 0x01
}
    2864:	08 95       	ret

00002866 <DrvTimerInitSystemTimer>:
void DrvTimerInitSystemTimer( void )
{
	//timer system a la ms
	ETimer0Clock clock_div;
	Int8U ocr = DrvTimerComputeOCR( 1000U , &clock_div );
	micTimer0SetOutputCompareRegisterA( ocr );
    2866:	8a ef       	ldi	r24, 0xFA	; 250
    2868:	0e 94 7d 1c 	call	0x38fa	; 0x38fa <micTimer0SetOutputCompareRegisterA>
    micTimer0SetClockDivision( clock_div ) ;
    286c:	83 e0       	ldi	r24, 0x03	; 3
    286e:	0e 94 73 1c 	call	0x38e6	; 0x38e6 <micTimer0SetClockDivision>
	micTimer0WaveformGenerationMode( TIMER_0_CLEAR_ON_COMPARE ); 
    2872:	82 e0       	ldi	r24, 0x02	; 2
    2874:	0e 94 4d 1c 	call	0x389a	; 0x389a <micTimer0WaveformGenerationMode>
	micTimer0ClearTimerCounterInterruptFlagRegister( TIMER_0_COMPARE_A_FLAG );
    2878:	82 e0       	ldi	r24, 0x02	; 2
    287a:	0e 94 94 1c 	call	0x3928	; 0x3928 <micTimer0ClearTimerCounterInterruptFlagRegister>
	micTimer0SetTimerCounterInterrupt( TIMER_0_COMPARE_A_INTERRUPT );
    287e:	82 e0       	ldi	r24, 0x02	; 2
    2880:	0e 94 85 1c 	call	0x390a	; 0x390a <micTimer0SetTimerCounterInterrupt>
	
}
    2884:	08 95       	ret

00002886 <DrvTimerComputeOCR>:

//On calcule le registre OCR en fonction du temp souhaité
Int16U DrvTimerComputeOCR(Int32U us_time , ETimer0Clock *clock_div)
{  
    2886:	af 92       	push	r10
    2888:	bf 92       	push	r11
    288a:	cf 92       	push	r12
    288c:	df 92       	push	r13
    288e:	ef 92       	push	r14
    2890:	ff 92       	push	r15
    2892:	0f 93       	push	r16
    2894:	1f 93       	push	r17
    2896:	cf 93       	push	r28
    2898:	df 93       	push	r29
    289a:	7b 01       	movw	r14, r22
    289c:	8c 01       	movw	r16, r24
    289e:	ea 01       	movw	r28, r20
	Int16U div;
	Int32U ocr;
	Int16U min_div;
	min_div = ( ( ( (CONF_FOSC_HZ / 1000UL ) * us_time ) + 255999UL ) / 256000UL );
    28a0:	20 e8       	ldi	r18, 0x80	; 128
    28a2:	3e e3       	ldi	r19, 0x3E	; 62
    28a4:	40 e0       	ldi	r20, 0x00	; 0
    28a6:	50 e0       	ldi	r21, 0x00	; 0
    28a8:	0e 94 da 1e 	call	0x3db4	; 0x3db4 <__mulsi3>
    28ac:	61 50       	subi	r22, 0x01	; 1
    28ae:	78 41       	sbci	r23, 0x18	; 24
    28b0:	8c 4f       	sbci	r24, 0xFC	; 252
    28b2:	9f 4f       	sbci	r25, 0xFF	; 255
    28b4:	20 e0       	ldi	r18, 0x00	; 0
    28b6:	38 ee       	ldi	r19, 0xE8	; 232
    28b8:	43 e0       	ldi	r20, 0x03	; 3
    28ba:	50 e0       	ldi	r21, 0x00	; 0
    28bc:	0e 94 19 1f 	call	0x3e32	; 0x3e32 <__udivmodsi4>
	if(min_div >= 256)
    28c0:	2f 3f       	cpi	r18, 0xFF	; 255
    28c2:	31 05       	cpc	r19, r1
    28c4:	09 f0       	breq	.+2      	; 0x28c8 <DrvTimerComputeOCR+0x42>
    28c6:	e8 f5       	brcc	.+122    	; 0x2942 <DrvTimerComputeOCR+0xbc>
	{
		div = 1024;
		*clock_div = TIMER_0_CLK_DIV_1024;
	}
	else if(min_div >= 128)
    28c8:	20 38       	cpi	r18, 0x80	; 128
    28ca:	31 05       	cpc	r19, r1
    28cc:	78 f4       	brcc	.+30     	; 0x28ec <DrvTimerComputeOCR+0x66>
	{
		div = 256;
		*clock_div = TIMER_0_CLK_DIV_256;
	}
	else if(min_div >= 8)
    28ce:	28 30       	cpi	r18, 0x08	; 8
    28d0:	31 05       	cpc	r19, r1
    28d2:	08 f0       	brcs	.+2      	; 0x28d6 <DrvTimerComputeOCR+0x50>
    28d4:	46 c0       	rjmp	.+140    	; 0x2962 <DrvTimerComputeOCR+0xdc>
	{
		div = 64;
		*clock_div = TIMER_0_CLK_DIV_64;
	}
	else if(min_div > 1)
    28d6:	22 30       	cpi	r18, 0x02	; 2
    28d8:	31 05       	cpc	r19, r1
    28da:	d8 f1       	brcs	.+118    	; 0x2952 <DrvTimerComputeOCR+0xcc>
	{
		div = 8;
		*clock_div = TIMER_0_CLK_DIV_8;
    28dc:	82 e0       	ldi	r24, 0x02	; 2
    28de:	88 83       	st	Y, r24
    28e0:	e0 e1       	ldi	r30, 0x10	; 16
    28e2:	ae 2e       	mov	r10, r30
    28e4:	b1 2c       	mov	r11, r1
    28e6:	c1 2c       	mov	r12, r1
    28e8:	d1 2c       	mov	r13, r1
    28ea:	07 c0       	rjmp	.+14     	; 0x28fa <DrvTimerComputeOCR+0x74>
		*clock_div = TIMER_0_CLK_DIV_1024;
	}
	else if(min_div >= 128)
	{
		div = 256;
		*clock_div = TIMER_0_CLK_DIV_256;
    28ec:	84 e0       	ldi	r24, 0x04	; 4
    28ee:	88 83       	st	Y, r24
    28f0:	a1 2c       	mov	r10, r1
    28f2:	a2 e0       	ldi	r26, 0x02	; 2
    28f4:	ba 2e       	mov	r11, r26
    28f6:	c1 2c       	mov	r12, r1
    28f8:	d1 2c       	mov	r13, r1
	{
		div = 1;
		*clock_div = TIMER_0_CLK_DIV_1;
	}
  
	ocr =  ( CONF_FOSC_HZ / (2 * div * ( 1000000 / us_time ) ) ) - 1;
    28fa:	60 e4       	ldi	r22, 0x40	; 64
    28fc:	72 e4       	ldi	r23, 0x42	; 66
    28fe:	8f e0       	ldi	r24, 0x0F	; 15
    2900:	90 e0       	ldi	r25, 0x00	; 0
    2902:	a8 01       	movw	r20, r16
    2904:	97 01       	movw	r18, r14
    2906:	0e 94 19 1f 	call	0x3e32	; 0x3e32 <__udivmodsi4>
    290a:	c6 01       	movw	r24, r12
    290c:	b5 01       	movw	r22, r10
    290e:	0e 94 da 1e 	call	0x3db4	; 0x3db4 <__mulsi3>
    2912:	9b 01       	movw	r18, r22
    2914:	ac 01       	movw	r20, r24
    2916:	60 e0       	ldi	r22, 0x00	; 0
    2918:	74 e2       	ldi	r23, 0x24	; 36
    291a:	84 ef       	ldi	r24, 0xF4	; 244
    291c:	90 e0       	ldi	r25, 0x00	; 0
    291e:	0e 94 19 1f 	call	0x3e32	; 0x3e32 <__udivmodsi4>
	ocr *= 2;
	ocr += 2;
    2922:	22 0f       	add	r18, r18
    2924:	33 1f       	adc	r19, r19
    2926:	44 1f       	adc	r20, r20
    2928:	55 1f       	adc	r21, r21
  
  return ocr;
 
}
    292a:	c9 01       	movw	r24, r18
    292c:	df 91       	pop	r29
    292e:	cf 91       	pop	r28
    2930:	1f 91       	pop	r17
    2932:	0f 91       	pop	r16
    2934:	ff 90       	pop	r15
    2936:	ef 90       	pop	r14
    2938:	df 90       	pop	r13
    293a:	cf 90       	pop	r12
    293c:	bf 90       	pop	r11
    293e:	af 90       	pop	r10
    2940:	08 95       	ret
	Int16U min_div;
	min_div = ( ( ( (CONF_FOSC_HZ / 1000UL ) * us_time ) + 255999UL ) / 256000UL );
	if(min_div >= 256)
	{
		div = 1024;
		*clock_div = TIMER_0_CLK_DIV_1024;
    2942:	85 e0       	ldi	r24, 0x05	; 5
    2944:	88 83       	st	Y, r24
    2946:	a1 2c       	mov	r10, r1
    2948:	b8 e0       	ldi	r27, 0x08	; 8
    294a:	bb 2e       	mov	r11, r27
    294c:	c1 2c       	mov	r12, r1
    294e:	d1 2c       	mov	r13, r1
    2950:	d4 cf       	rjmp	.-88     	; 0x28fa <DrvTimerComputeOCR+0x74>
		*clock_div = TIMER_0_CLK_DIV_8;
	}
	else
	{
		div = 1;
		*clock_div = TIMER_0_CLK_DIV_1;
    2952:	81 e0       	ldi	r24, 0x01	; 1
    2954:	88 83       	st	Y, r24
    2956:	72 e0       	ldi	r23, 0x02	; 2
    2958:	a7 2e       	mov	r10, r23
    295a:	b1 2c       	mov	r11, r1
    295c:	c1 2c       	mov	r12, r1
    295e:	d1 2c       	mov	r13, r1
    2960:	cc cf       	rjmp	.-104    	; 0x28fa <DrvTimerComputeOCR+0x74>
		*clock_div = TIMER_0_CLK_DIV_256;
	}
	else if(min_div >= 8)
	{
		div = 64;
		*clock_div = TIMER_0_CLK_DIV_64;
    2962:	83 e0       	ldi	r24, 0x03	; 3
    2964:	88 83       	st	Y, r24
    2966:	f0 e8       	ldi	r31, 0x80	; 128
    2968:	af 2e       	mov	r10, r31
    296a:	b1 2c       	mov	r11, r1
    296c:	c1 2c       	mov	r12, r1
    296e:	d1 2c       	mov	r13, r1
    2970:	c4 cf       	rjmp	.-120    	; 0x28fa <DrvTimerComputeOCR+0x74>

00002972 <__vector_16>:
volatile Int8U timeout_ms =0;
volatile Int8U timeout_s =0;
volatile Int8U timeout_5s =0;
volatile Int8U timeout_10s =0;
ISR(TIMER0_COMPA_vect)
{
    2972:	1f 92       	push	r1
    2974:	0f 92       	push	r0
    2976:	0f b6       	in	r0, 0x3f	; 63
    2978:	0f 92       	push	r0
    297a:	0b b6       	in	r0, 0x3b	; 59
    297c:	0f 92       	push	r0
    297e:	11 24       	eor	r1, r1
    2980:	2f 93       	push	r18
    2982:	3f 93       	push	r19
    2984:	4f 93       	push	r20
    2986:	5f 93       	push	r21
    2988:	6f 93       	push	r22
    298a:	7f 93       	push	r23
    298c:	8f 93       	push	r24
    298e:	9f 93       	push	r25
    2990:	af 93       	push	r26
    2992:	bf 93       	push	r27
    2994:	ef 93       	push	r30
    2996:	ff 93       	push	r31
	//on gere l'evenement 100 ms
	timeout_ms++;
    2998:	80 91 e9 01 	lds	r24, 0x01E9
    299c:	8f 5f       	subi	r24, 0xFF	; 255
    299e:	80 93 e9 01 	sts	0x01E9, r24
	if(timeout_ms == 100)
    29a2:	80 91 e9 01 	lds	r24, 0x01E9
    29a6:	84 36       	cpi	r24, 0x64	; 100
    29a8:	f1 f0       	breq	.+60     	; 0x29e6 <__vector_16+0x74>
		{
			timeout_10s = 0;
			DrvEventAddEvent( CONF_EVENT_TIMER_10S );	
		}
	}
	else if( ( timeout_ms % 10 ) == 0)
    29aa:	80 91 e9 01 	lds	r24, 0x01E9
    29ae:	6a e0       	ldi	r22, 0x0A	; 10
    29b0:	0e 94 f9 1e 	call	0x3df2	; 0x3df2 <__udivmodqi4>
    29b4:	99 23       	and	r25, r25
    29b6:	21 f4       	brne	.+8      	; 0x29c0 <__vector_16+0x4e>
	{
		DrvEventAddEvent( CONF_EVENT_TIMER_10MS );	
    29b8:	80 e0       	ldi	r24, 0x00	; 0
    29ba:	90 e0       	ldi	r25, 0x00	; 0
    29bc:	0e 94 5b 0a 	call	0x14b6	; 0x14b6 <DrvEventAddEvent>
					}
				}
			}
		}			
	}
    29c0:	ff 91       	pop	r31
    29c2:	ef 91       	pop	r30
    29c4:	bf 91       	pop	r27
    29c6:	af 91       	pop	r26
    29c8:	9f 91       	pop	r25
    29ca:	8f 91       	pop	r24
    29cc:	7f 91       	pop	r23
    29ce:	6f 91       	pop	r22
    29d0:	5f 91       	pop	r21
    29d2:	4f 91       	pop	r20
    29d4:	3f 91       	pop	r19
    29d6:	2f 91       	pop	r18
    29d8:	0f 90       	pop	r0
    29da:	0b be       	out	0x3b, r0	; 59
    29dc:	0f 90       	pop	r0
    29de:	0f be       	out	0x3f, r0	; 63
    29e0:	0f 90       	pop	r0
    29e2:	1f 90       	pop	r1
    29e4:	18 95       	reti
{
	//on gere l'evenement 100 ms
	timeout_ms++;
	if(timeout_ms == 100)
	{
		timeout_ms =0;
    29e6:	10 92 e9 01 	sts	0x01E9, r1
		DrvEventAddEvent( CONF_EVENT_TIMER_100MS );	
    29ea:	81 e0       	ldi	r24, 0x01	; 1
    29ec:	90 e0       	ldi	r25, 0x00	; 0
    29ee:	0e 94 5b 0a 	call	0x14b6	; 0x14b6 <DrvEventAddEvent>
		//on gere l'evenement 1 s
		timeout_s++;
    29f2:	80 91 ea 01 	lds	r24, 0x01EA
    29f6:	8f 5f       	subi	r24, 0xFF	; 255
    29f8:	80 93 ea 01 	sts	0x01EA, r24
		if(timeout_s == 10)
    29fc:	80 91 ea 01 	lds	r24, 0x01EA
    2a00:	8a 30       	cpi	r24, 0x0A	; 10
    2a02:	d9 f0       	breq	.+54     	; 0x2a3a <__vector_16+0xc8>
		{
			timeout_s = 0;
			timeout_5s++;
			DrvEventAddEvent( CONF_EVENT_TIMER_1S );	
		}
		if(timeout_5s == 5)
    2a04:	80 91 eb 01 	lds	r24, 0x01EB
    2a08:	85 30       	cpi	r24, 0x05	; 5
    2a0a:	59 f0       	breq	.+22     	; 0x2a22 <__vector_16+0xb0>
		{
			timeout_5s = 0;
			timeout_10s++;
			DrvEventAddEvent( CONF_EVENT_TIMER_5S );	
		}
		if(timeout_10s == 2)
    2a0c:	80 91 ec 01 	lds	r24, 0x01EC
    2a10:	82 30       	cpi	r24, 0x02	; 2
    2a12:	b1 f6       	brne	.-84     	; 0x29c0 <__vector_16+0x4e>
		{
			timeout_10s = 0;
    2a14:	10 92 ec 01 	sts	0x01EC, r1
			DrvEventAddEvent( CONF_EVENT_TIMER_10S );	
    2a18:	84 e0       	ldi	r24, 0x04	; 4
    2a1a:	90 e0       	ldi	r25, 0x00	; 0
    2a1c:	0e 94 5b 0a 	call	0x14b6	; 0x14b6 <DrvEventAddEvent>
    2a20:	cf cf       	rjmp	.-98     	; 0x29c0 <__vector_16+0x4e>
			timeout_5s++;
			DrvEventAddEvent( CONF_EVENT_TIMER_1S );	
		}
		if(timeout_5s == 5)
		{
			timeout_5s = 0;
    2a22:	10 92 eb 01 	sts	0x01EB, r1
			timeout_10s++;
    2a26:	80 91 ec 01 	lds	r24, 0x01EC
    2a2a:	8f 5f       	subi	r24, 0xFF	; 255
    2a2c:	80 93 ec 01 	sts	0x01EC, r24
			DrvEventAddEvent( CONF_EVENT_TIMER_5S );	
    2a30:	83 e0       	ldi	r24, 0x03	; 3
    2a32:	90 e0       	ldi	r25, 0x00	; 0
    2a34:	0e 94 5b 0a 	call	0x14b6	; 0x14b6 <DrvEventAddEvent>
    2a38:	e9 cf       	rjmp	.-46     	; 0x2a0c <__vector_16+0x9a>
		DrvEventAddEvent( CONF_EVENT_TIMER_100MS );	
		//on gere l'evenement 1 s
		timeout_s++;
		if(timeout_s == 10)
		{
			timeout_s = 0;
    2a3a:	10 92 ea 01 	sts	0x01EA, r1
			timeout_5s++;
    2a3e:	80 91 eb 01 	lds	r24, 0x01EB
    2a42:	8f 5f       	subi	r24, 0xFF	; 255
    2a44:	80 93 eb 01 	sts	0x01EB, r24
			DrvEventAddEvent( CONF_EVENT_TIMER_1S );	
    2a48:	82 e0       	ldi	r24, 0x02	; 2
    2a4a:	90 e0       	ldi	r25, 0x00	; 0
    2a4c:	0e 94 5b 0a 	call	0x14b6	; 0x14b6 <DrvEventAddEvent>
    2a50:	d9 cf       	rjmp	.-78     	; 0x2a04 <__vector_16+0x92>

00002a52 <DrvUart>:
// Init du Drv Uart 
void DrvUart( )
{
	//on fixe les registres
	#ifdef CONF_UART_0_INDEX 
		UBRR0 = 0x0010U;		//57600 baud
    2a52:	80 e1       	ldi	r24, 0x10	; 16
    2a54:	90 e0       	ldi	r25, 0x00	; 0
    2a56:	90 93 c5 00 	sts	0x00C5, r25
    2a5a:	80 93 c4 00 	sts	0x00C4, r24
		UCSR0B |= (1<<RXEN0);	//enable RX
    2a5e:	e1 ec       	ldi	r30, 0xC1	; 193
    2a60:	f0 e0       	ldi	r31, 0x00	; 0
    2a62:	20 81       	ld	r18, Z
    2a64:	20 61       	ori	r18, 0x10	; 16
    2a66:	20 83       	st	Z, r18
		UCSR0B |= (1<<TXEN0);	//enable TX 
    2a68:	20 81       	ld	r18, Z
    2a6a:	28 60       	ori	r18, 0x08	; 8
    2a6c:	20 83       	st	Z, r18
		UCSR0B |= (1<<RXCIE0);	//enable RX interrupt 
    2a6e:	20 81       	ld	r18, Z
    2a70:	20 68       	ori	r18, 0x80	; 128
    2a72:	20 83       	st	Z, r18
		UCSR0C|= (1<<UCSZ00); 	//8 bits, no parity, 1 stop 
    2a74:	e2 ec       	ldi	r30, 0xC2	; 194
    2a76:	f0 e0       	ldi	r31, 0x00	; 0
    2a78:	20 81       	ld	r18, Z
    2a7a:	22 60       	ori	r18, 0x02	; 2
    2a7c:	20 83       	st	Z, r18
		UCSR0C|= (1<<UCSZ01); 
    2a7e:	20 81       	ld	r18, Z
    2a80:	24 60       	ori	r18, 0x04	; 4
    2a82:	20 83       	st	Z, r18
	#endif
			
	#ifdef CONF_UART_1_INDEX
		UBRR1 = 0x0010U;		//57600 baud
    2a84:	90 93 cd 00 	sts	0x00CD, r25
    2a88:	80 93 cc 00 	sts	0x00CC, r24
		UCSR1B |= (1<<RXEN1);	//enable RX
    2a8c:	e9 ec       	ldi	r30, 0xC9	; 201
    2a8e:	f0 e0       	ldi	r31, 0x00	; 0
    2a90:	80 81       	ld	r24, Z
    2a92:	80 61       	ori	r24, 0x10	; 16
    2a94:	80 83       	st	Z, r24
		UCSR1B |= (1<<TXEN1);	//enable TX 
    2a96:	80 81       	ld	r24, Z
    2a98:	88 60       	ori	r24, 0x08	; 8
    2a9a:	80 83       	st	Z, r24
		UCSR1B |= (1<<RXCIE1);	//enable RX interrupt 
    2a9c:	80 81       	ld	r24, Z
    2a9e:	80 68       	ori	r24, 0x80	; 128
    2aa0:	80 83       	st	Z, r24
		UCSR1C|= (1<<UCSZ10); 	//8 bits, no parity, 1 stop 
    2aa2:	ea ec       	ldi	r30, 0xCA	; 202
    2aa4:	f0 e0       	ldi	r31, 0x00	; 0
    2aa6:	80 81       	ld	r24, Z
    2aa8:	82 60       	ori	r24, 0x02	; 2
    2aaa:	80 83       	st	Z, r24
		UCSR1C|= (1<<UCSZ11);  
    2aac:	80 81       	ld	r24, Z
    2aae:	84 60       	ori	r24, 0x04	; 4
    2ab0:	80 83       	st	Z, r24
	#endif
}
    2ab2:	08 95       	ret

00002ab4 <DrvUart0ReadMessage>:

//on recupere le message
void DrvUart0ReadMessage( Int8U i_message[50U], Int8U *i_message_len )
{
	//on enregistre le message 
	for ( Int8U loop_send = 0U ; loop_send < in_message_len_0 ; loop_send++)
    2ab4:	20 91 ed 01 	lds	r18, 0x01ED
    2ab8:	22 23       	and	r18, r18
    2aba:	81 f0       	breq	.+32     	; 0x2adc <DrvUart0ReadMessage+0x28>
    2abc:	40 e0       	ldi	r20, 0x00	; 0
	{
		i_message[ loop_send ] = in_message_0[ loop_send ];
    2abe:	24 2f       	mov	r18, r20
    2ac0:	30 e0       	ldi	r19, 0x00	; 0
    2ac2:	fc 01       	movw	r30, r24
    2ac4:	e2 0f       	add	r30, r18
    2ac6:	f3 1f       	adc	r31, r19
    2ac8:	27 50       	subi	r18, 0x07	; 7
    2aca:	3d 4f       	sbci	r19, 0xFD	; 253
    2acc:	d9 01       	movw	r26, r18
    2ace:	2c 91       	ld	r18, X
    2ad0:	20 83       	st	Z, r18

//on recupere le message
void DrvUart0ReadMessage( Int8U i_message[50U], Int8U *i_message_len )
{
	//on enregistre le message 
	for ( Int8U loop_send = 0U ; loop_send < in_message_len_0 ; loop_send++)
    2ad2:	4f 5f       	subi	r20, 0xFF	; 255
    2ad4:	20 91 ed 01 	lds	r18, 0x01ED
    2ad8:	42 17       	cp	r20, r18
    2ada:	88 f3       	brcs	.-30     	; 0x2abe <DrvUart0ReadMessage+0xa>
	{
		i_message[ loop_send ] = in_message_0[ loop_send ];
	} 
	*i_message_len = in_message_len_0;
    2adc:	fb 01       	movw	r30, r22
    2ade:	20 83       	st	Z, r18
}
    2ae0:	08 95       	ret

00002ae2 <DrvUart0SendMessage>:
//on recupere le message
void DrvUart0SendMessage( Int8U i_message[50U], Int8U i_message_len )
{
	//on enregistre le message 
	for ( Int8U loop_send = 0U ; loop_send < i_message_len ; loop_send++)
    2ae2:	66 23       	and	r22, r22
    2ae4:	69 f0       	breq	.+26     	; 0x2b00 <DrvUart0SendMessage+0x1e>
    2ae6:	e8 2f       	mov	r30, r24
    2ae8:	f9 2f       	mov	r31, r25
    2aea:	90 e0       	ldi	r25, 0x00	; 0
	{
		while ( !( UCSR0A & (1<<UDRE0)) );
    2aec:	80 91 c0 00 	lds	r24, 0x00C0
    2af0:	85 ff       	sbrs	r24, 5
    2af2:	fc cf       	rjmp	.-8      	; 0x2aec <DrvUart0SendMessage+0xa>
		UDR0 = i_message[ loop_send ];
    2af4:	81 91       	ld	r24, Z+
    2af6:	80 93 c6 00 	sts	0x00C6, r24
}
//on recupere le message
void DrvUart0SendMessage( Int8U i_message[50U], Int8U i_message_len )
{
	//on enregistre le message 
	for ( Int8U loop_send = 0U ; loop_send < i_message_len ; loop_send++)
    2afa:	9f 5f       	subi	r25, 0xFF	; 255
    2afc:	96 17       	cp	r25, r22
    2afe:	b0 f3       	brcs	.-20     	; 0x2aec <DrvUart0SendMessage+0xa>
    2b00:	08 95       	ret

00002b02 <DrvUart1ReadMessage>:

//on recupere le message
void DrvUart1ReadMessage( Int8U i_message[50U], Int8U *i_message_len )
{
	//on enregistre le message 
	for ( Int8U loop_send = 0U ; loop_send < in_message_len_1 ; loop_send++)
    2b02:	20 91 f0 01 	lds	r18, 0x01F0
    2b06:	22 23       	and	r18, r18
    2b08:	81 f0       	breq	.+32     	; 0x2b2a <DrvUart1ReadMessage+0x28>
    2b0a:	40 e0       	ldi	r20, 0x00	; 0
	{
		i_message[ loop_send ] = in_message_1[ loop_send ];
    2b0c:	24 2f       	mov	r18, r20
    2b0e:	30 e0       	ldi	r19, 0x00	; 0
    2b10:	fc 01       	movw	r30, r24
    2b12:	e2 0f       	add	r30, r18
    2b14:	f3 1f       	adc	r31, r19
    2b16:	29 53       	subi	r18, 0x39	; 57
    2b18:	3d 4f       	sbci	r19, 0xFD	; 253
    2b1a:	d9 01       	movw	r26, r18
    2b1c:	2c 91       	ld	r18, X
    2b1e:	20 83       	st	Z, r18

//on recupere le message
void DrvUart1ReadMessage( Int8U i_message[50U], Int8U *i_message_len )
{
	//on enregistre le message 
	for ( Int8U loop_send = 0U ; loop_send < in_message_len_1 ; loop_send++)
    2b20:	4f 5f       	subi	r20, 0xFF	; 255
    2b22:	20 91 f0 01 	lds	r18, 0x01F0
    2b26:	42 17       	cp	r20, r18
    2b28:	88 f3       	brcs	.-30     	; 0x2b0c <DrvUart1ReadMessage+0xa>
	{
		i_message[ loop_send ] = in_message_1[ loop_send ];
	} 
	*i_message_len = in_message_len_1;
    2b2a:	fb 01       	movw	r30, r22
    2b2c:	20 83       	st	Z, r18
}
    2b2e:	08 95       	ret

00002b30 <DrvUart1SendMessage>:

//on recupere le message
void DrvUart1SendMessage( Int8U i_message[50U], Int8U i_message_len )
{
	//on enregistre le message 
	for ( Int8U loop_send = 0U ; loop_send < i_message_len ; loop_send++)
    2b30:	66 23       	and	r22, r22
    2b32:	69 f0       	breq	.+26     	; 0x2b4e <DrvUart1SendMessage+0x1e>
    2b34:	e8 2f       	mov	r30, r24
    2b36:	f9 2f       	mov	r31, r25
    2b38:	90 e0       	ldi	r25, 0x00	; 0
	{
		while ( !( UCSR1A & (1<<UDRE1)) );
    2b3a:	80 91 c8 00 	lds	r24, 0x00C8
    2b3e:	85 ff       	sbrs	r24, 5
    2b40:	fc cf       	rjmp	.-8      	; 0x2b3a <DrvUart1SendMessage+0xa>
		UDR1 = i_message[ loop_send ];
    2b42:	81 91       	ld	r24, Z+
    2b44:	80 93 ce 00 	sts	0x00CE, r24

//on recupere le message
void DrvUart1SendMessage( Int8U i_message[50U], Int8U i_message_len )
{
	//on enregistre le message 
	for ( Int8U loop_send = 0U ; loop_send < i_message_len ; loop_send++)
    2b48:	9f 5f       	subi	r25, 0xFF	; 255
    2b4a:	96 17       	cp	r25, r22
    2b4c:	b0 f3       	brcs	.-20     	; 0x2b3a <DrvUart1SendMessage+0xa>
    2b4e:	08 95       	ret

00002b50 <__vector_20>:
/////////////////////////////////////ISR PRIVATE FUNCTIONS////////////////////////////////////////
//UART0
//-------------------
//ISR uart octet recu 
ISR(USART0_RX_vect)
{
    2b50:	1f 92       	push	r1
    2b52:	0f 92       	push	r0
    2b54:	0f b6       	in	r0, 0x3f	; 63
    2b56:	0f 92       	push	r0
    2b58:	0b b6       	in	r0, 0x3b	; 59
    2b5a:	0f 92       	push	r0
    2b5c:	11 24       	eor	r1, r1
    2b5e:	2f 93       	push	r18
    2b60:	3f 93       	push	r19
    2b62:	4f 93       	push	r20
    2b64:	5f 93       	push	r21
    2b66:	6f 93       	push	r22
    2b68:	7f 93       	push	r23
    2b6a:	8f 93       	push	r24
    2b6c:	9f 93       	push	r25
    2b6e:	af 93       	push	r26
    2b70:	bf 93       	push	r27
    2b72:	ef 93       	push	r30
    2b74:	ff 93       	push	r31
	#ifdef CONF_UART_0_INDEX	
		Int8U rcv_byte = 0U;
		//on enregistre l'octet recu
		rcv_byte = UDR0;
    2b76:	80 91 c6 00 	lds	r24, 0x00C6
		//si on a deja recu le start frame
		if( start_frame_uart_0 == FALSE )
    2b7a:	90 91 ef 01 	lds	r25, 0x01EF
    2b7e:	99 23       	and	r25, r25
    2b80:	b1 f4       	brne	.+44     	; 0x2bae <__vector_20+0x5e>
        {
			//si c'est un debut de trame
			if(rcv_byte == '*' )
    2b82:	8a 32       	cpi	r24, 0x2A	; 42
    2b84:	09 f4       	brne	.+2      	; 0x2b88 <__vector_20+0x38>
    2b86:	42 c0       	rjmp	.+132    	; 0x2c0c <__vector_20+0xbc>
				//on lance l'event
				DrvEventAddEvent( CONF_EVENT_HEAD_MSG_RCV );
			}			
		}		
	#endif
}
    2b88:	ff 91       	pop	r31
    2b8a:	ef 91       	pop	r30
    2b8c:	bf 91       	pop	r27
    2b8e:	af 91       	pop	r26
    2b90:	9f 91       	pop	r25
    2b92:	8f 91       	pop	r24
    2b94:	7f 91       	pop	r23
    2b96:	6f 91       	pop	r22
    2b98:	5f 91       	pop	r21
    2b9a:	4f 91       	pop	r20
    2b9c:	3f 91       	pop	r19
    2b9e:	2f 91       	pop	r18
    2ba0:	0f 90       	pop	r0
    2ba2:	0b be       	out	0x3b, r0	; 59
    2ba4:	0f 90       	pop	r0
    2ba6:	0f be       	out	0x3f, r0	; 63
    2ba8:	0f 90       	pop	r0
    2baa:	1f 90       	pop	r1
    2bac:	18 95       	reti
			}
		}
		else
		{
			//on charge le message dans le buff_uart_0er
			buff_uart_0[ptr_buff_uart_0] = rcv_byte;
    2bae:	40 91 ee 01 	lds	r20, 0x01EE
    2bb2:	24 2f       	mov	r18, r20
    2bb4:	30 e0       	ldi	r19, 0x00	; 0
    2bb6:	f9 01       	movw	r30, r18
    2bb8:	e5 5d       	subi	r30, 0xD5	; 213
    2bba:	fc 4f       	sbci	r31, 0xFC	; 252
    2bbc:	80 83       	st	Z, r24
			ptr_buff_uart_0++;	
    2bbe:	4f 5f       	subi	r20, 0xFF	; 255
    2bc0:	40 93 ee 01 	sts	0x01EE, r20
			if(( buff_uart_0[ptr_buff_uart_0 - 1U] == '#' ) && ( buff_uart_0[ptr_buff_uart_0 - 2U] == '#' ))
    2bc4:	84 2f       	mov	r24, r20
    2bc6:	90 e0       	ldi	r25, 0x00	; 0
    2bc8:	85 5d       	subi	r24, 0xD5	; 213
    2bca:	9c 4f       	sbci	r25, 0xFC	; 252
    2bcc:	fc 01       	movw	r30, r24
    2bce:	31 97       	sbiw	r30, 0x01	; 1
    2bd0:	50 81       	ld	r21, Z
    2bd2:	53 32       	cpi	r21, 0x23	; 35
    2bd4:	c9 f6       	brne	.-78     	; 0x2b88 <__vector_20+0x38>
    2bd6:	02 97       	sbiw	r24, 0x02	; 2
    2bd8:	fc 01       	movw	r30, r24
    2bda:	80 81       	ld	r24, Z
    2bdc:	83 32       	cpi	r24, 0x23	; 35
    2bde:	a1 f6       	brne	.-88     	; 0x2b88 <__vector_20+0x38>
			{
				//on charge le message
				for ( Int8U loop_send = 0U ; loop_send < ptr_buff_uart_0 ; loop_send++)
    2be0:	44 23       	and	r20, r20
    2be2:	59 f0       	breq	.+22     	; 0x2bfa <__vector_20+0xaa>
    2be4:	eb e2       	ldi	r30, 0x2B	; 43
    2be6:	f3 e0       	ldi	r31, 0x03	; 3
    2be8:	a9 ef       	ldi	r26, 0xF9	; 249
    2bea:	b2 e0       	ldi	r27, 0x02	; 2

/////////////////////////////////////ISR PRIVATE FUNCTIONS////////////////////////////////////////
//UART0
//-------------------
//ISR uart octet recu 
ISR(USART0_RX_vect)
    2bec:	24 5d       	subi	r18, 0xD4	; 212
    2bee:	3c 4f       	sbci	r19, 0xFC	; 252
			if(( buff_uart_0[ptr_buff_uart_0 - 1U] == '#' ) && ( buff_uart_0[ptr_buff_uart_0 - 2U] == '#' ))
			{
				//on charge le message
				for ( Int8U loop_send = 0U ; loop_send < ptr_buff_uart_0 ; loop_send++)
				{
					in_message_0[ loop_send ] = buff_uart_0[ loop_send ];
    2bf0:	81 91       	ld	r24, Z+
    2bf2:	8d 93       	st	X+, r24
			buff_uart_0[ptr_buff_uart_0] = rcv_byte;
			ptr_buff_uart_0++;	
			if(( buff_uart_0[ptr_buff_uart_0 - 1U] == '#' ) && ( buff_uart_0[ptr_buff_uart_0 - 2U] == '#' ))
			{
				//on charge le message
				for ( Int8U loop_send = 0U ; loop_send < ptr_buff_uart_0 ; loop_send++)
    2bf4:	e2 17       	cp	r30, r18
    2bf6:	f3 07       	cpc	r31, r19
    2bf8:	d9 f7       	brne	.-10     	; 0x2bf0 <__vector_20+0xa0>
				{
					in_message_0[ loop_send ] = buff_uart_0[ loop_send ];
				} 
				//on stock la taille
				in_message_len_0 = ptr_buff_uart_0;
    2bfa:	40 93 ed 01 	sts	0x01ED, r20
				//on attend le start frame
				start_frame_uart_0 = FALSE;				
    2bfe:	10 92 ef 01 	sts	0x01EF, r1
				//on lance l'event
				DrvEventAddEvent( CONF_EVENT_HEAD_MSG_RCV );
    2c02:	86 e0       	ldi	r24, 0x06	; 6
    2c04:	90 e0       	ldi	r25, 0x00	; 0
    2c06:	0e 94 5b 0a 	call	0x14b6	; 0x14b6 <DrvEventAddEvent>
    2c0a:	be cf       	rjmp	.-132    	; 0x2b88 <__vector_20+0x38>
		if( start_frame_uart_0 == FALSE )
        {
			//si c'est un debut de trame
			if(rcv_byte == '*' )
			{
				buff_uart_0[ 0U ] = '*';
    2c0c:	80 93 2b 03 	sts	0x032B, r24
				ptr_buff_uart_0 = 1U;
    2c10:	81 e0       	ldi	r24, 0x01	; 1
    2c12:	80 93 ee 01 	sts	0x01EE, r24
				//on a recu le start frame
				start_frame_uart_0 = TRUE;
    2c16:	80 93 ef 01 	sts	0x01EF, r24
    2c1a:	b6 cf       	rjmp	.-148    	; 0x2b88 <__vector_20+0x38>

00002c1c <__vector_28>:

//UART1
//-------------------
//ISR uart octet recu 
ISR(USART1_RX_vect)
{
    2c1c:	1f 92       	push	r1
    2c1e:	0f 92       	push	r0
    2c20:	0f b6       	in	r0, 0x3f	; 63
    2c22:	0f 92       	push	r0
    2c24:	0b b6       	in	r0, 0x3b	; 59
    2c26:	0f 92       	push	r0
    2c28:	11 24       	eor	r1, r1
    2c2a:	2f 93       	push	r18
    2c2c:	3f 93       	push	r19
    2c2e:	4f 93       	push	r20
    2c30:	5f 93       	push	r21
    2c32:	6f 93       	push	r22
    2c34:	7f 93       	push	r23
    2c36:	8f 93       	push	r24
    2c38:	9f 93       	push	r25
    2c3a:	af 93       	push	r26
    2c3c:	bf 93       	push	r27
    2c3e:	ef 93       	push	r30
    2c40:	ff 93       	push	r31
	#ifdef CONF_UART_1_INDEX		
		Int8U rcv_byte = 0U;
		//on enregistre l'octet recu
		rcv_byte = UDR1;
    2c42:	80 91 ce 00 	lds	r24, 0x00CE
		//si on a deja recu le start frame
		if( start_frame_uart_1 == FALSE )
    2c46:	90 91 f2 01 	lds	r25, 0x01F2
    2c4a:	99 23       	and	r25, r25
    2c4c:	b1 f4       	brne	.+44     	; 0x2c7a <__vector_28+0x5e>
        {
			//si c'est un debut de trame
			if(rcv_byte == '*' )
    2c4e:	8a 32       	cpi	r24, 0x2A	; 42
    2c50:	09 f4       	brne	.+2      	; 0x2c54 <__vector_28+0x38>
    2c52:	42 c0       	rjmp	.+132    	; 0x2cd8 <__vector_28+0xbc>
				//on lance l'event
				DrvEventAddEvent( CONF_EVENT_DIGI_MSG_RCV );
			}			
		}		
	#endif
}
    2c54:	ff 91       	pop	r31
    2c56:	ef 91       	pop	r30
    2c58:	bf 91       	pop	r27
    2c5a:	af 91       	pop	r26
    2c5c:	9f 91       	pop	r25
    2c5e:	8f 91       	pop	r24
    2c60:	7f 91       	pop	r23
    2c62:	6f 91       	pop	r22
    2c64:	5f 91       	pop	r21
    2c66:	4f 91       	pop	r20
    2c68:	3f 91       	pop	r19
    2c6a:	2f 91       	pop	r18
    2c6c:	0f 90       	pop	r0
    2c6e:	0b be       	out	0x3b, r0	; 59
    2c70:	0f 90       	pop	r0
    2c72:	0f be       	out	0x3f, r0	; 63
    2c74:	0f 90       	pop	r0
    2c76:	1f 90       	pop	r1
    2c78:	18 95       	reti
			}
		}
		else
		{
			//on charge le message dans le buff_uart_0er
			buff_uart_1[ptr_buff_uart_1] = rcv_byte;
    2c7a:	40 91 f1 01 	lds	r20, 0x01F1
    2c7e:	24 2f       	mov	r18, r20
    2c80:	30 e0       	ldi	r19, 0x00	; 0
    2c82:	f9 01       	movw	r30, r18
    2c84:	eb 56       	subi	r30, 0x6B	; 107
    2c86:	fd 4f       	sbci	r31, 0xFD	; 253
    2c88:	80 83       	st	Z, r24
			ptr_buff_uart_1++;	
    2c8a:	4f 5f       	subi	r20, 0xFF	; 255
    2c8c:	40 93 f1 01 	sts	0x01F1, r20
			if(( buff_uart_1[ptr_buff_uart_1 - 1U] == '#' ) && ( buff_uart_1[ptr_buff_uart_1 - 2U] == '#' ))
    2c90:	84 2f       	mov	r24, r20
    2c92:	90 e0       	ldi	r25, 0x00	; 0
    2c94:	8b 56       	subi	r24, 0x6B	; 107
    2c96:	9d 4f       	sbci	r25, 0xFD	; 253
    2c98:	fc 01       	movw	r30, r24
    2c9a:	31 97       	sbiw	r30, 0x01	; 1
    2c9c:	50 81       	ld	r21, Z
    2c9e:	53 32       	cpi	r21, 0x23	; 35
    2ca0:	c9 f6       	brne	.-78     	; 0x2c54 <__vector_28+0x38>
    2ca2:	02 97       	sbiw	r24, 0x02	; 2
    2ca4:	fc 01       	movw	r30, r24
    2ca6:	80 81       	ld	r24, Z
    2ca8:	83 32       	cpi	r24, 0x23	; 35
    2caa:	a1 f6       	brne	.-88     	; 0x2c54 <__vector_28+0x38>
			{
				//on charge le message
				for ( Int8U loop_send = 0U ; loop_send < ptr_buff_uart_1 ; loop_send++)
    2cac:	44 23       	and	r20, r20
    2cae:	59 f0       	breq	.+22     	; 0x2cc6 <__vector_28+0xaa>
    2cb0:	e5 e9       	ldi	r30, 0x95	; 149
    2cb2:	f2 e0       	ldi	r31, 0x02	; 2
    2cb4:	a7 ec       	ldi	r26, 0xC7	; 199
    2cb6:	b2 e0       	ldi	r27, 0x02	; 2
}

//UART1
//-------------------
//ISR uart octet recu 
ISR(USART1_RX_vect)
    2cb8:	2a 56       	subi	r18, 0x6A	; 106
    2cba:	3d 4f       	sbci	r19, 0xFD	; 253
			if(( buff_uart_1[ptr_buff_uart_1 - 1U] == '#' ) && ( buff_uart_1[ptr_buff_uart_1 - 2U] == '#' ))
			{
				//on charge le message
				for ( Int8U loop_send = 0U ; loop_send < ptr_buff_uart_1 ; loop_send++)
				{
					in_message_1[ loop_send ] = buff_uart_1[ loop_send ];
    2cbc:	81 91       	ld	r24, Z+
    2cbe:	8d 93       	st	X+, r24
			buff_uart_1[ptr_buff_uart_1] = rcv_byte;
			ptr_buff_uart_1++;	
			if(( buff_uart_1[ptr_buff_uart_1 - 1U] == '#' ) && ( buff_uart_1[ptr_buff_uart_1 - 2U] == '#' ))
			{
				//on charge le message
				for ( Int8U loop_send = 0U ; loop_send < ptr_buff_uart_1 ; loop_send++)
    2cc0:	e2 17       	cp	r30, r18
    2cc2:	f3 07       	cpc	r31, r19
    2cc4:	d9 f7       	brne	.-10     	; 0x2cbc <__vector_28+0xa0>
				{
					in_message_1[ loop_send ] = buff_uart_1[ loop_send ];
				} 
				//on stock la taille
				in_message_len_1 = ptr_buff_uart_1;
    2cc6:	40 93 f0 01 	sts	0x01F0, r20
				//on attend le start frame
				start_frame_uart_1 = FALSE;				
    2cca:	10 92 f2 01 	sts	0x01F2, r1
				//on lance l'event
				DrvEventAddEvent( CONF_EVENT_DIGI_MSG_RCV );
    2cce:	85 e0       	ldi	r24, 0x05	; 5
    2cd0:	90 e0       	ldi	r25, 0x00	; 0
    2cd2:	0e 94 5b 0a 	call	0x14b6	; 0x14b6 <DrvEventAddEvent>
    2cd6:	be cf       	rjmp	.-132    	; 0x2c54 <__vector_28+0x38>
		if( start_frame_uart_1 == FALSE )
        {
			//si c'est un debut de trame
			if(rcv_byte == '*' )
			{
				buff_uart_1[ 0U ] = '*';
    2cd8:	80 93 95 02 	sts	0x0295, r24
				ptr_buff_uart_1 = 1U;
    2cdc:	81 e0       	ldi	r24, 0x01	; 1
    2cde:	80 93 f1 01 	sts	0x01F1, r24
				//on a recu le start frame
				start_frame_uart_1 = TRUE;
    2ce2:	80 93 f2 01 	sts	0x01F2, r24
    2ce6:	b6 cf       	rjmp	.-148    	; 0x2c54 <__vector_28+0x38>

00002ce8 <main>:
static Boolean MainInitSystemDrivers(void)
{
	Boolean o_success = TRUE;
	
	//init des drivers
 	DrvTimer();
    2ce8:	0e 94 d3 13 	call	0x27a6	; 0x27a6 <DrvTimer>
	DrvEvent();
    2cec:	0e 94 33 0a 	call	0x1466	; 0x1466 <DrvEvent>
	DrvLed();
    2cf0:	0e 94 56 0c 	call	0x18ac	; 0x18ac <DrvLed>
	DrvUart();
    2cf4:	0e 94 29 15 	call	0x2a52	; 0x2a52 <DrvUart>
	DrvServo();
    2cf8:	0e 94 ab 0d 	call	0x1b56	; 0x1b56 <DrvServo>
static Boolean MainInitSystemControl( void ) 
{
	Boolean o_success = TRUE;
	
	//init des controls
	CtrlUartProtocole();
    2cfc:	0e 94 4f 09 	call	0x129e	; 0x129e <CtrlUartProtocole>
	CtrlTete();
    2d00:	0e 94 ef 08 	call	0x11de	; 0x11de <CtrlTete>
	CtrlMarche();
    2d04:	0e 94 8e 01 	call	0x31c	; 0x31c <CtrlMarche>
	
	//on lance nos controles
	MainInitSystemControl();
	
	//lance les its
	DrvInterruptSetAllInterrupts();
    2d08:	0e 94 70 0a 	call	0x14e0	; 0x14e0 <DrvInterruptSetAllInterrupts>
    2d0c:	09 c0       	rjmp	.+18     	; 0x2d20 <main+0x38>
		
		//on fait vivre le robot
		//RobotLife( main_event_flags );
		
		//on kill les events
		DrvEventKillEvent( main_event_flags );	
    2d0e:	80 91 f3 01 	lds	r24, 0x01F3
    2d12:	90 91 f4 01 	lds	r25, 0x01F4
    2d16:	0e 94 38 0a 	call	0x1470	; 0x1470 <DrvEventKillEvent>
		
		//on toggle la led activity
		//elle permet de controler que l'on passe souvent dans la boucle infini du main
		DrvLedToggle ( CONF_LED_ACTIVITY );
    2d1a:	80 e0       	ldi	r24, 0x00	; 0
    2d1c:	0e 94 7c 0d 	call	0x1af8	; 0x1af8 <DrvLedToggle>
	
	//on boucle à l'infini
    while( TRUE )
    {
		//on prend les events 
		main_event_flags = DrvEventGetEvent();
    2d20:	0e 94 47 0a 	call	0x148e	; 0x148e <DrvEventGetEvent>
    2d24:	90 93 f4 01 	sts	0x01F4, r25
    2d28:	80 93 f3 01 	sts	0x01F3, r24

//excecution du dispatcher d'evenement
static void MainSystemControlDispatcher( void )
{
	//get next event
	if( main_event_flags > 0 )
    2d2c:	80 91 f3 01 	lds	r24, 0x01F3
    2d30:	90 91 f4 01 	lds	r25, 0x01F4
    2d34:	00 97       	sbiw	r24, 0x00	; 0
    2d36:	59 f3       	breq	.-42     	; 0x2d0e <main+0x26>
	{
		//on dispatch l'event sur les different services
		CtrlUartProtocoleDispatcher( main_event_flags );
    2d38:	80 91 f3 01 	lds	r24, 0x01F3
    2d3c:	90 91 f4 01 	lds	r25, 0x01F4
    2d40:	0e 94 50 09 	call	0x12a0	; 0x12a0 <CtrlUartProtocoleDispatcher>
		CtrlMarcheDispatcher( main_event_flags );
    2d44:	80 91 f3 01 	lds	r24, 0x01F3
    2d48:	90 91 f4 01 	lds	r25, 0x01F4
    2d4c:	0e 94 97 01 	call	0x32e	; 0x32e <CtrlMarcheDispatcher>
		CtrlTeteDispatcher( main_event_flags );
    2d50:	80 91 f3 01 	lds	r24, 0x01F3
    2d54:	90 91 f4 01 	lds	r25, 0x01F4
    2d58:	0e 94 08 09 	call	0x1210	; 0x1210 <CtrlTeteDispatcher>
}	

//excecution du heartbeat
static void MainSystemControlHearbeat( void )
{
	if ( DrvEventTestEvent(main_event_flags, CONF_EVENT_TIMER_1S ))
    2d5c:	80 91 f3 01 	lds	r24, 0x01F3
    2d60:	90 91 f4 01 	lds	r25, 0x01F4
    2d64:	62 e0       	ldi	r22, 0x02	; 2
    2d66:	0e 94 4c 0a 	call	0x1498	; 0x1498 <DrvEventTestEvent>
    2d6a:	88 23       	and	r24, r24
    2d6c:	81 f2       	breq	.-96     	; 0x2d0e <main+0x26>
	{
		DrvLedToggle ( CONF_LED_HEARTBEAT );
    2d6e:	81 e0       	ldi	r24, 0x01	; 1
    2d70:	0e 94 7c 0d 	call	0x1af8	; 0x1af8 <DrvLedToggle>
    2d74:	cc cf       	rjmp	.-104    	; 0x2d0e <main+0x26>

00002d76 <micAdcSetReferenceSelectionBits>:

//Set the REFS1:0: Reference Selection Bits
Boolean micAdcSetReferenceSelectionBits( EAdcReferenceSelectionBits mode ) 
{
	Boolean o_success = TRUE;
	ADMUX = ( ADMUX & ~( ( 1U << REFS1 ) | ( 1U << REFS0 ) ) ) |\
    2d76:	ec e7       	ldi	r30, 0x7C	; 124
    2d78:	f0 e0       	ldi	r31, 0x00	; 0
    2d7a:	90 81       	ld	r25, Z
    2d7c:	80 7c       	andi	r24, 0xC0	; 192
    2d7e:	9f 73       	andi	r25, 0x3F	; 63
    2d80:	89 2b       	or	r24, r25
    2d82:	80 83       	st	Z, r24
             ( mode   &  ( ( 1U << REFS1 ) | ( 1U << REFS0 ) ) );
	return o_success;
}
    2d84:	81 e0       	ldi	r24, 0x01	; 1
    2d86:	08 95       	ret

00002d88 <micAdcSetLeftAdjustResult>:

//Set the ADLAR: ADC Left Adjust Result
Boolean micAdcSetLeftAdjustResult( void ) 
{
	Boolean o_success = TRUE;
	BIT_SET(ADMUX,ADLAR,TRUE);
    2d88:	ec e7       	ldi	r30, 0x7C	; 124
    2d8a:	f0 e0       	ldi	r31, 0x00	; 0
    2d8c:	80 81       	ld	r24, Z
    2d8e:	80 62       	ori	r24, 0x20	; 32
    2d90:	80 83       	st	Z, r24
	return o_success;
}
    2d92:	81 e0       	ldi	r24, 0x01	; 1
    2d94:	08 95       	ret

00002d96 <micAdcGetLeftAdjustResult>:

//Get the ADLAR: ADC Left Adjust Result
Boolean micAdcGetLeftAdjustResult( void ) 
{
	return (Boolean)(ADMUX & ( 1 << ADLAR) >> ADLAR);
    2d96:	80 91 7c 00 	lds	r24, 0x007C
}
    2d9a:	81 70       	andi	r24, 0x01	; 1
    2d9c:	08 95       	ret

00002d9e <micAdcClearLeftAdjustResult>:

//Clear the ADLAR: ADC Left Adjust Result
Boolean micAdcClearLeftAdjustResult( void ) 
{
	Boolean o_success = TRUE;
	BIT_SET(ADMUX,ADLAR,FALSE);
    2d9e:	ec e7       	ldi	r30, 0x7C	; 124
    2da0:	f0 e0       	ldi	r31, 0x00	; 0
    2da2:	80 81       	ld	r24, Z
    2da4:	8f 7d       	andi	r24, 0xDF	; 223
    2da6:	80 83       	st	Z, r24
	return o_success;
}
    2da8:	81 e0       	ldi	r24, 0x01	; 1
    2daa:	08 95       	ret

00002dac <micAdcSetAnalogChannelandGainSelectionBits>:

//Set the MUX4:0: Analog Channel and Gain Selection Bits
Boolean micAdcSetAnalogChannelandGainSelectionBits( EAdcChannelSelection adc_channel ) 
{
	Boolean o_success = TRUE;
	ADMUX = (ADMUX & ~( (1U << MUX4) | (1U << MUX3) | (1U << MUX2) | (1U << MUX1) | (1U << MUX0) )) |
    2dac:	ec e7       	ldi	r30, 0x7C	; 124
    2dae:	f0 e0       	ldi	r31, 0x00	; 0
    2db0:	90 81       	ld	r25, Z
    2db2:	8f 71       	andi	r24, 0x1F	; 31
    2db4:	90 7e       	andi	r25, 0xE0	; 224
    2db6:	89 2b       	or	r24, r25
    2db8:	80 83       	st	Z, r24
	         (adc_channel & ( (1U << MUX4) | (1U << MUX3) | (1U << MUX2) | (1U << MUX1) | (1U << MUX0) ) );
	return o_success;
}
    2dba:	81 e0       	ldi	r24, 0x01	; 1
    2dbc:	08 95       	ret

00002dbe <micAdcGetAnalogChannelandGainSelectionBits>:

//Get the MUX4:0: Analog Channel and Gain Selection Bits
EAdcChannelSelection micAdcGetAnalogChannelandGainSelectionBits( void ) 
{
	return (EAdcChannelSelection)( ADMUX & ( (1U << MUX4) | (1U << MUX3) | (1U << MUX2) | (1U << MUX1) | (1U << MUX0) ) );
    2dbe:	80 91 7c 00 	lds	r24, 0x007C
}
    2dc2:	8f 71       	andi	r24, 0x1F	; 31
    2dc4:	08 95       	ret

00002dc6 <micAdcSetAdcEnable>:

//Set the ADEN: ADC Enable
Boolean micAdcSetAdcEnable( void ) 
{
	Boolean o_success = TRUE;
	BIT_SET(ADCSRA,ADEN,TRUE);
    2dc6:	ea e7       	ldi	r30, 0x7A	; 122
    2dc8:	f0 e0       	ldi	r31, 0x00	; 0
    2dca:	80 81       	ld	r24, Z
    2dcc:	80 68       	ori	r24, 0x80	; 128
    2dce:	80 83       	st	Z, r24
	return o_success;
}
    2dd0:	81 e0       	ldi	r24, 0x01	; 1
    2dd2:	08 95       	ret

00002dd4 <micAdcSetAdcDisable>:

//Set the ADEN: ADC Disable
Boolean micAdcSetAdcDisable( void ) 
{
	Boolean o_success = TRUE;
	BIT_SET(ADCSRA,ADEN,FALSE);
    2dd4:	ea e7       	ldi	r30, 0x7A	; 122
    2dd6:	f0 e0       	ldi	r31, 0x00	; 0
    2dd8:	80 81       	ld	r24, Z
    2dda:	8f 77       	andi	r24, 0x7F	; 127
    2ddc:	80 83       	st	Z, r24
	return o_success;
}
    2dde:	81 e0       	ldi	r24, 0x01	; 1
    2de0:	08 95       	ret

00002de2 <micAdcSetStartConversion>:

//Set the ADSC: ADC Start Conversion
Boolean micAdcSetStartConversion( void ) 
{
	Boolean o_success = TRUE;
	BIT_SET(ADCSRA,ADSC,TRUE);
    2de2:	ea e7       	ldi	r30, 0x7A	; 122
    2de4:	f0 e0       	ldi	r31, 0x00	; 0
    2de6:	80 81       	ld	r24, Z
    2de8:	80 64       	ori	r24, 0x40	; 64
    2dea:	80 83       	st	Z, r24
	return o_success;
}
    2dec:	81 e0       	ldi	r24, 0x01	; 1
    2dee:	08 95       	ret

00002df0 <micAdcSetAutoTriggerEnable>:

//Set the ADATE: ADC Auto Trigger Enable
Boolean micAdcSetAutoTriggerEnable( void ) 
{
	Boolean o_success = TRUE;
	BIT_SET(ADCSRA,ADATE,TRUE);
    2df0:	ea e7       	ldi	r30, 0x7A	; 122
    2df2:	f0 e0       	ldi	r31, 0x00	; 0
    2df4:	80 81       	ld	r24, Z
    2df6:	80 62       	ori	r24, 0x20	; 32
    2df8:	80 83       	st	Z, r24
	return o_success;
}
    2dfa:	81 e0       	ldi	r24, 0x01	; 1
    2dfc:	08 95       	ret

00002dfe <micAdcSetAutoTriggerDisable>:

//Set the ADATE: ADC Auto Trigger Disable
Boolean micAdcSetAutoTriggerDisable( void ) 
{
	Boolean o_success = TRUE;
	BIT_SET(ADCSRA,ADATE,FALSE);
    2dfe:	ea e7       	ldi	r30, 0x7A	; 122
    2e00:	f0 e0       	ldi	r31, 0x00	; 0
    2e02:	80 81       	ld	r24, Z
    2e04:	8f 7d       	andi	r24, 0xDF	; 223
    2e06:	80 83       	st	Z, r24
	return o_success;
}
    2e08:	81 e0       	ldi	r24, 0x01	; 1
    2e0a:	08 95       	ret

00002e0c <micAdcClearConversionCompletedFlag>:
//Clear the ADIF: ADC Interrupt Flag
Boolean micAdcClearConversionCompletedFlag(void) 
{
	Boolean o_success = TRUE;
	// To avoid to restart a conversion when clearing ADIF
	ADCSRA = ( ADCSRA & ~( 1U << ADSC ) ) | ( 1U<< ADIF );
    2e0c:	ea e7       	ldi	r30, 0x7A	; 122
    2e0e:	f0 e0       	ldi	r31, 0x00	; 0
    2e10:	80 81       	ld	r24, Z
    2e12:	8f 7a       	andi	r24, 0xAF	; 175
    2e14:	80 61       	ori	r24, 0x10	; 16
    2e16:	80 83       	st	Z, r24
	return o_success;
}
    2e18:	81 e0       	ldi	r24, 0x01	; 1
    2e1a:	08 95       	ret

00002e1c <micAdcSetInterrupt>:

//Set the ADIE: ADC Interrupt Enable
Boolean micAdcSetInterrupt(void)
{
	Boolean o_success = TRUE;
	BIT_SET(ADCSRA,ADIE,TRUE);
    2e1c:	ea e7       	ldi	r30, 0x7A	; 122
    2e1e:	f0 e0       	ldi	r31, 0x00	; 0
    2e20:	80 81       	ld	r24, Z
    2e22:	88 60       	ori	r24, 0x08	; 8
    2e24:	80 83       	st	Z, r24
	return o_success;
}
    2e26:	81 e0       	ldi	r24, 0x01	; 1
    2e28:	08 95       	ret

00002e2a <micAdcClearInterrupt>:

//Set the ADIE: ADC Interrupt Disable
Boolean micAdcClearInterrupt(void)
{
	Boolean o_success = TRUE;
	BIT_SET(ADCSRA,ADIE,FALSE);
    2e2a:	ea e7       	ldi	r30, 0x7A	; 122
    2e2c:	f0 e0       	ldi	r31, 0x00	; 0
    2e2e:	80 81       	ld	r24, Z
    2e30:	87 7f       	andi	r24, 0xF7	; 247
    2e32:	80 83       	st	Z, r24
	return o_success;
}
    2e34:	81 e0       	ldi	r24, 0x01	; 1
    2e36:	08 95       	ret

00002e38 <micAdcSetPrescalerSelectBits>:

//Set the ADPS2:0: ADC Prescaler Select Bits
Boolean micAdcSetPrescalerSelectBits( EAdcClock adc_clock )
{
	Boolean o_success = TRUE;
	ADCSRA = (ADCSRA & ~((1U << ADPS2) | (1U << ADPS1) | (1U << ADPS0))) |\
    2e38:	ea e7       	ldi	r30, 0x7A	; 122
    2e3a:	f0 e0       	ldi	r31, 0x00	; 0
    2e3c:	90 81       	ld	r25, Z
    2e3e:	87 70       	andi	r24, 0x07	; 7
    2e40:	98 7f       	andi	r25, 0xF8	; 248
    2e42:	89 2b       	or	r24, r25
    2e44:	80 83       	st	Z, r24
			 (adc_clock & ((1U << ADPS2) | (1U << ADPS1) | (1U << ADPS0)));
	return o_success;
}
    2e46:	81 e0       	ldi	r24, 0x01	; 1
    2e48:	08 95       	ret

00002e4a <micAdcSetAutoTriggerSource>:

//Set the ADTS2:0: ADC Auto Trigger Source
Boolean micAdcSetAutoTriggerSource( EAdcTrigger adc_trigger_source )
{
	Boolean o_success = TRUE;
    ADCSRB = (ADCSRB &  ~((1U << ADTS2) | (1U << ADTS1) | (1U << ADTS0))) |\
    2e4a:	eb e7       	ldi	r30, 0x7B	; 123
    2e4c:	f0 e0       	ldi	r31, 0x00	; 0
    2e4e:	90 81       	ld	r25, Z
    2e50:	87 70       	andi	r24, 0x07	; 7
    2e52:	98 7f       	andi	r25, 0xF8	; 248
    2e54:	89 2b       	or	r24, r25
    2e56:	80 83       	st	Z, r24
             (adc_trigger_source &  ((1U << ADTS2) | (1U << ADTS1) | (1U << ADTS0)));
	return o_success;
}
    2e58:	81 e0       	ldi	r24, 0x01	; 1
    2e5a:	08 95       	ret

00002e5c <micAdcReadData8>:
}

//Get the ADLAR: ADC Left Adjust Result
Boolean micAdcGetLeftAdjustResult( void ) 
{
	return (Boolean)(ADMUX & ( 1 << ADLAR) >> ADLAR);
    2e5c:	80 91 7c 00 	lds	r24, 0x007C
}

//Get the ADC Conversion Result
Int8U micAdcReadData8( void )
{
	if(micAdcGetLeftAdjustResult() == TRUE)
    2e60:	80 fd       	sbrc	r24, 0
    2e62:	03 c0       	rjmp	.+6      	; 0x2e6a <micAdcReadData8+0xe>
	{	
		return ADCH;	
	}
	else
	{
		return ADCL;	
    2e64:	80 91 78 00 	lds	r24, 0x0078
	}
}
    2e68:	08 95       	ret
//Get the ADC Conversion Result
Int8U micAdcReadData8( void )
{
	if(micAdcGetLeftAdjustResult() == TRUE)
	{	
		return ADCH;	
    2e6a:	80 91 79 00 	lds	r24, 0x0079
    2e6e:	08 95       	ret

00002e70 <micAdcReadData16>:
}

//Get the ADC Conversion Result
Int16U micAdcReadData16( void )
{
	return ADC;	
    2e70:	20 91 78 00 	lds	r18, 0x0078
    2e74:	30 91 79 00 	lds	r19, 0x0079
}
    2e78:	c9 01       	movw	r24, r18
    2e7a:	08 95       	ret

00002e7c <micInterruptMasterControlUnitInterruptVectorSelect>:

//set the IVSEL: Interrupt Vector Select
Boolean micInterruptMasterControlUnitInterruptVectorSelect( Boolean enable ) 
{
	Boolean o_success = TRUE;
	BIT_SET(MCUCR,IVSEL,enable);
    2e7c:	88 23       	and	r24, r24
    2e7e:	29 f4       	brne	.+10     	; 0x2e8a <micInterruptMasterControlUnitInterruptVectorSelect+0xe>
    2e80:	85 b7       	in	r24, 0x35	; 53
    2e82:	8d 7f       	andi	r24, 0xFD	; 253
    2e84:	85 bf       	out	0x35, r24	; 53
	return o_success;
}
    2e86:	81 e0       	ldi	r24, 0x01	; 1
    2e88:	08 95       	ret

//set the IVSEL: Interrupt Vector Select
Boolean micInterruptMasterControlUnitInterruptVectorSelect( Boolean enable ) 
{
	Boolean o_success = TRUE;
	BIT_SET(MCUCR,IVSEL,enable);
    2e8a:	85 b7       	in	r24, 0x35	; 53
    2e8c:	82 60       	ori	r24, 0x02	; 2
    2e8e:	85 bf       	out	0x35, r24	; 53
	return o_success;
}
    2e90:	81 e0       	ldi	r24, 0x01	; 1
    2e92:	08 95       	ret

00002e94 <micInterruptMasterControlUnitInterruptVectorChangeEnable>:

//set the IVCE: Interrupt Vector Change Enable
Boolean micInterruptMasterControlUnitInterruptVectorChangeEnable( Boolean enable ) 
{
	Boolean o_success = TRUE;
	BIT_SET(MCUCR,IVCE,enable);
    2e94:	88 23       	and	r24, r24
    2e96:	29 f4       	brne	.+10     	; 0x2ea2 <micInterruptMasterControlUnitInterruptVectorChangeEnable+0xe>
    2e98:	85 b7       	in	r24, 0x35	; 53
    2e9a:	8e 7f       	andi	r24, 0xFE	; 254
    2e9c:	85 bf       	out	0x35, r24	; 53
	return o_success;
}
    2e9e:	81 e0       	ldi	r24, 0x01	; 1
    2ea0:	08 95       	ret

//set the IVCE: Interrupt Vector Change Enable
Boolean micInterruptMasterControlUnitInterruptVectorChangeEnable( Boolean enable ) 
{
	Boolean o_success = TRUE;
	BIT_SET(MCUCR,IVCE,enable);
    2ea2:	85 b7       	in	r24, 0x35	; 53
    2ea4:	81 60       	ori	r24, 0x01	; 1
    2ea6:	85 bf       	out	0x35, r24	; 53
	return o_success;
}
    2ea8:	81 e0       	ldi	r24, 0x01	; 1
    2eaa:	08 95       	ret

00002eac <micInterruptSenseControlBits0>:

//set the ISC21, ISC20  ISC00, ISC00: External Interrupt 2 - 0 Sense Control Bits
Boolean micInterruptSenseControlBits0( EInterruptTrigger_0  trigger ) 
{
	Boolean o_success = TRUE;
	EICRA |= trigger;
    2eac:	e9 e6       	ldi	r30, 0x69	; 105
    2eae:	f0 e0       	ldi	r31, 0x00	; 0
    2eb0:	90 81       	ld	r25, Z
    2eb2:	98 2b       	or	r25, r24
    2eb4:	90 83       	st	Z, r25
	return o_success;
}
    2eb6:	81 e0       	ldi	r24, 0x01	; 1
    2eb8:	08 95       	ret

00002eba <micInterruptSenseControlBits1>:

//set the ISC21, ISC20  ISC00, ISC00: External Interrupt 2 - 0 Sense Control Bits
Boolean micInterruptSenseControlBits1( EInterruptTrigger_1  trigger ) 
{
	Boolean o_success = TRUE;
	EICRA |= trigger;
    2eba:	e9 e6       	ldi	r30, 0x69	; 105
    2ebc:	f0 e0       	ldi	r31, 0x00	; 0
    2ebe:	90 81       	ld	r25, Z
    2ec0:	98 2b       	or	r25, r24
    2ec2:	90 83       	st	Z, r25
	return o_success;
}
    2ec4:	81 e0       	ldi	r24, 0x01	; 1
    2ec6:	08 95       	ret

00002ec8 <micInterruptSenseControlBits2>:

//set the ISC21, ISC20  ISC00, ISC00: External Interrupt 2 - 0 Sense Control Bits
Boolean micInterruptSenseControlBits2( EInterruptTrigger_2  trigger ) 
{
	Boolean o_success = TRUE;
	EICRA |= trigger;
    2ec8:	e9 e6       	ldi	r30, 0x69	; 105
    2eca:	f0 e0       	ldi	r31, 0x00	; 0
    2ecc:	90 81       	ld	r25, Z
    2ece:	98 2b       	or	r25, r24
    2ed0:	90 83       	st	Z, r25
	return o_success;
}
    2ed2:	81 e0       	ldi	r24, 0x01	; 1
    2ed4:	08 95       	ret

00002ed6 <micInterruptExternalInterruptRequestEnable0>:

//set the INT2:0: External Interrupt Request 2 - 0 Enable
Boolean micInterruptExternalInterruptRequestEnable0( Boolean enable ) 
{
	Boolean o_success = TRUE;
	BIT_SET(EIMSK,INT0,enable);
    2ed6:	88 23       	and	r24, r24
    2ed8:	19 f4       	brne	.+6      	; 0x2ee0 <micInterruptExternalInterruptRequestEnable0+0xa>
    2eda:	e8 98       	cbi	0x1d, 0	; 29
	return o_success;
}
    2edc:	81 e0       	ldi	r24, 0x01	; 1
    2ede:	08 95       	ret

//set the INT2:0: External Interrupt Request 2 - 0 Enable
Boolean micInterruptExternalInterruptRequestEnable0( Boolean enable ) 
{
	Boolean o_success = TRUE;
	BIT_SET(EIMSK,INT0,enable);
    2ee0:	e8 9a       	sbi	0x1d, 0	; 29
	return o_success;
}
    2ee2:	81 e0       	ldi	r24, 0x01	; 1
    2ee4:	08 95       	ret

00002ee6 <micInterruptExternalInterruptRequestEnable1>:

//set the INT2:0: External Interrupt Request 2 - 0 Enable
Boolean micInterruptExternalInterruptRequestEnable1( Boolean enable ) 
{
	Boolean o_success = TRUE;
	BIT_SET(EIMSK,INT1,enable);
    2ee6:	88 23       	and	r24, r24
    2ee8:	19 f4       	brne	.+6      	; 0x2ef0 <micInterruptExternalInterruptRequestEnable1+0xa>
    2eea:	e9 98       	cbi	0x1d, 1	; 29
	return o_success;
}
    2eec:	81 e0       	ldi	r24, 0x01	; 1
    2eee:	08 95       	ret

//set the INT2:0: External Interrupt Request 2 - 0 Enable
Boolean micInterruptExternalInterruptRequestEnable1( Boolean enable ) 
{
	Boolean o_success = TRUE;
	BIT_SET(EIMSK,INT1,enable);
    2ef0:	e9 9a       	sbi	0x1d, 1	; 29
	return o_success;
}
    2ef2:	81 e0       	ldi	r24, 0x01	; 1
    2ef4:	08 95       	ret

00002ef6 <micInterruptExternalInterruptRequestEnable2>:

//set the INT2:0: External Interrupt Request 2 - 0 Enable
Boolean micInterruptExternalInterruptRequestEnable2( Boolean enable ) 
{
	Boolean o_success = TRUE;
	BIT_SET(EIMSK,INT2,enable);
    2ef6:	88 23       	and	r24, r24
    2ef8:	19 f4       	brne	.+6      	; 0x2f00 <micInterruptExternalInterruptRequestEnable2+0xa>
    2efa:	ea 98       	cbi	0x1d, 2	; 29
	return o_success;
}
    2efc:	81 e0       	ldi	r24, 0x01	; 1
    2efe:	08 95       	ret

//set the INT2:0: External Interrupt Request 2 - 0 Enable
Boolean micInterruptExternalInterruptRequestEnable2( Boolean enable ) 
{
	Boolean o_success = TRUE;
	BIT_SET(EIMSK,INT2,enable);
    2f00:	ea 9a       	sbi	0x1d, 2	; 29
	return o_success;
}
    2f02:	81 e0       	ldi	r24, 0x01	; 1
    2f04:	08 95       	ret

00002f06 <micInterruptExternalInterruptFlags0>:

//set the INTF2:0: External Interrupt Flags 2 - 0
Boolean micInterruptExternalInterruptFlags0( Boolean enable ) 
{
	Boolean o_success = TRUE;
	BIT_SET(EIFR,INTF0,enable);
    2f06:	88 23       	and	r24, r24
    2f08:	19 f4       	brne	.+6      	; 0x2f10 <micInterruptExternalInterruptFlags0+0xa>
    2f0a:	e0 98       	cbi	0x1c, 0	; 28
	return o_success;
}
    2f0c:	81 e0       	ldi	r24, 0x01	; 1
    2f0e:	08 95       	ret

//set the INTF2:0: External Interrupt Flags 2 - 0
Boolean micInterruptExternalInterruptFlags0( Boolean enable ) 
{
	Boolean o_success = TRUE;
	BIT_SET(EIFR,INTF0,enable);
    2f10:	e0 9a       	sbi	0x1c, 0	; 28
	return o_success;
}
    2f12:	81 e0       	ldi	r24, 0x01	; 1
    2f14:	08 95       	ret

00002f16 <micInterruptExternalInterruptFlags1>:

//set the INTF2:0: External Interrupt Flags 2 - 0
Boolean micInterruptExternalInterruptFlags1( Boolean enable ) 
{
	Boolean o_success = TRUE;
	BIT_SET(EIFR,INTF1,enable);
    2f16:	88 23       	and	r24, r24
    2f18:	19 f4       	brne	.+6      	; 0x2f20 <micInterruptExternalInterruptFlags1+0xa>
    2f1a:	e1 98       	cbi	0x1c, 1	; 28
	return o_success;
}
    2f1c:	81 e0       	ldi	r24, 0x01	; 1
    2f1e:	08 95       	ret

//set the INTF2:0: External Interrupt Flags 2 - 0
Boolean micInterruptExternalInterruptFlags1( Boolean enable ) 
{
	Boolean o_success = TRUE;
	BIT_SET(EIFR,INTF1,enable);
    2f20:	e1 9a       	sbi	0x1c, 1	; 28
	return o_success;
}
    2f22:	81 e0       	ldi	r24, 0x01	; 1
    2f24:	08 95       	ret

00002f26 <micInterruptExternalInterruptFlags2>:

//set the INTF2:0: External Interrupt Flags 2 - 0
Boolean micInterruptExternalInterruptFlags2( Boolean enable ) 
{
	Boolean o_success = TRUE;
	BIT_SET(EIFR,INTF2,enable);
    2f26:	88 23       	and	r24, r24
    2f28:	19 f4       	brne	.+6      	; 0x2f30 <micInterruptExternalInterruptFlags2+0xa>
    2f2a:	e2 98       	cbi	0x1c, 2	; 28
	return o_success;
}
    2f2c:	81 e0       	ldi	r24, 0x01	; 1
    2f2e:	08 95       	ret

//set the INTF2:0: External Interrupt Flags 2 - 0
Boolean micInterruptExternalInterruptFlags2( Boolean enable ) 
{
	Boolean o_success = TRUE;
	BIT_SET(EIFR,INTF2,enable);
    2f30:	e2 9a       	sbi	0x1c, 2	; 28
	return o_success;
}
    2f32:	81 e0       	ldi	r24, 0x01	; 1
    2f34:	08 95       	ret

00002f36 <micInterruptPinChangeInterruptEnable0>:

//set the PCIE0: Pin Change Interrupt Enable 0
Boolean micInterruptPinChangeInterruptEnable0( Boolean enable ) 
{
	Boolean o_success = TRUE;
	BIT_SET(PCICR,PCIE0,enable);
    2f36:	88 23       	and	r24, r24
    2f38:	39 f4       	brne	.+14     	; 0x2f48 <micInterruptPinChangeInterruptEnable0+0x12>
    2f3a:	80 91 68 00 	lds	r24, 0x0068
    2f3e:	8e 7f       	andi	r24, 0xFE	; 254
    2f40:	80 93 68 00 	sts	0x0068, r24
	return o_success;
}
    2f44:	81 e0       	ldi	r24, 0x01	; 1
    2f46:	08 95       	ret

//set the PCIE0: Pin Change Interrupt Enable 0
Boolean micInterruptPinChangeInterruptEnable0( Boolean enable ) 
{
	Boolean o_success = TRUE;
	BIT_SET(PCICR,PCIE0,enable);
    2f48:	80 91 68 00 	lds	r24, 0x0068
    2f4c:	81 60       	ori	r24, 0x01	; 1
    2f4e:	80 93 68 00 	sts	0x0068, r24
	return o_success;
}
    2f52:	81 e0       	ldi	r24, 0x01	; 1
    2f54:	08 95       	ret

00002f56 <micInterruptPinChangeInterruptEnable1>:

//set the PCIE1: Pin Change Interrupt Enable 1
Boolean micInterruptPinChangeInterruptEnable1( Boolean enable ) 
{
	Boolean o_success = TRUE;
	BIT_SET(PCICR,PCIE1,enable);
    2f56:	88 23       	and	r24, r24
    2f58:	39 f4       	brne	.+14     	; 0x2f68 <micInterruptPinChangeInterruptEnable1+0x12>
    2f5a:	80 91 68 00 	lds	r24, 0x0068
    2f5e:	8d 7f       	andi	r24, 0xFD	; 253
    2f60:	80 93 68 00 	sts	0x0068, r24
	return o_success;
}
    2f64:	81 e0       	ldi	r24, 0x01	; 1
    2f66:	08 95       	ret

//set the PCIE1: Pin Change Interrupt Enable 1
Boolean micInterruptPinChangeInterruptEnable1( Boolean enable ) 
{
	Boolean o_success = TRUE;
	BIT_SET(PCICR,PCIE1,enable);
    2f68:	80 91 68 00 	lds	r24, 0x0068
    2f6c:	82 60       	ori	r24, 0x02	; 2
    2f6e:	80 93 68 00 	sts	0x0068, r24
	return o_success;
}
    2f72:	81 e0       	ldi	r24, 0x01	; 1
    2f74:	08 95       	ret

00002f76 <micInterruptPinChangeInterruptEnable2>:

//set the PCIE2: Pin Change Interrupt Enable 2
Boolean micInterruptPinChangeInterruptEnable2( Boolean enable ) 
{
	Boolean o_success = TRUE;
	BIT_SET(PCICR,PCIE2,enable);
    2f76:	88 23       	and	r24, r24
    2f78:	39 f4       	brne	.+14     	; 0x2f88 <micInterruptPinChangeInterruptEnable2+0x12>
    2f7a:	80 91 68 00 	lds	r24, 0x0068
    2f7e:	8b 7f       	andi	r24, 0xFB	; 251
    2f80:	80 93 68 00 	sts	0x0068, r24
	return o_success;
}
    2f84:	81 e0       	ldi	r24, 0x01	; 1
    2f86:	08 95       	ret

//set the PCIE2: Pin Change Interrupt Enable 2
Boolean micInterruptPinChangeInterruptEnable2( Boolean enable ) 
{
	Boolean o_success = TRUE;
	BIT_SET(PCICR,PCIE2,enable);
    2f88:	80 91 68 00 	lds	r24, 0x0068
    2f8c:	84 60       	ori	r24, 0x04	; 4
    2f8e:	80 93 68 00 	sts	0x0068, r24
	return o_success;
}
    2f92:	81 e0       	ldi	r24, 0x01	; 1
    2f94:	08 95       	ret

00002f96 <micInterruptPinChangeInterruptEnable3>:

//set the PCIE2: Pin Change Interrupt Enable 3
Boolean micInterruptPinChangeInterruptEnable3( Boolean enable ) 
{
	Boolean o_success = TRUE;
	BIT_SET(PCICR,PCIE3,enable);
    2f96:	88 23       	and	r24, r24
    2f98:	39 f4       	brne	.+14     	; 0x2fa8 <micInterruptPinChangeInterruptEnable3+0x12>
    2f9a:	80 91 68 00 	lds	r24, 0x0068
    2f9e:	87 7f       	andi	r24, 0xF7	; 247
    2fa0:	80 93 68 00 	sts	0x0068, r24
	return o_success;
}
    2fa4:	81 e0       	ldi	r24, 0x01	; 1
    2fa6:	08 95       	ret

//set the PCIE2: Pin Change Interrupt Enable 3
Boolean micInterruptPinChangeInterruptEnable3( Boolean enable ) 
{
	Boolean o_success = TRUE;
	BIT_SET(PCICR,PCIE3,enable);
    2fa8:	80 91 68 00 	lds	r24, 0x0068
    2fac:	88 60       	ori	r24, 0x08	; 8
    2fae:	80 93 68 00 	sts	0x0068, r24
	return o_success;
}
    2fb2:	81 e0       	ldi	r24, 0x01	; 1
    2fb4:	08 95       	ret

00002fb6 <micInterruptPinChangeInterruptFlag0>:

//set the PCIF0: Pin Change Interrupt Flag 0
Boolean micInterruptPinChangeInterruptFlag0( Boolean enable ) 
{
	Boolean o_success = TRUE;
	BIT_SET(PCIFR,PCIF0,enable);
    2fb6:	88 23       	and	r24, r24
    2fb8:	19 f4       	brne	.+6      	; 0x2fc0 <micInterruptPinChangeInterruptFlag0+0xa>
    2fba:	d8 98       	cbi	0x1b, 0	; 27
	return o_success;
}
    2fbc:	81 e0       	ldi	r24, 0x01	; 1
    2fbe:	08 95       	ret

//set the PCIF0: Pin Change Interrupt Flag 0
Boolean micInterruptPinChangeInterruptFlag0( Boolean enable ) 
{
	Boolean o_success = TRUE;
	BIT_SET(PCIFR,PCIF0,enable);
    2fc0:	d8 9a       	sbi	0x1b, 0	; 27
	return o_success;
}
    2fc2:	81 e0       	ldi	r24, 0x01	; 1
    2fc4:	08 95       	ret

00002fc6 <micInterruptPinChangeInterruptFlag1>:

//set the PCIF1: Pin Change Interrupt Flag 1
Boolean micInterruptPinChangeInterruptFlag1( Boolean enable ) 
{
	Boolean o_success = TRUE;
	BIT_SET(PCIFR,PCIF1,enable);
    2fc6:	88 23       	and	r24, r24
    2fc8:	19 f4       	brne	.+6      	; 0x2fd0 <micInterruptPinChangeInterruptFlag1+0xa>
    2fca:	d9 98       	cbi	0x1b, 1	; 27
	return o_success;
}
    2fcc:	81 e0       	ldi	r24, 0x01	; 1
    2fce:	08 95       	ret

//set the PCIF1: Pin Change Interrupt Flag 1
Boolean micInterruptPinChangeInterruptFlag1( Boolean enable ) 
{
	Boolean o_success = TRUE;
	BIT_SET(PCIFR,PCIF1,enable);
    2fd0:	d9 9a       	sbi	0x1b, 1	; 27
	return o_success;
}
    2fd2:	81 e0       	ldi	r24, 0x01	; 1
    2fd4:	08 95       	ret

00002fd6 <micInterruptPinChangeInterruptFlag2>:

//set the PCIF2: Pin Change Interrupt Flag 2
Boolean micInterruptPinChangeInterruptFlag2( Boolean enable ) 
{
	Boolean o_success = TRUE;
	BIT_SET(PCIFR,PCIF2,enable);
    2fd6:	88 23       	and	r24, r24
    2fd8:	19 f4       	brne	.+6      	; 0x2fe0 <micInterruptPinChangeInterruptFlag2+0xa>
    2fda:	da 98       	cbi	0x1b, 2	; 27
	return o_success;
}
    2fdc:	81 e0       	ldi	r24, 0x01	; 1
    2fde:	08 95       	ret

//set the PCIF2: Pin Change Interrupt Flag 2
Boolean micInterruptPinChangeInterruptFlag2( Boolean enable ) 
{
	Boolean o_success = TRUE;
	BIT_SET(PCIFR,PCIF2,enable);
    2fe0:	da 9a       	sbi	0x1b, 2	; 27
	return o_success;
}
    2fe2:	81 e0       	ldi	r24, 0x01	; 1
    2fe4:	08 95       	ret

00002fe6 <micInterruptPinChangeInterruptFlag3>:

//set the PCIF3: Pin Change Interrupt Flag 3
Boolean micInterruptPinChangeInterruptFlag3( Boolean enable ) 
{
	Boolean o_success = TRUE;
	BIT_SET(PCIFR,PCIF3,enable);
    2fe6:	88 23       	and	r24, r24
    2fe8:	19 f4       	brne	.+6      	; 0x2ff0 <micInterruptPinChangeInterruptFlag3+0xa>
    2fea:	db 98       	cbi	0x1b, 3	; 27
	return o_success;
}
    2fec:	81 e0       	ldi	r24, 0x01	; 1
    2fee:	08 95       	ret

//set the PCIF3: Pin Change Interrupt Flag 3
Boolean micInterruptPinChangeInterruptFlag3( Boolean enable ) 
{
	Boolean o_success = TRUE;
	BIT_SET(PCIFR,PCIF3,enable);
    2ff0:	db 9a       	sbi	0x1b, 3	; 27
	return o_success;
}
    2ff2:	81 e0       	ldi	r24, 0x01	; 1
    2ff4:	08 95       	ret

00002ff6 <micInterruptPinChangeEnableMask3>:

//set the PCINT31:24: Pin Change Enable Mask 31:24
Boolean micInterruptPinChangeEnableMask3( Int8U val ) 
{
	Boolean o_success = TRUE;
	PCMSK3 |= val;
    2ff6:	e3 e7       	ldi	r30, 0x73	; 115
    2ff8:	f0 e0       	ldi	r31, 0x00	; 0
    2ffa:	90 81       	ld	r25, Z
    2ffc:	98 2b       	or	r25, r24
    2ffe:	90 83       	st	Z, r25
	return o_success;
}
    3000:	81 e0       	ldi	r24, 0x01	; 1
    3002:	08 95       	ret

00003004 <micInterruptPinChangeEnableMask2>:

//set the PCINT23:16: Pin Change Enable Mask 23..16
Boolean micInterruptPinChangeEnableMask2( Int8U val ) 
{
	Boolean o_success = TRUE;
	PCMSK2 |= val;
    3004:	ed e6       	ldi	r30, 0x6D	; 109
    3006:	f0 e0       	ldi	r31, 0x00	; 0
    3008:	90 81       	ld	r25, Z
    300a:	98 2b       	or	r25, r24
    300c:	90 83       	st	Z, r25
	return o_success;
}
    300e:	81 e0       	ldi	r24, 0x01	; 1
    3010:	08 95       	ret

00003012 <micInterruptPinChangeEnableMask1>:

//set the PCINT15:8: Pin Change Enable Mask 15..8
Boolean micInterruptPinChangeEnableMask1( Int8U val ) 
{
	Boolean o_success = TRUE;
	PCMSK1 |= val;
    3012:	ec e6       	ldi	r30, 0x6C	; 108
    3014:	f0 e0       	ldi	r31, 0x00	; 0
    3016:	90 81       	ld	r25, Z
    3018:	98 2b       	or	r25, r24
    301a:	90 83       	st	Z, r25
	return o_success;
}
    301c:	81 e0       	ldi	r24, 0x01	; 1
    301e:	08 95       	ret

00003020 <micInterruptPinChangeEnableMask0>:

//set the PCINT7:0: Pin Change Enable Mask 7..0
Boolean micInterruptPinChangeEnableMask0( Int8U val ) 
{
	Boolean o_success = TRUE;
	PCMSK0 |= val;
    3020:	eb e6       	ldi	r30, 0x6B	; 107
    3022:	f0 e0       	ldi	r31, 0x00	; 0
    3024:	90 81       	ld	r25, Z
    3026:	98 2b       	or	r25, r24
    3028:	90 83       	st	Z, r25
	return o_success;
    302a:	81 e0       	ldi	r24, 0x01	; 1
    302c:	08 95       	ret

0000302e <micIoPortsConfigureToToggleLevel>:

//Toggle IO pin
Boolean micIoPortsConfigureToToggleLevel( EIoPin io_pin )
{
	Boolean o_success = TRUE;
	Int8U port = ( io_pin / 8 ) ;
    302e:	98 2f       	mov	r25, r24
    3030:	96 95       	lsr	r25
    3032:	96 95       	lsr	r25
    3034:	96 95       	lsr	r25
	Int8U pin =  ( io_pin % 8 ) ;
    3036:	87 70       	andi	r24, 0x07	; 7
	if( port == 0 )
    3038:	99 23       	and	r25, r25
    303a:	91 f0       	breq	.+36     	; 0x3060 <micIoPortsConfigureToToggleLevel+0x32>
	{
		BIT_TOGGLE(PORTA,pin);
	}
	else if( port == 1 )
    303c:	91 30       	cpi	r25, 0x01	; 1
    303e:	e1 f0       	breq	.+56     	; 0x3078 <micIoPortsConfigureToToggleLevel+0x4a>
	{
		BIT_TOGGLE(PORTB,pin);
	}
	else if( port == 2 )
    3040:	92 30       	cpi	r25, 0x02	; 2
    3042:	31 f1       	breq	.+76     	; 0x3090 <micIoPortsConfigureToToggleLevel+0x62>
	{
		BIT_TOGGLE(PORTC,pin);
	}
	else if( port == 3 )
    3044:	93 30       	cpi	r25, 0x03	; 3
    3046:	51 f4       	brne	.+20     	; 0x305c <micIoPortsConfigureToToggleLevel+0x2e>
	{
		BIT_TOGGLE(PORTD,pin);
    3048:	9b b1       	in	r25, 0x0b	; 11
    304a:	21 e0       	ldi	r18, 0x01	; 1
    304c:	30 e0       	ldi	r19, 0x00	; 0
    304e:	02 c0       	rjmp	.+4      	; 0x3054 <micIoPortsConfigureToToggleLevel+0x26>
    3050:	22 0f       	add	r18, r18
    3052:	33 1f       	adc	r19, r19
    3054:	8a 95       	dec	r24
    3056:	e2 f7       	brpl	.-8      	; 0x3050 <micIoPortsConfigureToToggleLevel+0x22>
    3058:	92 27       	eor	r25, r18
    305a:	9b b9       	out	0x0b, r25	; 11
	}
	
	return o_success;
}
    305c:	81 e0       	ldi	r24, 0x01	; 1
    305e:	08 95       	ret
	Boolean o_success = TRUE;
	Int8U port = ( io_pin / 8 ) ;
	Int8U pin =  ( io_pin % 8 ) ;
	if( port == 0 )
	{
		BIT_TOGGLE(PORTA,pin);
    3060:	92 b1       	in	r25, 0x02	; 2
    3062:	21 e0       	ldi	r18, 0x01	; 1
    3064:	30 e0       	ldi	r19, 0x00	; 0
    3066:	02 c0       	rjmp	.+4      	; 0x306c <micIoPortsConfigureToToggleLevel+0x3e>
    3068:	22 0f       	add	r18, r18
    306a:	33 1f       	adc	r19, r19
    306c:	8a 95       	dec	r24
    306e:	e2 f7       	brpl	.-8      	; 0x3068 <micIoPortsConfigureToToggleLevel+0x3a>
    3070:	92 27       	eor	r25, r18
    3072:	92 b9       	out	0x02, r25	; 2
	{
		BIT_TOGGLE(PORTD,pin);
	}
	
	return o_success;
}
    3074:	81 e0       	ldi	r24, 0x01	; 1
    3076:	08 95       	ret
	{
		BIT_TOGGLE(PORTA,pin);
	}
	else if( port == 1 )
	{
		BIT_TOGGLE(PORTB,pin);
    3078:	95 b1       	in	r25, 0x05	; 5
    307a:	21 e0       	ldi	r18, 0x01	; 1
    307c:	30 e0       	ldi	r19, 0x00	; 0
    307e:	02 c0       	rjmp	.+4      	; 0x3084 <micIoPortsConfigureToToggleLevel+0x56>
    3080:	22 0f       	add	r18, r18
    3082:	33 1f       	adc	r19, r19
    3084:	8a 95       	dec	r24
    3086:	e2 f7       	brpl	.-8      	; 0x3080 <micIoPortsConfigureToToggleLevel+0x52>
    3088:	92 27       	eor	r25, r18
    308a:	95 b9       	out	0x05, r25	; 5
	{
		BIT_TOGGLE(PORTD,pin);
	}
	
	return o_success;
}
    308c:	81 e0       	ldi	r24, 0x01	; 1
    308e:	08 95       	ret
	{
		BIT_TOGGLE(PORTB,pin);
	}
	else if( port == 2 )
	{
		BIT_TOGGLE(PORTC,pin);
    3090:	98 b1       	in	r25, 0x08	; 8
    3092:	21 e0       	ldi	r18, 0x01	; 1
    3094:	30 e0       	ldi	r19, 0x00	; 0
    3096:	02 c0       	rjmp	.+4      	; 0x309c <micIoPortsConfigureToToggleLevel+0x6e>
    3098:	22 0f       	add	r18, r18
    309a:	33 1f       	adc	r19, r19
    309c:	8a 95       	dec	r24
    309e:	e2 f7       	brpl	.-8      	; 0x3098 <micIoPortsConfigureToToggleLevel+0x6a>
    30a0:	92 27       	eor	r25, r18
    30a2:	98 b9       	out	0x08, r25	; 8
    30a4:	db cf       	rjmp	.-74     	; 0x305c <micIoPortsConfigureToToggleLevel+0x2e>

000030a6 <micIoPortsMasterControlUnitPullUpDisable>:

//set the PUD: PUD: Pull-up Disable
Boolean micIoPortsMasterControlUnitPullUpDisable( Boolean enable ) 
{
	Boolean o_success = TRUE;
	BIT_SET(MCUCR,PUD,enable);
    30a6:	88 23       	and	r24, r24
    30a8:	29 f4       	brne	.+10     	; 0x30b4 <micIoPortsMasterControlUnitPullUpDisable+0xe>
    30aa:	85 b7       	in	r24, 0x35	; 53
    30ac:	8f 7e       	andi	r24, 0xEF	; 239
    30ae:	85 bf       	out	0x35, r24	; 53
	return o_success;
}
    30b0:	81 e0       	ldi	r24, 0x01	; 1
    30b2:	08 95       	ret

//set the PUD: PUD: Pull-up Disable
Boolean micIoPortsMasterControlUnitPullUpDisable( Boolean enable ) 
{
	Boolean o_success = TRUE;
	BIT_SET(MCUCR,PUD,enable);
    30b4:	85 b7       	in	r24, 0x35	; 53
    30b6:	80 61       	ori	r24, 0x10	; 16
    30b8:	85 bf       	out	0x35, r24	; 53
	return o_success;
}
    30ba:	81 e0       	ldi	r24, 0x01	; 1
    30bc:	08 95       	ret

000030be <micIoPortsDataRegister>:

//set the Port A|B|C|D Data Register
Boolean micIoPortsDataRegister( Int8U port_name, Int8U pin_io, Boolean value ) 
{
	Boolean o_success = TRUE;
	if( port_name == 0 )
    30be:	88 23       	and	r24, r24
    30c0:	79 f4       	brne	.+30     	; 0x30e0 <micIoPortsDataRegister+0x22>

//set the Port A Data Register
Boolean micIoPortsDataRegisterA( Int8U pin_io, Boolean value ) 
{
	Boolean o_success = TRUE;
	BIT_SET(PORTA,pin_io,value);
    30c2:	44 23       	and	r20, r20
    30c4:	11 f5       	brne	.+68     	; 0x310a <micIoPortsDataRegister+0x4c>
    30c6:	22 b1       	in	r18, 0x02	; 2
    30c8:	81 e0       	ldi	r24, 0x01	; 1
    30ca:	90 e0       	ldi	r25, 0x00	; 0
    30cc:	02 c0       	rjmp	.+4      	; 0x30d2 <micIoPortsDataRegister+0x14>
    30ce:	88 0f       	add	r24, r24
    30d0:	99 1f       	adc	r25, r25
    30d2:	6a 95       	dec	r22
    30d4:	e2 f7       	brpl	.-8      	; 0x30ce <micIoPortsDataRegister+0x10>
    30d6:	80 95       	com	r24
    30d8:	82 23       	and	r24, r18
    30da:	82 b9       	out	0x02, r24	; 2
	else if( port_name == 3 )
	{
		micIoPortsDataRegisterD(pin_io,value);
	}
	return o_success;
}
    30dc:	81 e0       	ldi	r24, 0x01	; 1
    30de:	08 95       	ret
	Boolean o_success = TRUE;
	if( port_name == 0 )
	{
		micIoPortsDataRegisterA(pin_io,value);
	}
	else if( port_name == 1 )
    30e0:	81 30       	cpi	r24, 0x01	; 1
    30e2:	f9 f0       	breq	.+62     	; 0x3122 <micIoPortsDataRegister+0x64>
	{
		micIoPortsDataRegisterB(pin_io,value);
	}
	else if( port_name == 2 )
    30e4:	82 30       	cpi	r24, 0x02	; 2
    30e6:	51 f1       	breq	.+84     	; 0x313c <micIoPortsDataRegister+0x7e>
	{
		micIoPortsDataRegisterC(pin_io,value);
	}
	else if( port_name == 3 )
    30e8:	83 30       	cpi	r24, 0x03	; 3
    30ea:	c1 f7       	brne	.-16     	; 0x30dc <micIoPortsDataRegister+0x1e>

//set the Port D Data Register
Boolean micIoPortsDataRegisterD( Int8U pin_io , Boolean value )  
{
	Boolean o_suDDess = TRUE;
	BIT_SET(PORTD,pin_io,value);
    30ec:	44 23       	and	r20, r20
    30ee:	09 f0       	breq	.+2      	; 0x30f2 <micIoPortsDataRegister+0x34>
    30f0:	4a c0       	rjmp	.+148    	; 0x3186 <micIoPortsDataRegister+0xc8>
    30f2:	2b b1       	in	r18, 0x0b	; 11
    30f4:	81 e0       	ldi	r24, 0x01	; 1
    30f6:	90 e0       	ldi	r25, 0x00	; 0
    30f8:	02 c0       	rjmp	.+4      	; 0x30fe <micIoPortsDataRegister+0x40>
    30fa:	88 0f       	add	r24, r24
    30fc:	99 1f       	adc	r25, r25
    30fe:	6a 95       	dec	r22
    3100:	e2 f7       	brpl	.-8      	; 0x30fa <micIoPortsDataRegister+0x3c>
    3102:	80 95       	com	r24
    3104:	82 23       	and	r24, r18
    3106:	8b b9       	out	0x0b, r24	; 11
    3108:	e9 cf       	rjmp	.-46     	; 0x30dc <micIoPortsDataRegister+0x1e>

//set the Port A Data Register
Boolean micIoPortsDataRegisterA( Int8U pin_io, Boolean value ) 
{
	Boolean o_success = TRUE;
	BIT_SET(PORTA,pin_io,value);
    310a:	22 b1       	in	r18, 0x02	; 2
    310c:	81 e0       	ldi	r24, 0x01	; 1
    310e:	90 e0       	ldi	r25, 0x00	; 0
    3110:	02 c0       	rjmp	.+4      	; 0x3116 <micIoPortsDataRegister+0x58>
    3112:	88 0f       	add	r24, r24
    3114:	99 1f       	adc	r25, r25
    3116:	6a 95       	dec	r22
    3118:	e2 f7       	brpl	.-8      	; 0x3112 <micIoPortsDataRegister+0x54>
    311a:	28 2b       	or	r18, r24
    311c:	22 b9       	out	0x02, r18	; 2
	else if( port_name == 3 )
	{
		micIoPortsDataRegisterD(pin_io,value);
	}
	return o_success;
}
    311e:	81 e0       	ldi	r24, 0x01	; 1
    3120:	08 95       	ret

//set the Port B Data Register
Boolean micIoPortsDataRegisterB( Int8U pin_io , Boolean value )  
{
	Boolean o_success = TRUE;
	BIT_SET(PORTB,pin_io,value);
    3122:	44 23       	and	r20, r20
    3124:	c1 f0       	breq	.+48     	; 0x3156 <micIoPortsDataRegister+0x98>
    3126:	25 b1       	in	r18, 0x05	; 5
    3128:	81 e0       	ldi	r24, 0x01	; 1
    312a:	90 e0       	ldi	r25, 0x00	; 0
    312c:	02 c0       	rjmp	.+4      	; 0x3132 <micIoPortsDataRegister+0x74>
    312e:	88 0f       	add	r24, r24
    3130:	99 1f       	adc	r25, r25
    3132:	6a 95       	dec	r22
    3134:	e2 f7       	brpl	.-8      	; 0x312e <micIoPortsDataRegister+0x70>
    3136:	28 2b       	or	r18, r24
    3138:	25 b9       	out	0x05, r18	; 5
    313a:	d0 cf       	rjmp	.-96     	; 0x30dc <micIoPortsDataRegister+0x1e>

//set the Port C Data Register
Boolean micIoPortsDataRegisterC( Int8U pin_io , Boolean value )  
{
	Boolean o_success = TRUE;
	BIT_SET(PORTC,pin_io,value);
    313c:	44 23       	and	r20, r20
    313e:	b9 f0       	breq	.+46     	; 0x316e <micIoPortsDataRegister+0xb0>
    3140:	28 b1       	in	r18, 0x08	; 8
    3142:	81 e0       	ldi	r24, 0x01	; 1
    3144:	90 e0       	ldi	r25, 0x00	; 0
    3146:	02 c0       	rjmp	.+4      	; 0x314c <micIoPortsDataRegister+0x8e>
    3148:	88 0f       	add	r24, r24
    314a:	99 1f       	adc	r25, r25
    314c:	6a 95       	dec	r22
    314e:	e2 f7       	brpl	.-8      	; 0x3148 <micIoPortsDataRegister+0x8a>
    3150:	28 2b       	or	r18, r24
    3152:	28 b9       	out	0x08, r18	; 8
    3154:	c3 cf       	rjmp	.-122    	; 0x30dc <micIoPortsDataRegister+0x1e>

//set the Port B Data Register
Boolean micIoPortsDataRegisterB( Int8U pin_io , Boolean value )  
{
	Boolean o_success = TRUE;
	BIT_SET(PORTB,pin_io,value);
    3156:	25 b1       	in	r18, 0x05	; 5
    3158:	81 e0       	ldi	r24, 0x01	; 1
    315a:	90 e0       	ldi	r25, 0x00	; 0
    315c:	02 c0       	rjmp	.+4      	; 0x3162 <micIoPortsDataRegister+0xa4>
    315e:	88 0f       	add	r24, r24
    3160:	99 1f       	adc	r25, r25
    3162:	6a 95       	dec	r22
    3164:	e2 f7       	brpl	.-8      	; 0x315e <micIoPortsDataRegister+0xa0>
    3166:	80 95       	com	r24
    3168:	82 23       	and	r24, r18
    316a:	85 b9       	out	0x05, r24	; 5
    316c:	b7 cf       	rjmp	.-146    	; 0x30dc <micIoPortsDataRegister+0x1e>

//set the Port C Data Register
Boolean micIoPortsDataRegisterC( Int8U pin_io , Boolean value )  
{
	Boolean o_success = TRUE;
	BIT_SET(PORTC,pin_io,value);
    316e:	28 b1       	in	r18, 0x08	; 8
    3170:	81 e0       	ldi	r24, 0x01	; 1
    3172:	90 e0       	ldi	r25, 0x00	; 0
    3174:	02 c0       	rjmp	.+4      	; 0x317a <micIoPortsDataRegister+0xbc>
    3176:	88 0f       	add	r24, r24
    3178:	99 1f       	adc	r25, r25
    317a:	6a 95       	dec	r22
    317c:	e2 f7       	brpl	.-8      	; 0x3176 <micIoPortsDataRegister+0xb8>
    317e:	80 95       	com	r24
    3180:	82 23       	and	r24, r18
    3182:	88 b9       	out	0x08, r24	; 8
    3184:	ab cf       	rjmp	.-170    	; 0x30dc <micIoPortsDataRegister+0x1e>

//set the Port D Data Register
Boolean micIoPortsDataRegisterD( Int8U pin_io , Boolean value )  
{
	Boolean o_suDDess = TRUE;
	BIT_SET(PORTD,pin_io,value);
    3186:	2b b1       	in	r18, 0x0b	; 11
    3188:	81 e0       	ldi	r24, 0x01	; 1
    318a:	90 e0       	ldi	r25, 0x00	; 0
    318c:	02 c0       	rjmp	.+4      	; 0x3192 <micIoPortsDataRegister+0xd4>
    318e:	88 0f       	add	r24, r24
    3190:	99 1f       	adc	r25, r25
    3192:	6a 95       	dec	r22
    3194:	e2 f7       	brpl	.-8      	; 0x318e <micIoPortsDataRegister+0xd0>
    3196:	28 2b       	or	r18, r24
    3198:	2b b9       	out	0x0b, r18	; 11
    319a:	a0 cf       	rjmp	.-192    	; 0x30dc <micIoPortsDataRegister+0x1e>

0000319c <micIoPortsConfigureToHighLevel>:
//Set IO pin as High Level 
Boolean micIoPortsConfigureToHighLevel( EIoPin io_pin )
{
	Boolean o_success = TRUE;
	Int8U port = ( io_pin / 8 ) ;
	Int8U pin =  ( io_pin % 8 ) ;
    319c:	68 2f       	mov	r22, r24
    319e:	67 70       	andi	r22, 0x07	; 7
	micIoPortsDataRegister(port,pin,TRUE);
    31a0:	86 95       	lsr	r24
    31a2:	86 95       	lsr	r24
    31a4:	86 95       	lsr	r24
    31a6:	41 e0       	ldi	r20, 0x01	; 1
    31a8:	0e 94 5f 18 	call	0x30be	; 0x30be <micIoPortsDataRegister>
	
	return o_success;
}
    31ac:	81 e0       	ldi	r24, 0x01	; 1
    31ae:	08 95       	ret

000031b0 <micIoPortsConfigureToLowLevel>:
//Set IO pin as Low Level 
Boolean micIoPortsConfigureToLowLevel( EIoPin io_pin )
{
	Boolean o_success = TRUE;
	Int8U port = ( io_pin / 8 ) ;
	Int8U pin =  ( io_pin % 8 ) ;
    31b0:	68 2f       	mov	r22, r24
    31b2:	67 70       	andi	r22, 0x07	; 7
	micIoPortsDataRegister(port,pin,FALSE);
    31b4:	86 95       	lsr	r24
    31b6:	86 95       	lsr	r24
    31b8:	86 95       	lsr	r24
    31ba:	40 e0       	ldi	r20, 0x00	; 0
    31bc:	0e 94 5f 18 	call	0x30be	; 0x30be <micIoPortsDataRegister>
	
	return o_success;
}
    31c0:	81 e0       	ldi	r24, 0x01	; 1
    31c2:	08 95       	ret

000031c4 <micIoPortsDirectionRegister>:

//set the Port A|B|C|D Data Direction Register
Boolean micIoPortsDirectionRegister( Int8U port_name, Int8U pin_io, Boolean value ) 
{
	Boolean o_success = TRUE;
	if( port_name == 0 )
    31c4:	88 23       	and	r24, r24
    31c6:	79 f4       	brne	.+30     	; 0x31e6 <micIoPortsDirectionRegister+0x22>

//set the Port A Data Direction Register
Boolean micIoPortsDirectionRegisterA( Int8U pin_io , Boolean value ) 
{
	Boolean o_success = TRUE;
	BIT_SET(DDRA,pin_io,value);
    31c8:	44 23       	and	r20, r20
    31ca:	11 f5       	brne	.+68     	; 0x3210 <micIoPortsDirectionRegister+0x4c>
    31cc:	21 b1       	in	r18, 0x01	; 1
    31ce:	81 e0       	ldi	r24, 0x01	; 1
    31d0:	90 e0       	ldi	r25, 0x00	; 0
    31d2:	02 c0       	rjmp	.+4      	; 0x31d8 <micIoPortsDirectionRegister+0x14>
    31d4:	88 0f       	add	r24, r24
    31d6:	99 1f       	adc	r25, r25
    31d8:	6a 95       	dec	r22
    31da:	e2 f7       	brpl	.-8      	; 0x31d4 <micIoPortsDirectionRegister+0x10>
    31dc:	80 95       	com	r24
    31de:	82 23       	and	r24, r18
    31e0:	81 b9       	out	0x01, r24	; 1
	else if( port_name == 3 )
	{
		micIoPortsDirectionRegisterD(pin_io,value);
	}
	return o_success;
}
    31e2:	81 e0       	ldi	r24, 0x01	; 1
    31e4:	08 95       	ret
	Boolean o_success = TRUE;
	if( port_name == 0 )
	{
		micIoPortsDirectionRegisterA(pin_io,value);
	}
	else if( port_name == 1 )
    31e6:	81 30       	cpi	r24, 0x01	; 1
    31e8:	f9 f0       	breq	.+62     	; 0x3228 <micIoPortsDirectionRegister+0x64>
	{
		micIoPortsDirectionRegisterB(pin_io,value);
	}
	else if( port_name == 2 )
    31ea:	82 30       	cpi	r24, 0x02	; 2
    31ec:	51 f1       	breq	.+84     	; 0x3242 <micIoPortsDirectionRegister+0x7e>
	{
		micIoPortsDirectionRegisterC(pin_io,value);
	}
	else if( port_name == 3 )
    31ee:	83 30       	cpi	r24, 0x03	; 3
    31f0:	c1 f7       	brne	.-16     	; 0x31e2 <micIoPortsDirectionRegister+0x1e>

//set the Port D Data DireDtion Register
Boolean micIoPortsDirectionRegisterD( Int8U pin_io , Boolean value ) 
{
	Boolean o_suDDess = TRUE;
	BIT_SET(DDRD,pin_io,value);
    31f2:	44 23       	and	r20, r20
    31f4:	09 f0       	breq	.+2      	; 0x31f8 <micIoPortsDirectionRegister+0x34>
    31f6:	4a c0       	rjmp	.+148    	; 0x328c <micIoPortsDirectionRegister+0xc8>
    31f8:	2a b1       	in	r18, 0x0a	; 10
    31fa:	81 e0       	ldi	r24, 0x01	; 1
    31fc:	90 e0       	ldi	r25, 0x00	; 0
    31fe:	02 c0       	rjmp	.+4      	; 0x3204 <micIoPortsDirectionRegister+0x40>
    3200:	88 0f       	add	r24, r24
    3202:	99 1f       	adc	r25, r25
    3204:	6a 95       	dec	r22
    3206:	e2 f7       	brpl	.-8      	; 0x3200 <micIoPortsDirectionRegister+0x3c>
    3208:	80 95       	com	r24
    320a:	82 23       	and	r24, r18
    320c:	8a b9       	out	0x0a, r24	; 10
    320e:	e9 cf       	rjmp	.-46     	; 0x31e2 <micIoPortsDirectionRegister+0x1e>

//set the Port A Data Direction Register
Boolean micIoPortsDirectionRegisterA( Int8U pin_io , Boolean value ) 
{
	Boolean o_success = TRUE;
	BIT_SET(DDRA,pin_io,value);
    3210:	21 b1       	in	r18, 0x01	; 1
    3212:	81 e0       	ldi	r24, 0x01	; 1
    3214:	90 e0       	ldi	r25, 0x00	; 0
    3216:	02 c0       	rjmp	.+4      	; 0x321c <micIoPortsDirectionRegister+0x58>
    3218:	88 0f       	add	r24, r24
    321a:	99 1f       	adc	r25, r25
    321c:	6a 95       	dec	r22
    321e:	e2 f7       	brpl	.-8      	; 0x3218 <micIoPortsDirectionRegister+0x54>
    3220:	28 2b       	or	r18, r24
    3222:	21 b9       	out	0x01, r18	; 1
	else if( port_name == 3 )
	{
		micIoPortsDirectionRegisterD(pin_io,value);
	}
	return o_success;
}
    3224:	81 e0       	ldi	r24, 0x01	; 1
    3226:	08 95       	ret

//set the Port B Data Direction Register
Boolean micIoPortsDirectionRegisterB( Int8U pin_io , Boolean value )  
{
	Boolean o_success = TRUE;
	BIT_SET(DDRB,pin_io,value);
    3228:	44 23       	and	r20, r20
    322a:	c1 f0       	breq	.+48     	; 0x325c <micIoPortsDirectionRegister+0x98>
    322c:	24 b1       	in	r18, 0x04	; 4
    322e:	81 e0       	ldi	r24, 0x01	; 1
    3230:	90 e0       	ldi	r25, 0x00	; 0
    3232:	02 c0       	rjmp	.+4      	; 0x3238 <micIoPortsDirectionRegister+0x74>
    3234:	88 0f       	add	r24, r24
    3236:	99 1f       	adc	r25, r25
    3238:	6a 95       	dec	r22
    323a:	e2 f7       	brpl	.-8      	; 0x3234 <micIoPortsDirectionRegister+0x70>
    323c:	28 2b       	or	r18, r24
    323e:	24 b9       	out	0x04, r18	; 4
    3240:	d0 cf       	rjmp	.-96     	; 0x31e2 <micIoPortsDirectionRegister+0x1e>

//set the Port C Data Direction Register
Boolean micIoPortsDirectionRegisterC( Int8U pin_io , Boolean value )  
{
	Boolean o_success = TRUE;
	BIT_SET(DDRC,pin_io,value);
    3242:	44 23       	and	r20, r20
    3244:	b9 f0       	breq	.+46     	; 0x3274 <micIoPortsDirectionRegister+0xb0>
    3246:	27 b1       	in	r18, 0x07	; 7
    3248:	81 e0       	ldi	r24, 0x01	; 1
    324a:	90 e0       	ldi	r25, 0x00	; 0
    324c:	02 c0       	rjmp	.+4      	; 0x3252 <micIoPortsDirectionRegister+0x8e>
    324e:	88 0f       	add	r24, r24
    3250:	99 1f       	adc	r25, r25
    3252:	6a 95       	dec	r22
    3254:	e2 f7       	brpl	.-8      	; 0x324e <micIoPortsDirectionRegister+0x8a>
    3256:	28 2b       	or	r18, r24
    3258:	27 b9       	out	0x07, r18	; 7
    325a:	c3 cf       	rjmp	.-122    	; 0x31e2 <micIoPortsDirectionRegister+0x1e>

//set the Port B Data Direction Register
Boolean micIoPortsDirectionRegisterB( Int8U pin_io , Boolean value )  
{
	Boolean o_success = TRUE;
	BIT_SET(DDRB,pin_io,value);
    325c:	24 b1       	in	r18, 0x04	; 4
    325e:	81 e0       	ldi	r24, 0x01	; 1
    3260:	90 e0       	ldi	r25, 0x00	; 0
    3262:	02 c0       	rjmp	.+4      	; 0x3268 <micIoPortsDirectionRegister+0xa4>
    3264:	88 0f       	add	r24, r24
    3266:	99 1f       	adc	r25, r25
    3268:	6a 95       	dec	r22
    326a:	e2 f7       	brpl	.-8      	; 0x3264 <micIoPortsDirectionRegister+0xa0>
    326c:	80 95       	com	r24
    326e:	82 23       	and	r24, r18
    3270:	84 b9       	out	0x04, r24	; 4
    3272:	b7 cf       	rjmp	.-146    	; 0x31e2 <micIoPortsDirectionRegister+0x1e>

//set the Port C Data Direction Register
Boolean micIoPortsDirectionRegisterC( Int8U pin_io , Boolean value )  
{
	Boolean o_success = TRUE;
	BIT_SET(DDRC,pin_io,value);
    3274:	27 b1       	in	r18, 0x07	; 7
    3276:	81 e0       	ldi	r24, 0x01	; 1
    3278:	90 e0       	ldi	r25, 0x00	; 0
    327a:	02 c0       	rjmp	.+4      	; 0x3280 <micIoPortsDirectionRegister+0xbc>
    327c:	88 0f       	add	r24, r24
    327e:	99 1f       	adc	r25, r25
    3280:	6a 95       	dec	r22
    3282:	e2 f7       	brpl	.-8      	; 0x327c <micIoPortsDirectionRegister+0xb8>
    3284:	80 95       	com	r24
    3286:	82 23       	and	r24, r18
    3288:	87 b9       	out	0x07, r24	; 7
    328a:	ab cf       	rjmp	.-170    	; 0x31e2 <micIoPortsDirectionRegister+0x1e>

//set the Port D Data DireDtion Register
Boolean micIoPortsDirectionRegisterD( Int8U pin_io , Boolean value ) 
{
	Boolean o_suDDess = TRUE;
	BIT_SET(DDRD,pin_io,value);
    328c:	2a b1       	in	r18, 0x0a	; 10
    328e:	81 e0       	ldi	r24, 0x01	; 1
    3290:	90 e0       	ldi	r25, 0x00	; 0
    3292:	02 c0       	rjmp	.+4      	; 0x3298 <micIoPortsDirectionRegister+0xd4>
    3294:	88 0f       	add	r24, r24
    3296:	99 1f       	adc	r25, r25
    3298:	6a 95       	dec	r22
    329a:	e2 f7       	brpl	.-8      	; 0x3294 <micIoPortsDirectionRegister+0xd0>
    329c:	28 2b       	or	r18, r24
    329e:	2a b9       	out	0x0a, r18	; 10
    32a0:	a0 cf       	rjmp	.-192    	; 0x31e2 <micIoPortsDirectionRegister+0x1e>

000032a2 <micIoPortsConfigureInput>:
	return o_success;
}

//Set IO as input and add pull up if necessary 
Boolean micIoPortsConfigureInput( EIoPin IO, EInputPullUp pull_up_enable )
{
    32a2:	ff 92       	push	r15
    32a4:	0f 93       	push	r16
    32a6:	1f 93       	push	r17
    32a8:	f6 2e       	mov	r15, r22
	Boolean o_success = TRUE;
	Int8U port = ( IO / 8 ) ;
    32aa:	08 2f       	mov	r16, r24
    32ac:	06 95       	lsr	r16
    32ae:	06 95       	lsr	r16
    32b0:	06 95       	lsr	r16
	Int8U pin =  ( IO % 8 ) ;
    32b2:	18 2f       	mov	r17, r24
    32b4:	17 70       	andi	r17, 0x07	; 7
	micIoPortsDirectionRegister(port,pin,FALSE);
    32b6:	80 2f       	mov	r24, r16
    32b8:	61 2f       	mov	r22, r17
    32ba:	40 e0       	ldi	r20, 0x00	; 0
    32bc:	0e 94 e2 18 	call	0x31c4	; 0x31c4 <micIoPortsDirectionRegister>
	if(pull_up_enable == PORT_PULL_UP)
    32c0:	8f 2d       	mov	r24, r15
    32c2:	81 30       	cpi	r24, 0x01	; 1
    32c4:	51 f0       	breq	.+20     	; 0x32da <micIoPortsConfigureInput+0x38>
	{
		micIoPortsDataRegister(port,pin,TRUE);
	}
	else
	{
		micIoPortsDataRegister(port,pin,FALSE);
    32c6:	80 2f       	mov	r24, r16
    32c8:	61 2f       	mov	r22, r17
    32ca:	40 e0       	ldi	r20, 0x00	; 0
    32cc:	0e 94 5f 18 	call	0x30be	; 0x30be <micIoPortsDataRegister>
	}		
	
	return o_success;
}
    32d0:	81 e0       	ldi	r24, 0x01	; 1
    32d2:	1f 91       	pop	r17
    32d4:	0f 91       	pop	r16
    32d6:	ff 90       	pop	r15
    32d8:	08 95       	ret
	Int8U port = ( IO / 8 ) ;
	Int8U pin =  ( IO % 8 ) ;
	micIoPortsDirectionRegister(port,pin,FALSE);
	if(pull_up_enable == PORT_PULL_UP)
	{
		micIoPortsDataRegister(port,pin,TRUE);
    32da:	80 2f       	mov	r24, r16
    32dc:	61 2f       	mov	r22, r17
    32de:	41 e0       	ldi	r20, 0x01	; 1
    32e0:	0e 94 5f 18 	call	0x30be	; 0x30be <micIoPortsDataRegister>
	{
		micIoPortsDataRegister(port,pin,FALSE);
	}		
	
	return o_success;
}
    32e4:	81 e0       	ldi	r24, 0x01	; 1
    32e6:	1f 91       	pop	r17
    32e8:	0f 91       	pop	r16
    32ea:	ff 90       	pop	r15
    32ec:	08 95       	ret

000032ee <micIoPortsConfigureOutput>:
//Set IO pin as output 
Boolean micIoPortsConfigureOutput( EIoPin io_pin )
{
	Boolean o_success = TRUE;
	Int8U port = ( io_pin / 8 ) ;
	Int8U pin =  ( io_pin % 8 ) ;
    32ee:	68 2f       	mov	r22, r24
    32f0:	67 70       	andi	r22, 0x07	; 7
	micIoPortsDirectionRegister(port,pin,TRUE);
    32f2:	86 95       	lsr	r24
    32f4:	86 95       	lsr	r24
    32f6:	86 95       	lsr	r24
    32f8:	41 e0       	ldi	r20, 0x01	; 1
    32fa:	0e 94 e2 18 	call	0x31c4	; 0x31c4 <micIoPortsDirectionRegister>
	
	return o_success;
}
    32fe:	81 e0       	ldi	r24, 0x01	; 1
    3300:	08 95       	ret

00003302 <micIoPortsInputPinsAddress>:

//set the Port A|B|C|D Input Pins Address
Boolean micIoPortsInputPinsAddress( Int8U port_name, Int8U pin_io, Boolean value ) 
{
	Boolean o_success = TRUE;
	if( port_name == 0 )
    3302:	88 23       	and	r24, r24
    3304:	79 f4       	brne	.+30     	; 0x3324 <micIoPortsInputPinsAddress+0x22>

//set the Port A Input Pins Address
Boolean micIoPortsInputPinsAddressA( Int8U pin_io , Boolean value ) 
{
	Boolean o_success = TRUE;
	BIT_SET(PINA,pin_io,value);
    3306:	44 23       	and	r20, r20
    3308:	11 f5       	brne	.+68     	; 0x334e <micIoPortsInputPinsAddress+0x4c>
    330a:	20 b1       	in	r18, 0x00	; 0
    330c:	81 e0       	ldi	r24, 0x01	; 1
    330e:	90 e0       	ldi	r25, 0x00	; 0
    3310:	02 c0       	rjmp	.+4      	; 0x3316 <micIoPortsInputPinsAddress+0x14>
    3312:	88 0f       	add	r24, r24
    3314:	99 1f       	adc	r25, r25
    3316:	6a 95       	dec	r22
    3318:	e2 f7       	brpl	.-8      	; 0x3312 <micIoPortsInputPinsAddress+0x10>
    331a:	80 95       	com	r24
    331c:	82 23       	and	r24, r18
    331e:	80 b9       	out	0x00, r24	; 0
	else if( port_name == 3 )
	{
		micIoPortsInputPinsAddressD(pin_io,value);
	}
	return o_success;
}
    3320:	81 e0       	ldi	r24, 0x01	; 1
    3322:	08 95       	ret
	Boolean o_success = TRUE;
	if( port_name == 0 )
	{
		micIoPortsInputPinsAddressA(pin_io,value);
	}
	else if( port_name == 1 )
    3324:	81 30       	cpi	r24, 0x01	; 1
    3326:	f9 f0       	breq	.+62     	; 0x3366 <micIoPortsInputPinsAddress+0x64>
	{
		micIoPortsInputPinsAddressB(pin_io,value);
	}
	else if( port_name == 2 )
    3328:	82 30       	cpi	r24, 0x02	; 2
    332a:	51 f1       	breq	.+84     	; 0x3380 <micIoPortsInputPinsAddress+0x7e>
	{
		micIoPortsInputPinsAddressC(pin_io,value);
	}
	else if( port_name == 3 )
    332c:	83 30       	cpi	r24, 0x03	; 3
    332e:	c1 f7       	brne	.-16     	; 0x3320 <micIoPortsInputPinsAddress+0x1e>

//set the Port D Input Pins Address
Boolean micIoPortsInputPinsAddressD( Int8U pin_io , Boolean value )  
{
	Boolean o_suDDess = TRUE;
	BIT_SET(PIND,pin_io,value);
    3330:	44 23       	and	r20, r20
    3332:	09 f0       	breq	.+2      	; 0x3336 <micIoPortsInputPinsAddress+0x34>
    3334:	4a c0       	rjmp	.+148    	; 0x33ca <micIoPortsInputPinsAddress+0xc8>
    3336:	29 b1       	in	r18, 0x09	; 9
    3338:	81 e0       	ldi	r24, 0x01	; 1
    333a:	90 e0       	ldi	r25, 0x00	; 0
    333c:	02 c0       	rjmp	.+4      	; 0x3342 <micIoPortsInputPinsAddress+0x40>
    333e:	88 0f       	add	r24, r24
    3340:	99 1f       	adc	r25, r25
    3342:	6a 95       	dec	r22
    3344:	e2 f7       	brpl	.-8      	; 0x333e <micIoPortsInputPinsAddress+0x3c>
    3346:	80 95       	com	r24
    3348:	82 23       	and	r24, r18
    334a:	89 b9       	out	0x09, r24	; 9
    334c:	e9 cf       	rjmp	.-46     	; 0x3320 <micIoPortsInputPinsAddress+0x1e>

//set the Port A Input Pins Address
Boolean micIoPortsInputPinsAddressA( Int8U pin_io , Boolean value ) 
{
	Boolean o_success = TRUE;
	BIT_SET(PINA,pin_io,value);
    334e:	20 b1       	in	r18, 0x00	; 0
    3350:	81 e0       	ldi	r24, 0x01	; 1
    3352:	90 e0       	ldi	r25, 0x00	; 0
    3354:	02 c0       	rjmp	.+4      	; 0x335a <micIoPortsInputPinsAddress+0x58>
    3356:	88 0f       	add	r24, r24
    3358:	99 1f       	adc	r25, r25
    335a:	6a 95       	dec	r22
    335c:	e2 f7       	brpl	.-8      	; 0x3356 <micIoPortsInputPinsAddress+0x54>
    335e:	28 2b       	or	r18, r24
    3360:	20 b9       	out	0x00, r18	; 0
	else if( port_name == 3 )
	{
		micIoPortsInputPinsAddressD(pin_io,value);
	}
	return o_success;
}
    3362:	81 e0       	ldi	r24, 0x01	; 1
    3364:	08 95       	ret

//set the Port B Input Pins Address
Boolean micIoPortsInputPinsAddressB( Int8U pin_io , Boolean value ) 
{
	Boolean o_success = TRUE;
	BIT_SET(PINB,pin_io,value);
    3366:	44 23       	and	r20, r20
    3368:	c1 f0       	breq	.+48     	; 0x339a <micIoPortsInputPinsAddress+0x98>
    336a:	23 b1       	in	r18, 0x03	; 3
    336c:	81 e0       	ldi	r24, 0x01	; 1
    336e:	90 e0       	ldi	r25, 0x00	; 0
    3370:	02 c0       	rjmp	.+4      	; 0x3376 <micIoPortsInputPinsAddress+0x74>
    3372:	88 0f       	add	r24, r24
    3374:	99 1f       	adc	r25, r25
    3376:	6a 95       	dec	r22
    3378:	e2 f7       	brpl	.-8      	; 0x3372 <micIoPortsInputPinsAddress+0x70>
    337a:	28 2b       	or	r18, r24
    337c:	23 b9       	out	0x03, r18	; 3
    337e:	d0 cf       	rjmp	.-96     	; 0x3320 <micIoPortsInputPinsAddress+0x1e>

//set the Port C Input Pins Address
Boolean micIoPortsInputPinsAddressC( Int8U pin_io , Boolean value )  
{
	Boolean o_success = TRUE;
	BIT_SET(PINC,pin_io,value);
    3380:	44 23       	and	r20, r20
    3382:	b9 f0       	breq	.+46     	; 0x33b2 <micIoPortsInputPinsAddress+0xb0>
    3384:	26 b1       	in	r18, 0x06	; 6
    3386:	81 e0       	ldi	r24, 0x01	; 1
    3388:	90 e0       	ldi	r25, 0x00	; 0
    338a:	02 c0       	rjmp	.+4      	; 0x3390 <micIoPortsInputPinsAddress+0x8e>
    338c:	88 0f       	add	r24, r24
    338e:	99 1f       	adc	r25, r25
    3390:	6a 95       	dec	r22
    3392:	e2 f7       	brpl	.-8      	; 0x338c <micIoPortsInputPinsAddress+0x8a>
    3394:	28 2b       	or	r18, r24
    3396:	26 b9       	out	0x06, r18	; 6
    3398:	c3 cf       	rjmp	.-122    	; 0x3320 <micIoPortsInputPinsAddress+0x1e>

//set the Port B Input Pins Address
Boolean micIoPortsInputPinsAddressB( Int8U pin_io , Boolean value ) 
{
	Boolean o_success = TRUE;
	BIT_SET(PINB,pin_io,value);
    339a:	23 b1       	in	r18, 0x03	; 3
    339c:	81 e0       	ldi	r24, 0x01	; 1
    339e:	90 e0       	ldi	r25, 0x00	; 0
    33a0:	02 c0       	rjmp	.+4      	; 0x33a6 <micIoPortsInputPinsAddress+0xa4>
    33a2:	88 0f       	add	r24, r24
    33a4:	99 1f       	adc	r25, r25
    33a6:	6a 95       	dec	r22
    33a8:	e2 f7       	brpl	.-8      	; 0x33a2 <micIoPortsInputPinsAddress+0xa0>
    33aa:	80 95       	com	r24
    33ac:	82 23       	and	r24, r18
    33ae:	83 b9       	out	0x03, r24	; 3
    33b0:	b7 cf       	rjmp	.-146    	; 0x3320 <micIoPortsInputPinsAddress+0x1e>

//set the Port C Input Pins Address
Boolean micIoPortsInputPinsAddressC( Int8U pin_io , Boolean value )  
{
	Boolean o_success = TRUE;
	BIT_SET(PINC,pin_io,value);
    33b2:	26 b1       	in	r18, 0x06	; 6
    33b4:	81 e0       	ldi	r24, 0x01	; 1
    33b6:	90 e0       	ldi	r25, 0x00	; 0
    33b8:	02 c0       	rjmp	.+4      	; 0x33be <micIoPortsInputPinsAddress+0xbc>
    33ba:	88 0f       	add	r24, r24
    33bc:	99 1f       	adc	r25, r25
    33be:	6a 95       	dec	r22
    33c0:	e2 f7       	brpl	.-8      	; 0x33ba <micIoPortsInputPinsAddress+0xb8>
    33c2:	80 95       	com	r24
    33c4:	82 23       	and	r24, r18
    33c6:	86 b9       	out	0x06, r24	; 6
    33c8:	ab cf       	rjmp	.-170    	; 0x3320 <micIoPortsInputPinsAddress+0x1e>

//set the Port D Input Pins Address
Boolean micIoPortsInputPinsAddressD( Int8U pin_io , Boolean value )  
{
	Boolean o_suDDess = TRUE;
	BIT_SET(PIND,pin_io,value);
    33ca:	29 b1       	in	r18, 0x09	; 9
    33cc:	81 e0       	ldi	r24, 0x01	; 1
    33ce:	90 e0       	ldi	r25, 0x00	; 0
    33d0:	02 c0       	rjmp	.+4      	; 0x33d6 <micIoPortsInputPinsAddress+0xd4>
    33d2:	88 0f       	add	r24, r24
    33d4:	99 1f       	adc	r25, r25
    33d6:	6a 95       	dec	r22
    33d8:	e2 f7       	brpl	.-8      	; 0x33d2 <micIoPortsInputPinsAddress+0xd0>
    33da:	28 2b       	or	r18, r24
    33dc:	29 b9       	out	0x09, r18	; 9
    33de:	a0 cf       	rjmp	.-192    	; 0x3320 <micIoPortsInputPinsAddress+0x1e>

000033e0 <micIoPortsDataRegisterA>:

//set the Port A Data Register
Boolean micIoPortsDataRegisterA( Int8U pin_io, Boolean value ) 
{
	Boolean o_success = TRUE;
	BIT_SET(PORTA,pin_io,value);
    33e0:	66 23       	and	r22, r22
    33e2:	69 f4       	brne	.+26     	; 0x33fe <micIoPortsDataRegisterA+0x1e>
    33e4:	92 b1       	in	r25, 0x02	; 2
    33e6:	21 e0       	ldi	r18, 0x01	; 1
    33e8:	30 e0       	ldi	r19, 0x00	; 0
    33ea:	02 c0       	rjmp	.+4      	; 0x33f0 <micIoPortsDataRegisterA+0x10>
    33ec:	22 0f       	add	r18, r18
    33ee:	33 1f       	adc	r19, r19
    33f0:	8a 95       	dec	r24
    33f2:	e2 f7       	brpl	.-8      	; 0x33ec <micIoPortsDataRegisterA+0xc>
    33f4:	20 95       	com	r18
    33f6:	29 23       	and	r18, r25
    33f8:	22 b9       	out	0x02, r18	; 2
	return o_success;
}
    33fa:	81 e0       	ldi	r24, 0x01	; 1
    33fc:	08 95       	ret

//set the Port A Data Register
Boolean micIoPortsDataRegisterA( Int8U pin_io, Boolean value ) 
{
	Boolean o_success = TRUE;
	BIT_SET(PORTA,pin_io,value);
    33fe:	92 b1       	in	r25, 0x02	; 2
    3400:	21 e0       	ldi	r18, 0x01	; 1
    3402:	30 e0       	ldi	r19, 0x00	; 0
    3404:	02 c0       	rjmp	.+4      	; 0x340a <micIoPortsDataRegisterA+0x2a>
    3406:	22 0f       	add	r18, r18
    3408:	33 1f       	adc	r19, r19
    340a:	8a 95       	dec	r24
    340c:	e2 f7       	brpl	.-8      	; 0x3406 <micIoPortsDataRegisterA+0x26>
    340e:	92 2b       	or	r25, r18
    3410:	92 b9       	out	0x02, r25	; 2
	return o_success;
}
    3412:	81 e0       	ldi	r24, 0x01	; 1
    3414:	08 95       	ret

00003416 <micIoPortsReadDataRegisterA>:

//Read the Port A Data Register
Int8U micIoPortsReadDataRegisterA( void ) 
{
	return PORTA;
    3416:	82 b1       	in	r24, 0x02	; 2
}
    3418:	08 95       	ret

0000341a <micIoPortsDirectionRegisterA>:

//set the Port A Data Direction Register
Boolean micIoPortsDirectionRegisterA( Int8U pin_io , Boolean value ) 
{
	Boolean o_success = TRUE;
	BIT_SET(DDRA,pin_io,value);
    341a:	66 23       	and	r22, r22
    341c:	69 f4       	brne	.+26     	; 0x3438 <micIoPortsDirectionRegisterA+0x1e>
    341e:	91 b1       	in	r25, 0x01	; 1
    3420:	21 e0       	ldi	r18, 0x01	; 1
    3422:	30 e0       	ldi	r19, 0x00	; 0
    3424:	02 c0       	rjmp	.+4      	; 0x342a <micIoPortsDirectionRegisterA+0x10>
    3426:	22 0f       	add	r18, r18
    3428:	33 1f       	adc	r19, r19
    342a:	8a 95       	dec	r24
    342c:	e2 f7       	brpl	.-8      	; 0x3426 <micIoPortsDirectionRegisterA+0xc>
    342e:	20 95       	com	r18
    3430:	29 23       	and	r18, r25
    3432:	21 b9       	out	0x01, r18	; 1
	return o_success;
}
    3434:	81 e0       	ldi	r24, 0x01	; 1
    3436:	08 95       	ret

//set the Port A Data Direction Register
Boolean micIoPortsDirectionRegisterA( Int8U pin_io , Boolean value ) 
{
	Boolean o_success = TRUE;
	BIT_SET(DDRA,pin_io,value);
    3438:	91 b1       	in	r25, 0x01	; 1
    343a:	21 e0       	ldi	r18, 0x01	; 1
    343c:	30 e0       	ldi	r19, 0x00	; 0
    343e:	02 c0       	rjmp	.+4      	; 0x3444 <micIoPortsDirectionRegisterA+0x2a>
    3440:	22 0f       	add	r18, r18
    3442:	33 1f       	adc	r19, r19
    3444:	8a 95       	dec	r24
    3446:	e2 f7       	brpl	.-8      	; 0x3440 <micIoPortsDirectionRegisterA+0x26>
    3448:	92 2b       	or	r25, r18
    344a:	91 b9       	out	0x01, r25	; 1
	return o_success;
}
    344c:	81 e0       	ldi	r24, 0x01	; 1
    344e:	08 95       	ret

00003450 <micIoPortsInputPinsAddressA>:

//set the Port A Input Pins Address
Boolean micIoPortsInputPinsAddressA( Int8U pin_io , Boolean value ) 
{
	Boolean o_success = TRUE;
	BIT_SET(PINA,pin_io,value);
    3450:	66 23       	and	r22, r22
    3452:	69 f4       	brne	.+26     	; 0x346e <micIoPortsInputPinsAddressA+0x1e>
    3454:	90 b1       	in	r25, 0x00	; 0
    3456:	21 e0       	ldi	r18, 0x01	; 1
    3458:	30 e0       	ldi	r19, 0x00	; 0
    345a:	02 c0       	rjmp	.+4      	; 0x3460 <micIoPortsInputPinsAddressA+0x10>
    345c:	22 0f       	add	r18, r18
    345e:	33 1f       	adc	r19, r19
    3460:	8a 95       	dec	r24
    3462:	e2 f7       	brpl	.-8      	; 0x345c <micIoPortsInputPinsAddressA+0xc>
    3464:	20 95       	com	r18
    3466:	29 23       	and	r18, r25
    3468:	20 b9       	out	0x00, r18	; 0
	return o_success;
}
    346a:	81 e0       	ldi	r24, 0x01	; 1
    346c:	08 95       	ret

//set the Port A Input Pins Address
Boolean micIoPortsInputPinsAddressA( Int8U pin_io , Boolean value ) 
{
	Boolean o_success = TRUE;
	BIT_SET(PINA,pin_io,value);
    346e:	90 b1       	in	r25, 0x00	; 0
    3470:	21 e0       	ldi	r18, 0x01	; 1
    3472:	30 e0       	ldi	r19, 0x00	; 0
    3474:	02 c0       	rjmp	.+4      	; 0x347a <micIoPortsInputPinsAddressA+0x2a>
    3476:	22 0f       	add	r18, r18
    3478:	33 1f       	adc	r19, r19
    347a:	8a 95       	dec	r24
    347c:	e2 f7       	brpl	.-8      	; 0x3476 <micIoPortsInputPinsAddressA+0x26>
    347e:	92 2b       	or	r25, r18
    3480:	90 b9       	out	0x00, r25	; 0
	return o_success;
}
    3482:	81 e0       	ldi	r24, 0x01	; 1
    3484:	08 95       	ret

00003486 <micIoPortsDataRegisterB>:

//set the Port B Data Register
Boolean micIoPortsDataRegisterB( Int8U pin_io , Boolean value )  
{
	Boolean o_success = TRUE;
	BIT_SET(PORTB,pin_io,value);
    3486:	66 23       	and	r22, r22
    3488:	69 f4       	brne	.+26     	; 0x34a4 <micIoPortsDataRegisterB+0x1e>
    348a:	95 b1       	in	r25, 0x05	; 5
    348c:	21 e0       	ldi	r18, 0x01	; 1
    348e:	30 e0       	ldi	r19, 0x00	; 0
    3490:	02 c0       	rjmp	.+4      	; 0x3496 <micIoPortsDataRegisterB+0x10>
    3492:	22 0f       	add	r18, r18
    3494:	33 1f       	adc	r19, r19
    3496:	8a 95       	dec	r24
    3498:	e2 f7       	brpl	.-8      	; 0x3492 <micIoPortsDataRegisterB+0xc>
    349a:	20 95       	com	r18
    349c:	29 23       	and	r18, r25
    349e:	25 b9       	out	0x05, r18	; 5
	return o_success;
}
    34a0:	81 e0       	ldi	r24, 0x01	; 1
    34a2:	08 95       	ret

//set the Port B Data Register
Boolean micIoPortsDataRegisterB( Int8U pin_io , Boolean value )  
{
	Boolean o_success = TRUE;
	BIT_SET(PORTB,pin_io,value);
    34a4:	95 b1       	in	r25, 0x05	; 5
    34a6:	21 e0       	ldi	r18, 0x01	; 1
    34a8:	30 e0       	ldi	r19, 0x00	; 0
    34aa:	02 c0       	rjmp	.+4      	; 0x34b0 <micIoPortsDataRegisterB+0x2a>
    34ac:	22 0f       	add	r18, r18
    34ae:	33 1f       	adc	r19, r19
    34b0:	8a 95       	dec	r24
    34b2:	e2 f7       	brpl	.-8      	; 0x34ac <micIoPortsDataRegisterB+0x26>
    34b4:	92 2b       	or	r25, r18
    34b6:	95 b9       	out	0x05, r25	; 5
	return o_success;
}
    34b8:	81 e0       	ldi	r24, 0x01	; 1
    34ba:	08 95       	ret

000034bc <micIoPortsReadDataRegisterB>:

//Read the Port B Data Register
Int8U micIoPortsReadDataRegisterB( void ) 
{
	return PORTB;
    34bc:	85 b1       	in	r24, 0x05	; 5
}
    34be:	08 95       	ret

000034c0 <micIoPortsDirectionRegisterB>:

//set the Port B Data Direction Register
Boolean micIoPortsDirectionRegisterB( Int8U pin_io , Boolean value )  
{
	Boolean o_success = TRUE;
	BIT_SET(DDRB,pin_io,value);
    34c0:	66 23       	and	r22, r22
    34c2:	69 f4       	brne	.+26     	; 0x34de <micIoPortsDirectionRegisterB+0x1e>
    34c4:	94 b1       	in	r25, 0x04	; 4
    34c6:	21 e0       	ldi	r18, 0x01	; 1
    34c8:	30 e0       	ldi	r19, 0x00	; 0
    34ca:	02 c0       	rjmp	.+4      	; 0x34d0 <micIoPortsDirectionRegisterB+0x10>
    34cc:	22 0f       	add	r18, r18
    34ce:	33 1f       	adc	r19, r19
    34d0:	8a 95       	dec	r24
    34d2:	e2 f7       	brpl	.-8      	; 0x34cc <micIoPortsDirectionRegisterB+0xc>
    34d4:	20 95       	com	r18
    34d6:	29 23       	and	r18, r25
    34d8:	24 b9       	out	0x04, r18	; 4
	return o_success;
}
    34da:	81 e0       	ldi	r24, 0x01	; 1
    34dc:	08 95       	ret

//set the Port B Data Direction Register
Boolean micIoPortsDirectionRegisterB( Int8U pin_io , Boolean value )  
{
	Boolean o_success = TRUE;
	BIT_SET(DDRB,pin_io,value);
    34de:	94 b1       	in	r25, 0x04	; 4
    34e0:	21 e0       	ldi	r18, 0x01	; 1
    34e2:	30 e0       	ldi	r19, 0x00	; 0
    34e4:	02 c0       	rjmp	.+4      	; 0x34ea <micIoPortsDirectionRegisterB+0x2a>
    34e6:	22 0f       	add	r18, r18
    34e8:	33 1f       	adc	r19, r19
    34ea:	8a 95       	dec	r24
    34ec:	e2 f7       	brpl	.-8      	; 0x34e6 <micIoPortsDirectionRegisterB+0x26>
    34ee:	92 2b       	or	r25, r18
    34f0:	94 b9       	out	0x04, r25	; 4
	return o_success;
}
    34f2:	81 e0       	ldi	r24, 0x01	; 1
    34f4:	08 95       	ret

000034f6 <micIoPortsInputPinsAddressB>:

//set the Port B Input Pins Address
Boolean micIoPortsInputPinsAddressB( Int8U pin_io , Boolean value ) 
{
	Boolean o_success = TRUE;
	BIT_SET(PINB,pin_io,value);
    34f6:	66 23       	and	r22, r22
    34f8:	69 f4       	brne	.+26     	; 0x3514 <micIoPortsInputPinsAddressB+0x1e>
    34fa:	93 b1       	in	r25, 0x03	; 3
    34fc:	21 e0       	ldi	r18, 0x01	; 1
    34fe:	30 e0       	ldi	r19, 0x00	; 0
    3500:	02 c0       	rjmp	.+4      	; 0x3506 <micIoPortsInputPinsAddressB+0x10>
    3502:	22 0f       	add	r18, r18
    3504:	33 1f       	adc	r19, r19
    3506:	8a 95       	dec	r24
    3508:	e2 f7       	brpl	.-8      	; 0x3502 <micIoPortsInputPinsAddressB+0xc>
    350a:	20 95       	com	r18
    350c:	29 23       	and	r18, r25
    350e:	23 b9       	out	0x03, r18	; 3
	return o_success;
}
    3510:	81 e0       	ldi	r24, 0x01	; 1
    3512:	08 95       	ret

//set the Port B Input Pins Address
Boolean micIoPortsInputPinsAddressB( Int8U pin_io , Boolean value ) 
{
	Boolean o_success = TRUE;
	BIT_SET(PINB,pin_io,value);
    3514:	93 b1       	in	r25, 0x03	; 3
    3516:	21 e0       	ldi	r18, 0x01	; 1
    3518:	30 e0       	ldi	r19, 0x00	; 0
    351a:	02 c0       	rjmp	.+4      	; 0x3520 <micIoPortsInputPinsAddressB+0x2a>
    351c:	22 0f       	add	r18, r18
    351e:	33 1f       	adc	r19, r19
    3520:	8a 95       	dec	r24
    3522:	e2 f7       	brpl	.-8      	; 0x351c <micIoPortsInputPinsAddressB+0x26>
    3524:	92 2b       	or	r25, r18
    3526:	93 b9       	out	0x03, r25	; 3
	return o_success;
}
    3528:	81 e0       	ldi	r24, 0x01	; 1
    352a:	08 95       	ret

0000352c <micIoPortsDataRegisterC>:

//set the Port C Data Register
Boolean micIoPortsDataRegisterC( Int8U pin_io , Boolean value )  
{
	Boolean o_success = TRUE;
	BIT_SET(PORTC,pin_io,value);
    352c:	66 23       	and	r22, r22
    352e:	69 f4       	brne	.+26     	; 0x354a <micIoPortsDataRegisterC+0x1e>
    3530:	98 b1       	in	r25, 0x08	; 8
    3532:	21 e0       	ldi	r18, 0x01	; 1
    3534:	30 e0       	ldi	r19, 0x00	; 0
    3536:	02 c0       	rjmp	.+4      	; 0x353c <micIoPortsDataRegisterC+0x10>
    3538:	22 0f       	add	r18, r18
    353a:	33 1f       	adc	r19, r19
    353c:	8a 95       	dec	r24
    353e:	e2 f7       	brpl	.-8      	; 0x3538 <micIoPortsDataRegisterC+0xc>
    3540:	20 95       	com	r18
    3542:	29 23       	and	r18, r25
    3544:	28 b9       	out	0x08, r18	; 8
	return o_success;
}
    3546:	81 e0       	ldi	r24, 0x01	; 1
    3548:	08 95       	ret

//set the Port C Data Register
Boolean micIoPortsDataRegisterC( Int8U pin_io , Boolean value )  
{
	Boolean o_success = TRUE;
	BIT_SET(PORTC,pin_io,value);
    354a:	98 b1       	in	r25, 0x08	; 8
    354c:	21 e0       	ldi	r18, 0x01	; 1
    354e:	30 e0       	ldi	r19, 0x00	; 0
    3550:	02 c0       	rjmp	.+4      	; 0x3556 <micIoPortsDataRegisterC+0x2a>
    3552:	22 0f       	add	r18, r18
    3554:	33 1f       	adc	r19, r19
    3556:	8a 95       	dec	r24
    3558:	e2 f7       	brpl	.-8      	; 0x3552 <micIoPortsDataRegisterC+0x26>
    355a:	92 2b       	or	r25, r18
    355c:	98 b9       	out	0x08, r25	; 8
	return o_success;
}
    355e:	81 e0       	ldi	r24, 0x01	; 1
    3560:	08 95       	ret

00003562 <micIoPortsReadDataRegisterC>:

//Read the Port C Data Register
Int8U micIoPortsReadDataRegisterC( void ) 
{
	return PORTC;
    3562:	88 b1       	in	r24, 0x08	; 8
}
    3564:	08 95       	ret

00003566 <micIoPortsDirectionRegisterC>:

//set the Port C Data Direction Register
Boolean micIoPortsDirectionRegisterC( Int8U pin_io , Boolean value )  
{
	Boolean o_success = TRUE;
	BIT_SET(DDRC,pin_io,value);
    3566:	66 23       	and	r22, r22
    3568:	69 f4       	brne	.+26     	; 0x3584 <micIoPortsDirectionRegisterC+0x1e>
    356a:	97 b1       	in	r25, 0x07	; 7
    356c:	21 e0       	ldi	r18, 0x01	; 1
    356e:	30 e0       	ldi	r19, 0x00	; 0
    3570:	02 c0       	rjmp	.+4      	; 0x3576 <micIoPortsDirectionRegisterC+0x10>
    3572:	22 0f       	add	r18, r18
    3574:	33 1f       	adc	r19, r19
    3576:	8a 95       	dec	r24
    3578:	e2 f7       	brpl	.-8      	; 0x3572 <micIoPortsDirectionRegisterC+0xc>
    357a:	20 95       	com	r18
    357c:	29 23       	and	r18, r25
    357e:	27 b9       	out	0x07, r18	; 7
	return o_success;
}
    3580:	81 e0       	ldi	r24, 0x01	; 1
    3582:	08 95       	ret

//set the Port C Data Direction Register
Boolean micIoPortsDirectionRegisterC( Int8U pin_io , Boolean value )  
{
	Boolean o_success = TRUE;
	BIT_SET(DDRC,pin_io,value);
    3584:	97 b1       	in	r25, 0x07	; 7
    3586:	21 e0       	ldi	r18, 0x01	; 1
    3588:	30 e0       	ldi	r19, 0x00	; 0
    358a:	02 c0       	rjmp	.+4      	; 0x3590 <micIoPortsDirectionRegisterC+0x2a>
    358c:	22 0f       	add	r18, r18
    358e:	33 1f       	adc	r19, r19
    3590:	8a 95       	dec	r24
    3592:	e2 f7       	brpl	.-8      	; 0x358c <micIoPortsDirectionRegisterC+0x26>
    3594:	92 2b       	or	r25, r18
    3596:	97 b9       	out	0x07, r25	; 7
	return o_success;
}
    3598:	81 e0       	ldi	r24, 0x01	; 1
    359a:	08 95       	ret

0000359c <micIoPortsInputPinsAddressC>:

//set the Port C Input Pins Address
Boolean micIoPortsInputPinsAddressC( Int8U pin_io , Boolean value )  
{
	Boolean o_success = TRUE;
	BIT_SET(PINC,pin_io,value);
    359c:	66 23       	and	r22, r22
    359e:	69 f4       	brne	.+26     	; 0x35ba <micIoPortsInputPinsAddressC+0x1e>
    35a0:	96 b1       	in	r25, 0x06	; 6
    35a2:	21 e0       	ldi	r18, 0x01	; 1
    35a4:	30 e0       	ldi	r19, 0x00	; 0
    35a6:	02 c0       	rjmp	.+4      	; 0x35ac <micIoPortsInputPinsAddressC+0x10>
    35a8:	22 0f       	add	r18, r18
    35aa:	33 1f       	adc	r19, r19
    35ac:	8a 95       	dec	r24
    35ae:	e2 f7       	brpl	.-8      	; 0x35a8 <micIoPortsInputPinsAddressC+0xc>
    35b0:	20 95       	com	r18
    35b2:	29 23       	and	r18, r25
    35b4:	26 b9       	out	0x06, r18	; 6
	return o_success;
}
    35b6:	81 e0       	ldi	r24, 0x01	; 1
    35b8:	08 95       	ret

//set the Port C Input Pins Address
Boolean micIoPortsInputPinsAddressC( Int8U pin_io , Boolean value )  
{
	Boolean o_success = TRUE;
	BIT_SET(PINC,pin_io,value);
    35ba:	96 b1       	in	r25, 0x06	; 6
    35bc:	21 e0       	ldi	r18, 0x01	; 1
    35be:	30 e0       	ldi	r19, 0x00	; 0
    35c0:	02 c0       	rjmp	.+4      	; 0x35c6 <micIoPortsInputPinsAddressC+0x2a>
    35c2:	22 0f       	add	r18, r18
    35c4:	33 1f       	adc	r19, r19
    35c6:	8a 95       	dec	r24
    35c8:	e2 f7       	brpl	.-8      	; 0x35c2 <micIoPortsInputPinsAddressC+0x26>
    35ca:	92 2b       	or	r25, r18
    35cc:	96 b9       	out	0x06, r25	; 6
	return o_success;
}
    35ce:	81 e0       	ldi	r24, 0x01	; 1
    35d0:	08 95       	ret

000035d2 <micIoPortsDataRegisterD>:

//set the Port D Data Register
Boolean micIoPortsDataRegisterD( Int8U pin_io , Boolean value )  
{
	Boolean o_suDDess = TRUE;
	BIT_SET(PORTD,pin_io,value);
    35d2:	66 23       	and	r22, r22
    35d4:	69 f4       	brne	.+26     	; 0x35f0 <micIoPortsDataRegisterD+0x1e>
    35d6:	9b b1       	in	r25, 0x0b	; 11
    35d8:	21 e0       	ldi	r18, 0x01	; 1
    35da:	30 e0       	ldi	r19, 0x00	; 0
    35dc:	02 c0       	rjmp	.+4      	; 0x35e2 <micIoPortsDataRegisterD+0x10>
    35de:	22 0f       	add	r18, r18
    35e0:	33 1f       	adc	r19, r19
    35e2:	8a 95       	dec	r24
    35e4:	e2 f7       	brpl	.-8      	; 0x35de <micIoPortsDataRegisterD+0xc>
    35e6:	20 95       	com	r18
    35e8:	29 23       	and	r18, r25
    35ea:	2b b9       	out	0x0b, r18	; 11
	return o_suDDess;
}
    35ec:	81 e0       	ldi	r24, 0x01	; 1
    35ee:	08 95       	ret

//set the Port D Data Register
Boolean micIoPortsDataRegisterD( Int8U pin_io , Boolean value )  
{
	Boolean o_suDDess = TRUE;
	BIT_SET(PORTD,pin_io,value);
    35f0:	9b b1       	in	r25, 0x0b	; 11
    35f2:	21 e0       	ldi	r18, 0x01	; 1
    35f4:	30 e0       	ldi	r19, 0x00	; 0
    35f6:	02 c0       	rjmp	.+4      	; 0x35fc <micIoPortsDataRegisterD+0x2a>
    35f8:	22 0f       	add	r18, r18
    35fa:	33 1f       	adc	r19, r19
    35fc:	8a 95       	dec	r24
    35fe:	e2 f7       	brpl	.-8      	; 0x35f8 <micIoPortsDataRegisterD+0x26>
    3600:	92 2b       	or	r25, r18
    3602:	9b b9       	out	0x0b, r25	; 11
	return o_suDDess;
}
    3604:	81 e0       	ldi	r24, 0x01	; 1
    3606:	08 95       	ret

00003608 <micIoPortsReadDataRegisterD>:

//Read the Port D Data Register
Int8U micIoPortsReadDataRegisterD( void ) 
{
	return PORTD;
    3608:	8b b1       	in	r24, 0x0b	; 11
}
    360a:	08 95       	ret

0000360c <micIoPortsDirectionRegisterD>:

//set the Port D Data DireDtion Register
Boolean micIoPortsDirectionRegisterD( Int8U pin_io , Boolean value ) 
{
	Boolean o_suDDess = TRUE;
	BIT_SET(DDRD,pin_io,value);
    360c:	66 23       	and	r22, r22
    360e:	69 f4       	brne	.+26     	; 0x362a <micIoPortsDirectionRegisterD+0x1e>
    3610:	9a b1       	in	r25, 0x0a	; 10
    3612:	21 e0       	ldi	r18, 0x01	; 1
    3614:	30 e0       	ldi	r19, 0x00	; 0
    3616:	02 c0       	rjmp	.+4      	; 0x361c <micIoPortsDirectionRegisterD+0x10>
    3618:	22 0f       	add	r18, r18
    361a:	33 1f       	adc	r19, r19
    361c:	8a 95       	dec	r24
    361e:	e2 f7       	brpl	.-8      	; 0x3618 <micIoPortsDirectionRegisterD+0xc>
    3620:	20 95       	com	r18
    3622:	29 23       	and	r18, r25
    3624:	2a b9       	out	0x0a, r18	; 10
	return o_suDDess;
}
    3626:	81 e0       	ldi	r24, 0x01	; 1
    3628:	08 95       	ret

//set the Port D Data DireDtion Register
Boolean micIoPortsDirectionRegisterD( Int8U pin_io , Boolean value ) 
{
	Boolean o_suDDess = TRUE;
	BIT_SET(DDRD,pin_io,value);
    362a:	9a b1       	in	r25, 0x0a	; 10
    362c:	21 e0       	ldi	r18, 0x01	; 1
    362e:	30 e0       	ldi	r19, 0x00	; 0
    3630:	02 c0       	rjmp	.+4      	; 0x3636 <micIoPortsDirectionRegisterD+0x2a>
    3632:	22 0f       	add	r18, r18
    3634:	33 1f       	adc	r19, r19
    3636:	8a 95       	dec	r24
    3638:	e2 f7       	brpl	.-8      	; 0x3632 <micIoPortsDirectionRegisterD+0x26>
    363a:	92 2b       	or	r25, r18
    363c:	9a b9       	out	0x0a, r25	; 10
	return o_suDDess;
}
    363e:	81 e0       	ldi	r24, 0x01	; 1
    3640:	08 95       	ret

00003642 <micIoPortsInputPinsAddressD>:

//set the Port D Input Pins Address
Boolean micIoPortsInputPinsAddressD( Int8U pin_io , Boolean value )  
{
	Boolean o_suDDess = TRUE;
	BIT_SET(PIND,pin_io,value);
    3642:	66 23       	and	r22, r22
    3644:	69 f4       	brne	.+26     	; 0x3660 <micIoPortsInputPinsAddressD+0x1e>
    3646:	99 b1       	in	r25, 0x09	; 9
    3648:	21 e0       	ldi	r18, 0x01	; 1
    364a:	30 e0       	ldi	r19, 0x00	; 0
    364c:	02 c0       	rjmp	.+4      	; 0x3652 <micIoPortsInputPinsAddressD+0x10>
    364e:	22 0f       	add	r18, r18
    3650:	33 1f       	adc	r19, r19
    3652:	8a 95       	dec	r24
    3654:	e2 f7       	brpl	.-8      	; 0x364e <micIoPortsInputPinsAddressD+0xc>
    3656:	20 95       	com	r18
    3658:	29 23       	and	r18, r25
    365a:	29 b9       	out	0x09, r18	; 9
	return o_suDDess;
    365c:	81 e0       	ldi	r24, 0x01	; 1
    365e:	08 95       	ret

//set the Port D Input Pins Address
Boolean micIoPortsInputPinsAddressD( Int8U pin_io , Boolean value )  
{
	Boolean o_suDDess = TRUE;
	BIT_SET(PIND,pin_io,value);
    3660:	99 b1       	in	r25, 0x09	; 9
    3662:	21 e0       	ldi	r18, 0x01	; 1
    3664:	30 e0       	ldi	r19, 0x00	; 0
    3666:	02 c0       	rjmp	.+4      	; 0x366c <micIoPortsInputPinsAddressD+0x2a>
    3668:	22 0f       	add	r18, r18
    366a:	33 1f       	adc	r19, r19
    366c:	8a 95       	dec	r24
    366e:	e2 f7       	brpl	.-8      	; 0x3668 <micIoPortsInputPinsAddressD+0x26>
    3670:	92 2b       	or	r25, r18
    3672:	99 b9       	out	0x09, r25	; 9
	return o_suDDess;
    3674:	81 e0       	ldi	r24, 0x01	; 1
    3676:	08 95       	ret

00003678 <micPowerMangementSleepMode>:

//set the SM2:0: Sleep Mode Select Bits 2, 1, and 0
Boolean micPowerMangementSleepMode ( PowerMangementStanbyMode sleep_mode ) 
{
	Boolean o_success = TRUE;
	SMCR |= sleep_mode;
    3678:	93 b7       	in	r25, 0x33	; 51
    367a:	98 2b       	or	r25, r24
    367c:	93 bf       	out	0x33, r25	; 51
	return o_success;
}
    367e:	81 e0       	ldi	r24, 0x01	; 1
    3680:	08 95       	ret

00003682 <micPowerMangementSleepEnable>:

//set the SE: Sleep Enable
Boolean micPowerMangementSleepEnable ( Boolean enable ) 
{
	Boolean o_success = TRUE;
	BIT_SET(SMCR,SE,enable);
    3682:	88 23       	and	r24, r24
    3684:	29 f4       	brne	.+10     	; 0x3690 <micPowerMangementSleepEnable+0xe>
    3686:	83 b7       	in	r24, 0x33	; 51
    3688:	8e 7f       	andi	r24, 0xFE	; 254
    368a:	83 bf       	out	0x33, r24	; 51
	return o_success;
}
    368c:	81 e0       	ldi	r24, 0x01	; 1
    368e:	08 95       	ret

//set the SE: Sleep Enable
Boolean micPowerMangementSleepEnable ( Boolean enable ) 
{
	Boolean o_success = TRUE;
	BIT_SET(SMCR,SE,enable);
    3690:	83 b7       	in	r24, 0x33	; 51
    3692:	81 60       	ori	r24, 0x01	; 1
    3694:	83 bf       	out	0x33, r24	; 51
	return o_success;
}
    3696:	81 e0       	ldi	r24, 0x01	; 1
    3698:	08 95       	ret

0000369a <micPowerMangementMasterControlUnitBrownOutVoltageSleep>:

//set the BODS: BOD Sleep
Boolean micPowerMangementMasterControlUnitBrownOutVoltageSleep ( Boolean enable ) 
{
	Boolean o_success = TRUE;
	BIT_SET(MCUCR,BODS,enable);
    369a:	88 23       	and	r24, r24
    369c:	29 f4       	brne	.+10     	; 0x36a8 <micPowerMangementMasterControlUnitBrownOutVoltageSleep+0xe>
    369e:	85 b7       	in	r24, 0x35	; 53
    36a0:	8f 7b       	andi	r24, 0xBF	; 191
    36a2:	85 bf       	out	0x35, r24	; 53
	return o_success;
}
    36a4:	81 e0       	ldi	r24, 0x01	; 1
    36a6:	08 95       	ret

//set the BODS: BOD Sleep
Boolean micPowerMangementMasterControlUnitBrownOutVoltageSleep ( Boolean enable ) 
{
	Boolean o_success = TRUE;
	BIT_SET(MCUCR,BODS,enable);
    36a8:	85 b7       	in	r24, 0x35	; 53
    36aa:	80 64       	ori	r24, 0x40	; 64
    36ac:	85 bf       	out	0x35, r24	; 53
	return o_success;
}
    36ae:	81 e0       	ldi	r24, 0x01	; 1
    36b0:	08 95       	ret

000036b2 <micPowerMangementMasterControlUnitBrownOutVoltageSleepEnable>:

//set the BODSE: BOD Sleep Enable
Boolean micPowerMangementMasterControlUnitBrownOutVoltageSleepEnable ( Boolean enable ) 
{
	Boolean o_success = TRUE;
	BIT_SET(MCUCR,BODSE,enable);
    36b2:	88 23       	and	r24, r24
    36b4:	29 f4       	brne	.+10     	; 0x36c0 <micPowerMangementMasterControlUnitBrownOutVoltageSleepEnable+0xe>
    36b6:	85 b7       	in	r24, 0x35	; 53
    36b8:	8f 7d       	andi	r24, 0xDF	; 223
    36ba:	85 bf       	out	0x35, r24	; 53
	return o_success;
}
    36bc:	81 e0       	ldi	r24, 0x01	; 1
    36be:	08 95       	ret

//set the BODSE: BOD Sleep Enable
Boolean micPowerMangementMasterControlUnitBrownOutVoltageSleepEnable ( Boolean enable ) 
{
	Boolean o_success = TRUE;
	BIT_SET(MCUCR,BODSE,enable);
    36c0:	85 b7       	in	r24, 0x35	; 53
    36c2:	80 62       	ori	r24, 0x20	; 32
    36c4:	85 bf       	out	0x35, r24	; 53
	return o_success;
}
    36c6:	81 e0       	ldi	r24, 0x01	; 1
    36c8:	08 95       	ret

000036ca <micPowerMangementPowerReductionTWI>:

//set the PRTWI: Power Reduction TWI
Boolean micPowerMangementPowerReductionTWI ( Boolean enable ) 
{
	Boolean o_success = TRUE;
	BIT_SET(PRR0,PRTWI,enable);
    36ca:	88 23       	and	r24, r24
    36cc:	39 f4       	brne	.+14     	; 0x36dc <micPowerMangementPowerReductionTWI+0x12>
    36ce:	80 91 64 00 	lds	r24, 0x0064
    36d2:	8f 77       	andi	r24, 0x7F	; 127
    36d4:	80 93 64 00 	sts	0x0064, r24
	return o_success;
}
    36d8:	81 e0       	ldi	r24, 0x01	; 1
    36da:	08 95       	ret

//set the PRTWI: Power Reduction TWI
Boolean micPowerMangementPowerReductionTWI ( Boolean enable ) 
{
	Boolean o_success = TRUE;
	BIT_SET(PRR0,PRTWI,enable);
    36dc:	80 91 64 00 	lds	r24, 0x0064
    36e0:	80 68       	ori	r24, 0x80	; 128
    36e2:	80 93 64 00 	sts	0x0064, r24
	return o_success;
}
    36e6:	81 e0       	ldi	r24, 0x01	; 1
    36e8:	08 95       	ret

000036ea <micPowerMangementPowerReductionTimerCounter2>:

//set the PRTIM2: Power Reduction Timer/Counter2
Boolean micPowerMangementPowerReductionTimerCounter2 ( Boolean enable ) 
{
	Boolean o_success = TRUE;
	BIT_SET(PRR0,PRTIM2,enable);
    36ea:	88 23       	and	r24, r24
    36ec:	39 f4       	brne	.+14     	; 0x36fc <micPowerMangementPowerReductionTimerCounter2+0x12>
    36ee:	80 91 64 00 	lds	r24, 0x0064
    36f2:	8f 7b       	andi	r24, 0xBF	; 191
    36f4:	80 93 64 00 	sts	0x0064, r24
	return o_success;
}
    36f8:	81 e0       	ldi	r24, 0x01	; 1
    36fa:	08 95       	ret

//set the PRTIM2: Power Reduction Timer/Counter2
Boolean micPowerMangementPowerReductionTimerCounter2 ( Boolean enable ) 
{
	Boolean o_success = TRUE;
	BIT_SET(PRR0,PRTIM2,enable);
    36fc:	80 91 64 00 	lds	r24, 0x0064
    3700:	80 64       	ori	r24, 0x40	; 64
    3702:	80 93 64 00 	sts	0x0064, r24
	return o_success;
}
    3706:	81 e0       	ldi	r24, 0x01	; 1
    3708:	08 95       	ret

0000370a <micPowerMangementPowerReductionTimerCounter0>:

//set the PRTIM2: Power Reduction Timer/Counter0
Boolean micPowerMangementPowerReductionTimerCounter0 ( Boolean enable ) 
{
	Boolean o_success = TRUE;
	BIT_SET(PRR0,PRTIM0,enable);
    370a:	88 23       	and	r24, r24
    370c:	39 f4       	brne	.+14     	; 0x371c <micPowerMangementPowerReductionTimerCounter0+0x12>
    370e:	80 91 64 00 	lds	r24, 0x0064
    3712:	8f 7d       	andi	r24, 0xDF	; 223
    3714:	80 93 64 00 	sts	0x0064, r24
	return o_success;
}
    3718:	81 e0       	ldi	r24, 0x01	; 1
    371a:	08 95       	ret

//set the PRTIM2: Power Reduction Timer/Counter0
Boolean micPowerMangementPowerReductionTimerCounter0 ( Boolean enable ) 
{
	Boolean o_success = TRUE;
	BIT_SET(PRR0,PRTIM0,enable);
    371c:	80 91 64 00 	lds	r24, 0x0064
    3720:	80 62       	ori	r24, 0x20	; 32
    3722:	80 93 64 00 	sts	0x0064, r24
	return o_success;
}
    3726:	81 e0       	ldi	r24, 0x01	; 1
    3728:	08 95       	ret

0000372a <micPowerMangementPowerReductionUSART1>:

//set the PRUSART1: Power Reduction USART1
Boolean micPowerMangementPowerReductionUSART1 ( Boolean enable ) 
{
	Boolean o_success = TRUE;
	BIT_SET(PRR0,PRUSART1,enable);
    372a:	88 23       	and	r24, r24
    372c:	39 f4       	brne	.+14     	; 0x373c <micPowerMangementPowerReductionUSART1+0x12>
    372e:	80 91 64 00 	lds	r24, 0x0064
    3732:	8f 7e       	andi	r24, 0xEF	; 239
    3734:	80 93 64 00 	sts	0x0064, r24
	return o_success;
}
    3738:	81 e0       	ldi	r24, 0x01	; 1
    373a:	08 95       	ret

//set the PRUSART1: Power Reduction USART1
Boolean micPowerMangementPowerReductionUSART1 ( Boolean enable ) 
{
	Boolean o_success = TRUE;
	BIT_SET(PRR0,PRUSART1,enable);
    373c:	80 91 64 00 	lds	r24, 0x0064
    3740:	80 61       	ori	r24, 0x10	; 16
    3742:	80 93 64 00 	sts	0x0064, r24
	return o_success;
}
    3746:	81 e0       	ldi	r24, 0x01	; 1
    3748:	08 95       	ret

0000374a <micPowerMangementPowerReductionTimerCounter1>:

//set the PRTIM2: Power Reduction Timer/Counter1
Boolean micPowerMangementPowerReductionTimerCounter1 ( Boolean enable ) 
{
	Boolean o_success = TRUE;
	BIT_SET(PRR0,PRTIM1,enable);
    374a:	88 23       	and	r24, r24
    374c:	39 f4       	brne	.+14     	; 0x375c <micPowerMangementPowerReductionTimerCounter1+0x12>
    374e:	80 91 64 00 	lds	r24, 0x0064
    3752:	87 7f       	andi	r24, 0xF7	; 247
    3754:	80 93 64 00 	sts	0x0064, r24
	return o_success;
}
    3758:	81 e0       	ldi	r24, 0x01	; 1
    375a:	08 95       	ret

//set the PRTIM2: Power Reduction Timer/Counter1
Boolean micPowerMangementPowerReductionTimerCounter1 ( Boolean enable ) 
{
	Boolean o_success = TRUE;
	BIT_SET(PRR0,PRTIM1,enable);
    375c:	80 91 64 00 	lds	r24, 0x0064
    3760:	88 60       	ori	r24, 0x08	; 8
    3762:	80 93 64 00 	sts	0x0064, r24
	return o_success;
}
    3766:	81 e0       	ldi	r24, 0x01	; 1
    3768:	08 95       	ret

0000376a <micPowerMangementPowerReductionSPI>:

//set the PRSPI: Power Reduction Serial Peripheral Interface
Boolean micPowerMangementPowerReductionSPI ( Boolean enable ) 
{
	Boolean o_success = TRUE;
	BIT_SET(PRR0,PRSPI,enable);
    376a:	88 23       	and	r24, r24
    376c:	39 f4       	brne	.+14     	; 0x377c <micPowerMangementPowerReductionSPI+0x12>
    376e:	80 91 64 00 	lds	r24, 0x0064
    3772:	8b 7f       	andi	r24, 0xFB	; 251
    3774:	80 93 64 00 	sts	0x0064, r24
	return o_success;
}
    3778:	81 e0       	ldi	r24, 0x01	; 1
    377a:	08 95       	ret

//set the PRSPI: Power Reduction Serial Peripheral Interface
Boolean micPowerMangementPowerReductionSPI ( Boolean enable ) 
{
	Boolean o_success = TRUE;
	BIT_SET(PRR0,PRSPI,enable);
    377c:	80 91 64 00 	lds	r24, 0x0064
    3780:	84 60       	ori	r24, 0x04	; 4
    3782:	80 93 64 00 	sts	0x0064, r24
	return o_success;
}
    3786:	81 e0       	ldi	r24, 0x01	; 1
    3788:	08 95       	ret

0000378a <micPowerMangementPowerReductionUSART0>:

//set the PRUSART1: Power Reduction USART0
Boolean micPowerMangementPowerReductionUSART0 ( Boolean enable ) 
{
	Boolean o_success = TRUE;
	BIT_SET(PRR0,PRUSART0,enable);
    378a:	88 23       	and	r24, r24
    378c:	39 f4       	brne	.+14     	; 0x379c <micPowerMangementPowerReductionUSART0+0x12>
    378e:	80 91 64 00 	lds	r24, 0x0064
    3792:	8d 7f       	andi	r24, 0xFD	; 253
    3794:	80 93 64 00 	sts	0x0064, r24
	return o_success;
}
    3798:	81 e0       	ldi	r24, 0x01	; 1
    379a:	08 95       	ret

//set the PRUSART1: Power Reduction USART0
Boolean micPowerMangementPowerReductionUSART0 ( Boolean enable ) 
{
	Boolean o_success = TRUE;
	BIT_SET(PRR0,PRUSART0,enable);
    379c:	80 91 64 00 	lds	r24, 0x0064
    37a0:	82 60       	ori	r24, 0x02	; 2
    37a2:	80 93 64 00 	sts	0x0064, r24
	return o_success;
}
    37a6:	81 e0       	ldi	r24, 0x01	; 1
    37a8:	08 95       	ret

000037aa <micPowerMangementPowerReductionADC>:

//set the PRADC: Power Reduction ADC
Boolean micPowerMangementPowerReductionADC ( Boolean enable ) 
{
	Boolean o_success = TRUE;
	BIT_SET(PRR0,PRADC,enable);
    37aa:	88 23       	and	r24, r24
    37ac:	39 f4       	brne	.+14     	; 0x37bc <micPowerMangementPowerReductionADC+0x12>
    37ae:	80 91 64 00 	lds	r24, 0x0064
    37b2:	8e 7f       	andi	r24, 0xFE	; 254
    37b4:	80 93 64 00 	sts	0x0064, r24
	return o_success;
    37b8:	81 e0       	ldi	r24, 0x01	; 1
    37ba:	08 95       	ret

//set the PRADC: Power Reduction ADC
Boolean micPowerMangementPowerReductionADC ( Boolean enable ) 
{
	Boolean o_success = TRUE;
	BIT_SET(PRR0,PRADC,enable);
    37bc:	80 91 64 00 	lds	r24, 0x0064
    37c0:	81 60       	ori	r24, 0x01	; 1
    37c2:	80 93 64 00 	sts	0x0064, r24
	return o_success;
    37c6:	81 e0       	ldi	r24, 0x01	; 1
    37c8:	08 95       	ret

000037ca <micSystemClockOscillatorCalibrationValue>:
//set the CAL7:0: Oscillator Calibration Value
Boolean micSystemClockOscillatorCalibrationValue( Int8U osccal_value ) 
{
	Boolean o_success = TRUE;
	
	OSCCAL = osccal_value;
    37ca:	80 93 66 00 	sts	0x0066, r24
	return o_success;
}
    37ce:	81 e0       	ldi	r24, 0x01	; 1
    37d0:	08 95       	ret

000037d2 <micSystemClockPrescalerChangeEnable>:

//set the CLKPCE: Clock Prescaler Change Enable
Boolean micSystemClockPrescalerChangeEnable( Boolean enable ) 
{
	Boolean o_success = TRUE;
	BIT_SET(CLKPR,CLKPCE,enable);
    37d2:	88 23       	and	r24, r24
    37d4:	39 f4       	brne	.+14     	; 0x37e4 <micSystemClockPrescalerChangeEnable+0x12>
    37d6:	80 91 61 00 	lds	r24, 0x0061
    37da:	8f 77       	andi	r24, 0x7F	; 127
    37dc:	80 93 61 00 	sts	0x0061, r24
	return o_success;
}
    37e0:	81 e0       	ldi	r24, 0x01	; 1
    37e2:	08 95       	ret

//set the CLKPCE: Clock Prescaler Change Enable
Boolean micSystemClockPrescalerChangeEnable( Boolean enable ) 
{
	Boolean o_success = TRUE;
	BIT_SET(CLKPR,CLKPCE,enable);
    37e4:	80 91 61 00 	lds	r24, 0x0061
    37e8:	80 68       	ori	r24, 0x80	; 128
    37ea:	80 93 61 00 	sts	0x0061, r24
	return o_success;
}
    37ee:	81 e0       	ldi	r24, 0x01	; 1
    37f0:	08 95       	ret

000037f2 <micSystemClockPrescalerSelectBits>:

//set the CLKPS3:0: Clock Prescaler Select Bits 3 - 0
Boolean micSystemClockPrescalerSelectBits( SystemClockPrescaler prescaler_value ) 
{
	Boolean o_success = TRUE;
	CLKPR |= (prescaler_value & 0x0F);
    37f2:	e1 e6       	ldi	r30, 0x61	; 97
    37f4:	f0 e0       	ldi	r31, 0x00	; 0
    37f6:	90 81       	ld	r25, Z
    37f8:	8f 70       	andi	r24, 0x0F	; 15
    37fa:	89 2b       	or	r24, r25
    37fc:	80 83       	st	Z, r24
	return o_success;
}
    37fe:	81 e0       	ldi	r24, 0x01	; 1
    3800:	08 95       	ret

00003802 <micSystemControlMasterControlUnitJtagResetFlag>:

//get the JTRF: JTAG Reset Flag
Boolean micSystemControlMasterControlUnitJtagResetFlag( void ) 
{
	Boolean o_success;
	o_success = (MCUSR & JTRF) >> JTRF;
    3802:	84 b7       	in	r24, 0x34	; 52
	return o_success;
}
    3804:	80 e0       	ldi	r24, 0x00	; 0
    3806:	08 95       	ret

00003808 <micSystemControlMasterControlUnitWatchdogResetFlag>:

//get the WDRF: Watchdog Reset Flag
Boolean micSystemControlMasterControlUnitWatchdogResetFlag( void ) 
{
	Boolean o_success;
	o_success = (MCUSR & WDRF) >> WDRF;
    3808:	84 b7       	in	r24, 0x34	; 52
	return o_success;
}
    380a:	80 e0       	ldi	r24, 0x00	; 0
    380c:	08 95       	ret

0000380e <micSystemControlMasterControlUnitBrownOutResetFlag>:

//get the BORF: Brown-out Reset Flag
Boolean micSystemControlMasterControlUnitBrownOutResetFlag( void ) 
{
	Boolean o_success;
	o_success = (MCUSR & BORF) >> BORF;
    380e:	84 b7       	in	r24, 0x34	; 52
	return o_success;
}
    3810:	80 e0       	ldi	r24, 0x00	; 0
    3812:	08 95       	ret

00003814 <micSystemControlMasterControlUnitExternalResetFlag>:

//get the EXTRF: External Reset Flag
Boolean micSystemControlMasterControlUnitExternalResetFlag( void ) 
{
	Boolean o_success;
	o_success = (MCUSR & JTRF) >> JTRF;
    3814:	84 b7       	in	r24, 0x34	; 52
	return o_success;
}
    3816:	80 e0       	ldi	r24, 0x00	; 0
    3818:	08 95       	ret

0000381a <micSystemControlMasterControlUnitPowerOnResetFlag>:

//get the PORF: Power-on Reset Flag
Boolean micSystemControlMasterControlUnitPowerOnResetFlag( void ) 
{
	Boolean o_success;
	o_success = (MCUSR & PORF) >> PORF;
    381a:	84 b7       	in	r24, 0x34	; 52
	return o_success;
}
    381c:	80 e0       	ldi	r24, 0x00	; 0
    381e:	08 95       	ret

00003820 <micSystemControlWatchdogTimerControlWatchdogFlag>:

//get the WDIF: Watchdog Interrupt Flag
Boolean micSystemControlWatchdogTimerControlWatchdogFlag( void ) 
{
	Boolean o_success;
	o_success = (WDTCSR & WDIF) >> WDIF;
    3820:	80 91 60 00 	lds	r24, 0x0060
	return o_success;
}
    3824:	80 e0       	ldi	r24, 0x00	; 0
    3826:	08 95       	ret

00003828 <micSystemControlWatchdogTimerControlWatchdogInterruptEnable>:

//set the WDIE: Watchdog Interrupt Enable
Boolean micSystemControlWatchdogTimerControlWatchdogInterruptEnable( Boolean enable ) 
{
	Boolean o_success = TRUE;
	BIT_SET(WDTCSR,WDIE,enable);
    3828:	88 23       	and	r24, r24
    382a:	39 f4       	brne	.+14     	; 0x383a <micSystemControlWatchdogTimerControlWatchdogInterruptEnable+0x12>
    382c:	80 91 60 00 	lds	r24, 0x0060
    3830:	8f 7b       	andi	r24, 0xBF	; 191
    3832:	80 93 60 00 	sts	0x0060, r24
	return o_success;
}
    3836:	81 e0       	ldi	r24, 0x01	; 1
    3838:	08 95       	ret

//set the WDIE: Watchdog Interrupt Enable
Boolean micSystemControlWatchdogTimerControlWatchdogInterruptEnable( Boolean enable ) 
{
	Boolean o_success = TRUE;
	BIT_SET(WDTCSR,WDIE,enable);
    383a:	80 91 60 00 	lds	r24, 0x0060
    383e:	80 64       	ori	r24, 0x40	; 64
    3840:	80 93 60 00 	sts	0x0060, r24
	return o_success;
}
    3844:	81 e0       	ldi	r24, 0x01	; 1
    3846:	08 95       	ret

00003848 <micSystemControlWatchdogTimerControlWatchdogChangeEnable>:

//get the WDCE: Watchdog Change Enable
Boolean micSystemControlWatchdogTimerControlWatchdogChangeEnable( void ) 
{
	Boolean o_success;
	o_success = (WDTCSR & WDCE) >> WDCE;
    3848:	80 91 60 00 	lds	r24, 0x0060
	return o_success;
}
    384c:	80 e0       	ldi	r24, 0x00	; 0
    384e:	08 95       	ret

00003850 <micSystemControlWatchdogTimerControlWatchdogSystemResetEnable>:

//set the WDE: Watchdog System Reset Enable
Boolean micSystemControlWatchdogTimerControlWatchdogSystemResetEnable( Boolean enable ) 
{
	Boolean o_success = TRUE;
	BIT_SET(WDTCSR,WDE,enable);
    3850:	88 23       	and	r24, r24
    3852:	39 f4       	brne	.+14     	; 0x3862 <micSystemControlWatchdogTimerControlWatchdogSystemResetEnable+0x12>
    3854:	80 91 60 00 	lds	r24, 0x0060
    3858:	87 7f       	andi	r24, 0xF7	; 247
    385a:	80 93 60 00 	sts	0x0060, r24
	return o_success;
}
    385e:	81 e0       	ldi	r24, 0x01	; 1
    3860:	08 95       	ret

//set the WDE: Watchdog System Reset Enable
Boolean micSystemControlWatchdogTimerControlWatchdogSystemResetEnable( Boolean enable ) 
{
	Boolean o_success = TRUE;
	BIT_SET(WDTCSR,WDE,enable);
    3862:	80 91 60 00 	lds	r24, 0x0060
    3866:	88 60       	ori	r24, 0x08	; 8
    3868:	80 93 60 00 	sts	0x0060, r24
	return o_success;
}
    386c:	81 e0       	ldi	r24, 0x01	; 1
    386e:	08 95       	ret

00003870 <micSystemControlWatchdogTimerControlWatchdogTimerPrescaler>:

//set the WDP3:0: Watchdog Timer Prescaler 3, 2, 1 and 0
Boolean micSystemControlWatchdogTimerControlWatchdogTimerPrescaler( ESystemWatchdogPrescaler prescaler_value ) 
{
	Boolean o_success = TRUE;
	WDTCSR |= prescaler_value;
    3870:	e0 e6       	ldi	r30, 0x60	; 96
    3872:	f0 e0       	ldi	r31, 0x00	; 0
    3874:	90 81       	ld	r25, Z
    3876:	98 2b       	or	r25, r24
    3878:	90 83       	st	Z, r25
	return o_success;
    387a:	81 e0       	ldi	r24, 0x01	; 1
    387c:	08 95       	ret

0000387e <micTimer0CompareMatchOutputAMode>:

//set the COM0A1:0: Compare Match Output A Mode
Boolean micTimer0CompareMatchOutputAMode( ETimer0CompareMatchOutputAMode mode ) 
{
	Boolean o_success = TRUE;
	TCCR0A = ( TCCR0A & ~( ( 1U << COM0A1 ) | ( 1U << COM0A0 ) ) ) |
    387e:	94 b5       	in	r25, 0x24	; 36
    3880:	80 7c       	andi	r24, 0xC0	; 192
    3882:	9f 73       	andi	r25, 0x3F	; 63
    3884:	89 2b       	or	r24, r25
    3886:	84 bd       	out	0x24, r24	; 36
             ( mode   &  ( ( 1U << COM0A1 ) | ( 1U << COM0A0 ) ) );
	return o_success;
}
    3888:	81 e0       	ldi	r24, 0x01	; 1
    388a:	08 95       	ret

0000388c <micTimer0CompareMatchOutputBMode>:

//set the COM0B1:0: Compare Match Output B Mode
Boolean micTimer0CompareMatchOutputBMode( ETimer0CompareMatchOutputBMode mode ) 
{
	Boolean o_success = TRUE;
	TCCR0B = ( TCCR0B & ~( ( 1U << COM0B1 ) | ( 1U << COM0B0 ) ) ) |
    388c:	95 b5       	in	r25, 0x25	; 37
    388e:	80 73       	andi	r24, 0x30	; 48
    3890:	9f 7c       	andi	r25, 0xCF	; 207
    3892:	89 2b       	or	r24, r25
    3894:	85 bd       	out	0x25, r24	; 37
             ( mode   &  ( ( 1U << COM0B1 ) | ( 1U << COM0B0 ) ) );
	return o_success;
}
    3896:	81 e0       	ldi	r24, 0x01	; 1
    3898:	08 95       	ret

0000389a <micTimer0WaveformGenerationMode>:

//set the WGM01:0: Waveform Generation Mode
Boolean micTimer0WaveformGenerationMode( ETimer0GeneratorMode mode ) 
{
	Boolean o_success = TRUE;
	BIT_SET(TCCR0A , WGM00,( mode & ( 1U << WGM00 ) ) );
    389a:	80 ff       	sbrs	r24, 0
    389c:	0f c0       	rjmp	.+30     	; 0x38bc <micTimer0WaveformGenerationMode+0x22>
    389e:	24 b5       	in	r18, 0x24	; 36
    38a0:	21 60       	ori	r18, 0x01	; 1
    38a2:	24 bd       	out	0x24, r18	; 36
	BIT_SET(TCCR0A , WGM01,( mode & ( 1U << WGM01 ) ) >> 1U );
    38a4:	81 ff       	sbrs	r24, 1
    38a6:	0f c0       	rjmp	.+30     	; 0x38c6 <micTimer0WaveformGenerationMode+0x2c>
    38a8:	24 b5       	in	r18, 0x24	; 36
    38aa:	22 60       	ori	r18, 0x02	; 2
    38ac:	24 bd       	out	0x24, r18	; 36
	BIT_SET(TCCR0B , WGM02,( mode & ( 1U << WGM02 ) ) >> 2U );
    38ae:	83 fd       	sbrc	r24, 3
    38b0:	0f c0       	rjmp	.+30     	; 0x38d0 <micTimer0WaveformGenerationMode+0x36>
    38b2:	85 b5       	in	r24, 0x25	; 37
    38b4:	87 7f       	andi	r24, 0xF7	; 247
    38b6:	85 bd       	out	0x25, r24	; 37
	
	return o_success;
}
    38b8:	81 e0       	ldi	r24, 0x01	; 1
    38ba:	08 95       	ret

//set the WGM01:0: Waveform Generation Mode
Boolean micTimer0WaveformGenerationMode( ETimer0GeneratorMode mode ) 
{
	Boolean o_success = TRUE;
	BIT_SET(TCCR0A , WGM00,( mode & ( 1U << WGM00 ) ) );
    38bc:	24 b5       	in	r18, 0x24	; 36
    38be:	2e 7f       	andi	r18, 0xFE	; 254
    38c0:	24 bd       	out	0x24, r18	; 36
	BIT_SET(TCCR0A , WGM01,( mode & ( 1U << WGM01 ) ) >> 1U );
    38c2:	81 fd       	sbrc	r24, 1
    38c4:	f1 cf       	rjmp	.-30     	; 0x38a8 <micTimer0WaveformGenerationMode+0xe>
    38c6:	24 b5       	in	r18, 0x24	; 36
    38c8:	2d 7f       	andi	r18, 0xFD	; 253
    38ca:	24 bd       	out	0x24, r18	; 36
	BIT_SET(TCCR0B , WGM02,( mode & ( 1U << WGM02 ) ) >> 2U );
    38cc:	83 ff       	sbrs	r24, 3
    38ce:	f1 cf       	rjmp	.-30     	; 0x38b2 <micTimer0WaveformGenerationMode+0x18>
    38d0:	85 b5       	in	r24, 0x25	; 37
    38d2:	88 60       	ori	r24, 0x08	; 8
    38d4:	85 bd       	out	0x25, r24	; 37
	
	return o_success;
}
    38d6:	81 e0       	ldi	r24, 0x01	; 1
    38d8:	08 95       	ret

000038da <micTimer0ForceOutputCompareA>:

//set the FOC0A: Force Output Compare A
Boolean micTimer0ForceOutputCompareA( ETimer0ForceCompare mode ) 
{
	Boolean o_success = TRUE;
	TCCR0B |= mode & ( ( 1U << FOC0B ) | ( 1U << FOC0A ) );
    38da:	95 b5       	in	r25, 0x25	; 37
    38dc:	80 7c       	andi	r24, 0xC0	; 192
    38de:	89 2b       	or	r24, r25
    38e0:	85 bd       	out	0x25, r24	; 37
	return o_success;
}
    38e2:	81 e0       	ldi	r24, 0x01	; 1
    38e4:	08 95       	ret

000038e6 <micTimer0SetClockDivision>:

//set the CS02:0: Clock Select
void micTimer0SetClockDivision( ETimer0Clock clock_div )
{
	TCCR0B = ( TCCR0B    & ~( ( 1U << CS02 ) | ( 1U << CS01 ) | ( 1U << CS00 ) ) ) |
    38e6:	95 b5       	in	r25, 0x25	; 37
    38e8:	87 70       	andi	r24, 0x07	; 7
    38ea:	98 7f       	andi	r25, 0xF8	; 248
    38ec:	89 2b       	or	r24, r25
    38ee:	85 bd       	out	0x25, r24	; 37
             ( clock_div &  ( ( 1U << CS02 ) | ( 1U << CS01 ) | ( 1U << CS00 ) ) );
}
    38f0:	08 95       	ret

000038f2 <micTimer0SetTimerCounterRegister>:

//set the TCNT0 Timer/Counter Register
void micTimer0SetTimerCounterRegister( Int8U tcnt0 )
{
	TCNT0 = tcnt0 ;
    38f2:	86 bd       	out	0x26, r24	; 38
}
    38f4:	08 95       	ret

000038f6 <micTimer0GetTimerCounterRegister>:

//Get the TCNT0 Timer/Counter Register
Int8U micTimer0GetTimerCounterRegister( void )
{
	return TCNT0 ;
    38f6:	86 b5       	in	r24, 0x26	; 38
}
    38f8:	08 95       	ret

000038fa <micTimer0SetOutputCompareRegisterA>:

//set the OCR0A Output Compare Register A
void micTimer0SetOutputCompareRegisterA( Int8U ocr0a )
{
	OCR0A = ocr0a ;
    38fa:	87 bd       	out	0x27, r24	; 39
}
    38fc:	08 95       	ret

000038fe <micTimer0GetOutputCompareRegisterA>:

//Get the OCR0A Output Compare Register A
Int8U micTimer0GetOutputCompareRegisterA( void )
{
	return OCR0A ;
    38fe:	87 b5       	in	r24, 0x27	; 39
}
    3900:	08 95       	ret

00003902 <micTimer0SetOutputCompareRegisterB>:

//set the OCR0A Output Compare Register B
void micTimer0SetOutputCompareRegisterB( Int8U ocr0b )
{
	OCR0B = ocr0b ;
    3902:	88 bd       	out	0x28, r24	; 40
}
    3904:	08 95       	ret

00003906 <micTimer0GetOutputCompareRegisterB>:

//Get the OCR0A Output Compare Register B
Int8U micTimer0GetOutputCompareRegisterB( void )
{
	return OCR0B ;
    3906:	88 b5       	in	r24, 0x28	; 40
}
    3908:	08 95       	ret

0000390a <micTimer0SetTimerCounterInterrupt>:

//set the TIMSK0 Timer/Counter Interrupt Mask Register
void micTimer0SetTimerCounterInterrupt( ETimer0Interrupts it )
{
	TIMSK0 |= ( it & ( ( 1U << OCIE0B ) | ( 1U << OCIE0A ) | ( 1U << TOIE0 ) ) );
    390a:	ee e6       	ldi	r30, 0x6E	; 110
    390c:	f0 e0       	ldi	r31, 0x00	; 0
    390e:	90 81       	ld	r25, Z
    3910:	87 70       	andi	r24, 0x07	; 7
    3912:	89 2b       	or	r24, r25
    3914:	80 83       	st	Z, r24
}
    3916:	08 95       	ret

00003918 <micTimer0ClearTimerCounterInterrupt>:

//Clear the TIMSK0 Timer/Counter Interrupt Unmask Register
void micTimer0ClearTimerCounterInterrupt( ETimer0Interrupts it )
{
	TIMSK0 &= ~ ( it & ( ( 1U << OCIE0B ) | ( 1U << OCIE0A ) | ( 1U << TOIE0 ) ) );
    3918:	ee e6       	ldi	r30, 0x6E	; 110
    391a:	f0 e0       	ldi	r31, 0x00	; 0
    391c:	90 81       	ld	r25, Z
    391e:	87 70       	andi	r24, 0x07	; 7
    3920:	80 95       	com	r24
    3922:	89 23       	and	r24, r25
    3924:	80 83       	st	Z, r24
}
    3926:	08 95       	ret

00003928 <micTimer0ClearTimerCounterInterruptFlagRegister>:

//Clear the TIFR0 Timer/Counter 0 Interrupt Flag Register
void micTimer0ClearTimerCounterInterruptFlagRegister( ETimer0Flags flag )
{
	TIMSK0 &= ~ ( flag & ( ( 1U << OCF0B ) | ( 1U << OCF0A ) | ( 1U << TOV0 ) ) );
    3928:	ee e6       	ldi	r30, 0x6E	; 110
    392a:	f0 e0       	ldi	r31, 0x00	; 0
    392c:	90 81       	ld	r25, Z
    392e:	87 70       	andi	r24, 0x07	; 7
    3930:	80 95       	com	r24
    3932:	89 23       	and	r24, r25
    3934:	80 83       	st	Z, r24
    3936:	08 95       	ret

00003938 <micUsart0SetIODataRegister>:

//set the UDRn  USART I/O Data Register 0
Boolean micUsart0SetIODataRegister( Int8U udr0 ) 
{
	Boolean o_success = TRUE;
	UDR0 = udr0;
    3938:	80 93 c6 00 	sts	0x00C6, r24
	return o_success;
}
    393c:	81 e0       	ldi	r24, 0x01	; 1
    393e:	08 95       	ret

00003940 <micUsart1SetIODataRegister>:
//set the UDRn  USART I/O Data Register 1
Boolean micUsart1SetIODataRegister( Int8U udr1 ) 
{
	Boolean o_success = TRUE;
	UDR1 = udr1;
    3940:	80 93 ce 00 	sts	0x00CE, r24
	return o_success;
}
    3944:	81 e0       	ldi	r24, 0x01	; 1
    3946:	08 95       	ret

00003948 <micUsart0GetIODataRegister>:

//Get the UDRn  USART I/O Data Register 0
Int8U micUsart0GetIODataRegister( void ) 
{
	return UDR0 ;
    3948:	80 91 c6 00 	lds	r24, 0x00C6
}
    394c:	08 95       	ret

0000394e <micUsart1GetIODataRegister>:
//Get the UDRn  USART I/O Data Register 1
Int8U micUsart1GetIODataRegister( void ) 
{
	return UDR1 ;
    394e:	80 91 ce 00 	lds	r24, 0x00CE
}
    3952:	08 95       	ret

00003954 <micUsart0GetRegisterEmpty>:

//Get the UDREn: USART Data Register Empty
Boolean micUsart0GetRegisterEmpty( void )
{
  return ( UCSR0A & (1U << UDRE0 ) );
    3954:	80 91 c0 00 	lds	r24, 0x00C0
}
    3958:	80 72       	andi	r24, 0x20	; 32
    395a:	08 95       	ret

0000395c <micUsart1GetRegisterEmpty>:
//Get the UDREn: USART Data Register Empty
Boolean micUsart1GetRegisterEmpty( void )
{
  return ( UCSR1A & (1U << UDRE1 ) );
    395c:	80 91 c8 00 	lds	r24, 0x00C8
}
    3960:	80 72       	andi	r24, 0x20	; 32
    3962:	08 95       	ret

00003964 <micUsart0GetError>:

//Get the Error bits -> Framing, Data Overrun and Parity
EUsartError micUsart0GetError( void )
{ 
  return ( UCSR0A & ( ( 1U << FE0 ) | ( 1U << DOR0 ) | ( 1U << UPE0 ) ) );
    3964:	80 91 c0 00 	lds	r24, 0x00C0
}
    3968:	8c 71       	andi	r24, 0x1C	; 28
    396a:	08 95       	ret

0000396c <micUsart1GetError>:
//Get the Error bits -> Framing, Data Overrun and Parity
EUsartError micUsart1GetError( void )
{ 
  return ( UCSR1A & ( ( 1U << FE1 ) | ( 1U << DOR1 ) | ( 1U << UPE1 ) ) );
    396c:	80 91 c8 00 	lds	r24, 0x00C8
}
    3970:	8c 71       	andi	r24, 0x1C	; 28
    3972:	08 95       	ret

00003974 <micUsart0SetSpeedMode>:

//Set the U2Xn: Double the USART Transmission Speed
void micUsart0SetSpeedMode( EUsartSpeedMode mode )
{
	if( mode == E_USART_SPEED_NORMAL )
    3974:	88 23       	and	r24, r24
    3976:	31 f0       	breq	.+12     	; 0x3984 <micUsart0SetSpeedMode+0x10>
	{
		UCSR0A &= ~mode;
	}
	else
	{
		UCSR0A |= mode;
    3978:	90 91 c0 00 	lds	r25, 0x00C0
    397c:	98 2b       	or	r25, r24
    397e:	90 93 c0 00 	sts	0x00C0, r25
    3982:	08 95       	ret
//Set the U2Xn: Double the USART Transmission Speed
void micUsart0SetSpeedMode( EUsartSpeedMode mode )
{
	if( mode == E_USART_SPEED_NORMAL )
	{
		UCSR0A &= ~mode;
    3984:	80 91 c0 00 	lds	r24, 0x00C0
    3988:	80 93 c0 00 	sts	0x00C0, r24
    398c:	08 95       	ret

0000398e <micUsart1SetSpeedMode>:
	}		
}
//Set the U2Xn: Double the USART Transmission Speed
void micUsart1SetSpeedMode( EUsartSpeedMode mode )
{
	if( mode == E_USART_SPEED_NORMAL )
    398e:	88 23       	and	r24, r24
    3990:	31 f0       	breq	.+12     	; 0x399e <micUsart1SetSpeedMode+0x10>
	{
		UCSR1A &= ~mode;
	}
	else
	{
		UCSR1A |= mode;
    3992:	90 91 c8 00 	lds	r25, 0x00C8
    3996:	98 2b       	or	r25, r24
    3998:	90 93 c8 00 	sts	0x00C8, r25
    399c:	08 95       	ret
//Set the U2Xn: Double the USART Transmission Speed
void micUsart1SetSpeedMode( EUsartSpeedMode mode )
{
	if( mode == E_USART_SPEED_NORMAL )
	{
		UCSR1A &= ~mode;
    399e:	80 91 c8 00 	lds	r24, 0x00C8
    39a2:	80 93 c8 00 	sts	0x00C8, r24
    39a6:	08 95       	ret

000039a8 <micUsart0GetSpeedMode>:
}

//Get the U2Xn: Double the USART Transmission Speed
EUsartSpeedMode micUsart0GetSpeedMode( void )
{
	return ( UCSR0A & ( 1U << U2X0 ) );	
    39a8:	80 91 c0 00 	lds	r24, 0x00C0
}
    39ac:	82 70       	andi	r24, 0x02	; 2
    39ae:	08 95       	ret

000039b0 <micUsart1GetSpeedMode>:
//Get the U2Xn: Double the USART Transmission Speed
EUsartSpeedMode micUsart1GetSpeedMode( void )
{
	return ( UCSR1A & ( 1U << U2X1 ) );	
    39b0:	80 91 c8 00 	lds	r24, 0x00C8
}
    39b4:	82 70       	andi	r24, 0x02	; 2
    39b6:	08 95       	ret

000039b8 <micUsart0SetMultiProcessorMode>:

//Set the MPCMn: Multi-processor Communication Mode
Boolean micUsart0SetMultiProcessorMode( void )
{
	Boolean o_success = TRUE;
	UCSR0A = UCSR0A | ( 1U << MPCM0);
    39b8:	e0 ec       	ldi	r30, 0xC0	; 192
    39ba:	f0 e0       	ldi	r31, 0x00	; 0
    39bc:	80 81       	ld	r24, Z
    39be:	81 60       	ori	r24, 0x01	; 1
    39c0:	80 83       	st	Z, r24
	return o_success;
}
    39c2:	81 e0       	ldi	r24, 0x01	; 1
    39c4:	08 95       	ret

000039c6 <micUsart1SetMultiProcessorMode>:
//Set the MPCMn: Multi-processor Communication Mode
Boolean micUsart1SetMultiProcessorMode( void )
{
	Boolean o_success = TRUE;
	UCSR1A = UCSR1A | ( 1U << MPCM1);
    39c6:	e8 ec       	ldi	r30, 0xC8	; 200
    39c8:	f0 e0       	ldi	r31, 0x00	; 0
    39ca:	80 81       	ld	r24, Z
    39cc:	81 60       	ori	r24, 0x01	; 1
    39ce:	80 83       	st	Z, r24
	return o_success;
}
    39d0:	81 e0       	ldi	r24, 0x01	; 1
    39d2:	08 95       	ret

000039d4 <micUsart0GetMultiProcessorMode>:

//Get the MPCMn: Multi-processor Communication Mode
Boolean micUsart0GetMultiProcessorMode( void )
{
	return ( UCSR0A & ( 1U << MPCM0 ) );
    39d4:	80 91 c0 00 	lds	r24, 0x00C0
}
    39d8:	81 70       	andi	r24, 0x01	; 1
    39da:	08 95       	ret

000039dc <micUsart1GetMultiProcessorMode>:
//Get the MPCMn: Multi-processor Communication Mode
Boolean micUsart1GetMultiProcessorMode( void )
{
	return ( UCSR1A & ( 1U << MPCM1 ) );
    39dc:	80 91 c8 00 	lds	r24, 0x00C8
}
    39e0:	81 70       	andi	r24, 0x01	; 1
    39e2:	08 95       	ret

000039e4 <micUsart0GetReceiptCompleted>:

//Get the RXCn: USART Receive Complete
Boolean micUsart0GetReceiptCompleted(void)
{
  return ( UCSR0A & ( 1U << RXC0 ) );
    39e4:	80 91 c0 00 	lds	r24, 0x00C0
}
    39e8:	80 78       	andi	r24, 0x80	; 128
    39ea:	08 95       	ret

000039ec <micUsart1GetReceiptCompleted>:
//Get the RXCn: USART Receive Complete
Boolean micUsart1GetReceiptCompleted(void)
{
  return ( UCSR1A & ( 1U << RXC1 ) );
    39ec:	80 91 c8 00 	lds	r24, 0x00C8
}
    39f0:	80 78       	andi	r24, 0x80	; 128
    39f2:	08 95       	ret

000039f4 <micUsart0SetTransmitCompleted>:

//Set the TXCn: USART Transmit Complete
Boolean micUsart0SetTransmitCompleted(void)
{
	Boolean o_success = TRUE;
	UCSR0A |= ( 1U << TXC0);
    39f4:	e0 ec       	ldi	r30, 0xC0	; 192
    39f6:	f0 e0       	ldi	r31, 0x00	; 0
    39f8:	80 81       	ld	r24, Z
    39fa:	80 64       	ori	r24, 0x40	; 64
    39fc:	80 83       	st	Z, r24
	return o_success;
}
    39fe:	81 e0       	ldi	r24, 0x01	; 1
    3a00:	08 95       	ret

00003a02 <micUsart1SetTransmitCompleted>:
//Set the TXCn: USART Transmit Complete
Boolean micUsart1SetTransmitCompleted(void)
{
	Boolean o_success = TRUE;
	UCSR1A |= ( 1U << TXC1);
    3a02:	e8 ec       	ldi	r30, 0xC8	; 200
    3a04:	f0 e0       	ldi	r31, 0x00	; 0
    3a06:	80 81       	ld	r24, Z
    3a08:	80 64       	ori	r24, 0x40	; 64
    3a0a:	80 83       	st	Z, r24
	return o_success;
}
    3a0c:	81 e0       	ldi	r24, 0x01	; 1
    3a0e:	08 95       	ret

00003a10 <micUsart0GetTransmitCompleted>:

//Get the TXCn: USART Transmit Complete
Boolean micUsart0GetTransmitCompleted(void)
{
  return ( UCSR0A & ( 1U << TXC0 ) );
    3a10:	80 91 c0 00 	lds	r24, 0x00C0
}
    3a14:	80 74       	andi	r24, 0x40	; 64
    3a16:	08 95       	ret

00003a18 <micUsart1GetTransmitCompleted>:
//Get the TXCn: USART Transmit Complete
Boolean micUsart1GetTransmitCompleted(void)
{
  return ( UCSR1A & ( 1U << TXC1 ) );
    3a18:	80 91 c8 00 	lds	r24, 0x00C8
}
    3a1c:	80 74       	andi	r24, 0x40	; 64
    3a1e:	08 95       	ret

00003a20 <micUsart0GetDataRegisterEmpty>:

//Get the UDREn: USART Data Register Empty
Boolean micUsart0GetDataRegisterEmpty(void)
{
  return ( UCSR0A & ( 1U << UDRE0 ) );
    3a20:	80 91 c0 00 	lds	r24, 0x00C0
}
    3a24:	80 72       	andi	r24, 0x20	; 32
    3a26:	08 95       	ret

00003a28 <micUsart1GetDataRegisterEmpty>:
//Get the UDREn: USART Data Register Empty
Boolean micUsart1GetDataRegisterEmpty(void)
{
  return ( UCSR1A & ( 1U << UDRE1 ) );
    3a28:	80 91 c8 00 	lds	r24, 0x00C8
}
    3a2c:	80 72       	andi	r24, 0x20	; 32
    3a2e:	08 95       	ret

00003a30 <micUsart0SetTransmitterEnable>:

//Set the TXENn: Transmitter Enable 0
Boolean micUsart0SetTransmitterEnable( void )
{
	Boolean o_success = TRUE;
	UCSR0B = UCSR0B | ( 1U << TXEN0);
    3a30:	e1 ec       	ldi	r30, 0xC1	; 193
    3a32:	f0 e0       	ldi	r31, 0x00	; 0
    3a34:	80 81       	ld	r24, Z
    3a36:	88 60       	ori	r24, 0x08	; 8
    3a38:	80 83       	st	Z, r24
	return o_success;
}
    3a3a:	81 e0       	ldi	r24, 0x01	; 1
    3a3c:	08 95       	ret

00003a3e <micUsart1SetTransmitterEnable>:
//Set the TXENn: Transmitter Enable 0
Boolean micUsart1SetTransmitterEnable( void )
{
	Boolean o_success = TRUE;
	UCSR1B = UCSR1B | ( 1U << TXEN1);
    3a3e:	e9 ec       	ldi	r30, 0xC9	; 201
    3a40:	f0 e0       	ldi	r31, 0x00	; 0
    3a42:	80 81       	ld	r24, Z
    3a44:	88 60       	ori	r24, 0x08	; 8
    3a46:	80 83       	st	Z, r24
	return o_success;
}
    3a48:	81 e0       	ldi	r24, 0x01	; 1
    3a4a:	08 95       	ret

00003a4c <micUsart0SetTransmitterDisable>:

//Set the TXENn: Transmitter Disable 0
Boolean micUsart0SetTransmitterDisable( void )
{
	Boolean o_success = TRUE;
	UCSR0B &= ~( 1U << TXEN0 );
    3a4c:	e1 ec       	ldi	r30, 0xC1	; 193
    3a4e:	f0 e0       	ldi	r31, 0x00	; 0
    3a50:	80 81       	ld	r24, Z
    3a52:	87 7f       	andi	r24, 0xF7	; 247
    3a54:	80 83       	st	Z, r24
	return o_success;
}
    3a56:	81 e0       	ldi	r24, 0x01	; 1
    3a58:	08 95       	ret

00003a5a <micUsart1SetTransmitterDisable>:
//Set the TXENn: Transmitter Disable 0
Boolean micUsart1SetTransmitterDisable( void )
{
	Boolean o_success = TRUE;
	UCSR1B &= ~( 1U << TXEN1 );
    3a5a:	e9 ec       	ldi	r30, 0xC9	; 201
    3a5c:	f0 e0       	ldi	r31, 0x00	; 0
    3a5e:	80 81       	ld	r24, Z
    3a60:	87 7f       	andi	r24, 0xF7	; 247
    3a62:	80 83       	st	Z, r24
	return o_success;
}
    3a64:	81 e0       	ldi	r24, 0x01	; 1
    3a66:	08 95       	ret

00003a68 <micUsart0SetReceiverEnable>:

//Set the RXENn: Receiver Enable 0
Boolean micUsart0SetReceiverEnable( void )
{
	Boolean o_success = TRUE;
	UCSR0B = UCSR0B | ( 1U << RXEN0);
    3a68:	e1 ec       	ldi	r30, 0xC1	; 193
    3a6a:	f0 e0       	ldi	r31, 0x00	; 0
    3a6c:	80 81       	ld	r24, Z
    3a6e:	80 61       	ori	r24, 0x10	; 16
    3a70:	80 83       	st	Z, r24
	return o_success;
}
    3a72:	81 e0       	ldi	r24, 0x01	; 1
    3a74:	08 95       	ret

00003a76 <micUsart1SetReceiverEnable>:
//Set the RXENn: Receiver Enable 0
Boolean micUsart1SetReceiverEnable( void )
{
	Boolean o_success = TRUE;
	UCSR1B = UCSR1B | ( 1U << RXEN1);
    3a76:	e9 ec       	ldi	r30, 0xC9	; 201
    3a78:	f0 e0       	ldi	r31, 0x00	; 0
    3a7a:	80 81       	ld	r24, Z
    3a7c:	80 61       	ori	r24, 0x10	; 16
    3a7e:	80 83       	st	Z, r24
	return o_success;
}
    3a80:	81 e0       	ldi	r24, 0x01	; 1
    3a82:	08 95       	ret

00003a84 <micUsart0SetReceiverDisable>:

//Set the RXENn: Receiver Disable 0
Boolean micUsart0SetReceiverDisable( void )
{
	Boolean o_success = TRUE;
	UCSR0B &= ~( 1U << RXEN0 );
    3a84:	e1 ec       	ldi	r30, 0xC1	; 193
    3a86:	f0 e0       	ldi	r31, 0x00	; 0
    3a88:	80 81       	ld	r24, Z
    3a8a:	8f 7e       	andi	r24, 0xEF	; 239
    3a8c:	80 83       	st	Z, r24
	return o_success;
}
    3a8e:	81 e0       	ldi	r24, 0x01	; 1
    3a90:	08 95       	ret

00003a92 <micUsart1SetReceiverDisable>:
//Set the RXENn: Receiver Disable 0
Boolean micUsart1SetReceiverDisable( void )
{
	Boolean o_success = TRUE;
	UCSR1B &= ~( 1U << RXEN1 );
    3a92:	e9 ec       	ldi	r30, 0xC9	; 201
    3a94:	f0 e0       	ldi	r31, 0x00	; 0
    3a96:	80 81       	ld	r24, Z
    3a98:	8f 7e       	andi	r24, 0xEF	; 239
    3a9a:	80 83       	st	Z, r24
	return o_success;
}
    3a9c:	81 e0       	ldi	r24, 0x01	; 1
    3a9e:	08 95       	ret

00003aa0 <micUsart0SetDataSize>:

//Set the UCSZn : Character Size n
Boolean micUsart0SetDataSize( EUsartDataSize data_size )
{
	Boolean o_success = TRUE;
	UCSR0B = ( UCSR0B & ~(1U << UCSZ02)) |
    3aa0:	e1 ec       	ldi	r30, 0xC1	; 193
    3aa2:	f0 e0       	ldi	r31, 0x00	; 0
    3aa4:	20 81       	ld	r18, Z
    3aa6:	98 2f       	mov	r25, r24
    3aa8:	94 70       	andi	r25, 0x04	; 4
    3aaa:	2b 7f       	andi	r18, 0xFB	; 251
    3aac:	92 2b       	or	r25, r18
    3aae:	90 83       	st	Z, r25
			( data_size & (1U << UCSZ02));

	UCSR0C = ( UCSR0C & ~((1U << UCSZ01) | (1U << UCSZ00))) |
    3ab0:	e2 ec       	ldi	r30, 0xC2	; 194
    3ab2:	f0 e0       	ldi	r31, 0x00	; 0
    3ab4:	90 81       	ld	r25, Z
			( (Int8U)(data_size << 1U) & ((1U << UCSZ01) | (1U << UCSZ00)));
    3ab6:	88 0f       	add	r24, r24
{
	Boolean o_success = TRUE;
	UCSR0B = ( UCSR0B & ~(1U << UCSZ02)) |
			( data_size & (1U << UCSZ02));

	UCSR0C = ( UCSR0C & ~((1U << UCSZ01) | (1U << UCSZ00))) |
    3ab8:	86 70       	andi	r24, 0x06	; 6
    3aba:	99 7f       	andi	r25, 0xF9	; 249
    3abc:	89 2b       	or	r24, r25
    3abe:	80 83       	st	Z, r24
			( (Int8U)(data_size << 1U) & ((1U << UCSZ01) | (1U << UCSZ00)));
	return o_success;
}
    3ac0:	81 e0       	ldi	r24, 0x01	; 1
    3ac2:	08 95       	ret

00003ac4 <micUsart1SetDataSize>:
//Set the UCSZn : Character Size n
Boolean micUsart1SetDataSize( EUsartDataSize data_size )
{
	Boolean o_success = TRUE;
	UCSR1B = ( UCSR1B & ~(1U << UCSZ12)) |
    3ac4:	e9 ec       	ldi	r30, 0xC9	; 201
    3ac6:	f0 e0       	ldi	r31, 0x00	; 0
    3ac8:	20 81       	ld	r18, Z
    3aca:	98 2f       	mov	r25, r24
    3acc:	94 70       	andi	r25, 0x04	; 4
    3ace:	2b 7f       	andi	r18, 0xFB	; 251
    3ad0:	92 2b       	or	r25, r18
    3ad2:	90 83       	st	Z, r25
			( data_size & (1U << UCSZ12));

	UCSR1C = ( UCSR1C & ~((1U << UCSZ11) | (1U << UCSZ10))) |
    3ad4:	ea ec       	ldi	r30, 0xCA	; 202
    3ad6:	f0 e0       	ldi	r31, 0x00	; 0
    3ad8:	90 81       	ld	r25, Z
			( (Int8U)(data_size << 1U) & ((1U << UCSZ11) | (1U << UCSZ10)));
    3ada:	88 0f       	add	r24, r24
{
	Boolean o_success = TRUE;
	UCSR1B = ( UCSR1B & ~(1U << UCSZ12)) |
			( data_size & (1U << UCSZ12));

	UCSR1C = ( UCSR1C & ~((1U << UCSZ11) | (1U << UCSZ10))) |
    3adc:	86 70       	andi	r24, 0x06	; 6
    3ade:	99 7f       	andi	r25, 0xF9	; 249
    3ae0:	89 2b       	or	r24, r25
    3ae2:	80 83       	st	Z, r24
			( (Int8U)(data_size << 1U) & ((1U << UCSZ11) | (1U << UCSZ10)));
	return o_success;
}
    3ae4:	81 e0       	ldi	r24, 0x01	; 1
    3ae6:	08 95       	ret

00003ae8 <micUsart0SetParityMode>:

//Set the UPMn1:0: Parity Mode
Boolean micUsart0SetParityMode( EUsartParityMode parity_mode )
{
	Boolean o_success = TRUE;
	UCSR0C = (UCSR0C & ~((1U << UPM01) | (1U << UPM00))) |
    3ae8:	e2 ec       	ldi	r30, 0xC2	; 194
    3aea:	f0 e0       	ldi	r31, 0x00	; 0
    3aec:	90 81       	ld	r25, Z
    3aee:	80 73       	andi	r24, 0x30	; 48
    3af0:	9f 7c       	andi	r25, 0xCF	; 207
    3af2:	89 2b       	or	r24, r25
    3af4:	80 83       	st	Z, r24
			(parity_mode & ((1U << UPM01) | (1U << UPM00)));
	return o_success;
}
    3af6:	81 e0       	ldi	r24, 0x01	; 1
    3af8:	08 95       	ret

00003afa <micUsart1SetParityMode>:
//Set the UPMn1:0: Parity Mode
Boolean micUsart1SetParityMode( EUsartParityMode parity_mode )
{
	Boolean o_success = TRUE;
	UCSR1C = (UCSR1C & ~((1U << UPM11) | (1U << UPM10))) |
    3afa:	ea ec       	ldi	r30, 0xCA	; 202
    3afc:	f0 e0       	ldi	r31, 0x00	; 0
    3afe:	90 81       	ld	r25, Z
    3b00:	80 73       	andi	r24, 0x30	; 48
    3b02:	9f 7c       	andi	r25, 0xCF	; 207
    3b04:	89 2b       	or	r24, r25
    3b06:	80 83       	st	Z, r24
			(parity_mode & ((1U << UPM11) | (1U << UPM10)));
	return o_success;
}
    3b08:	81 e0       	ldi	r24, 0x01	; 1
    3b0a:	08 95       	ret

00003b0c <micUsart0SetStopBits>:

//Set the USBSn: Stop Bit Select
Boolean micUsart0SetStopBits( EUsartStopBits stop_bits)
{
	Boolean o_success = TRUE;
	UCSR0C = (UCSR0C & ~(1U << USBS0)) |
    3b0c:	e2 ec       	ldi	r30, 0xC2	; 194
    3b0e:	f0 e0       	ldi	r31, 0x00	; 0
    3b10:	90 81       	ld	r25, Z
    3b12:	88 70       	andi	r24, 0x08	; 8
    3b14:	97 7f       	andi	r25, 0xF7	; 247
    3b16:	89 2b       	or	r24, r25
    3b18:	80 83       	st	Z, r24
			(stop_bits & (1U << USBS0));
	return o_success;
}
    3b1a:	81 e0       	ldi	r24, 0x01	; 1
    3b1c:	08 95       	ret

00003b1e <micUsart1SetStopBits>:
//Set the USBSn: Stop Bit Select
Boolean micUsart1SetStopBits( EUsartStopBits stop_bits)
{
	Boolean o_success = TRUE;
	UCSR1C = (UCSR1C & ~(1U << USBS1)) |
    3b1e:	ea ec       	ldi	r30, 0xCA	; 202
    3b20:	f0 e0       	ldi	r31, 0x00	; 0
    3b22:	90 81       	ld	r25, Z
    3b24:	88 70       	andi	r24, 0x08	; 8
    3b26:	97 7f       	andi	r25, 0xF7	; 247
    3b28:	89 2b       	or	r24, r25
    3b2a:	80 83       	st	Z, r24
			(stop_bits & (1U << USBS1));
	return o_success;
}
    3b2c:	81 e0       	ldi	r24, 0x01	; 1
    3b2e:	08 95       	ret

00003b30 <micUsart0SetRxInterrupt>:

//Set RXCIEn: RX Complete Interrupt Enable 0
Boolean micUsart0SetRxInterrupt( void )
{
	Boolean o_success = TRUE;
	UCSR0B |= (1U << RXCIE0);
    3b30:	e1 ec       	ldi	r30, 0xC1	; 193
    3b32:	f0 e0       	ldi	r31, 0x00	; 0
    3b34:	80 81       	ld	r24, Z
    3b36:	80 68       	ori	r24, 0x80	; 128
    3b38:	80 83       	st	Z, r24

	return o_success;
}
    3b3a:	81 e0       	ldi	r24, 0x01	; 1
    3b3c:	08 95       	ret

00003b3e <micUsart1SetRxInterrupt>:
//Set RXCIEn: RX Complete Interrupt Enable 0
Boolean micUsart1SetRxInterrupt( void )
{
	Boolean o_success = TRUE;
	UCSR1B |= (1U << RXCIE1);
    3b3e:	e9 ec       	ldi	r30, 0xC9	; 201
    3b40:	f0 e0       	ldi	r31, 0x00	; 0
    3b42:	80 81       	ld	r24, Z
    3b44:	80 68       	ori	r24, 0x80	; 128
    3b46:	80 83       	st	Z, r24

	return o_success;
}
    3b48:	81 e0       	ldi	r24, 0x01	; 1
    3b4a:	08 95       	ret

00003b4c <micUsart0ClearRxInterrupt>:

//Clear RXCIEn: RX Complete Interrupt Enable 0
Boolean micUsart0ClearRxInterrupt( void )
{
	Boolean o_success = TRUE;
	UCSR0B &= ~(1U << RXCIE0);
    3b4c:	e1 ec       	ldi	r30, 0xC1	; 193
    3b4e:	f0 e0       	ldi	r31, 0x00	; 0
    3b50:	80 81       	ld	r24, Z
    3b52:	8f 77       	andi	r24, 0x7F	; 127
    3b54:	80 83       	st	Z, r24

	return o_success;
}
    3b56:	81 e0       	ldi	r24, 0x01	; 1
    3b58:	08 95       	ret

00003b5a <micUsart1ClearRxInterrupt>:
//Clear RXCIEn: RX Complete Interrupt Enable 0
Boolean micUsart1ClearRxInterrupt( void )
{
	Boolean o_success = TRUE;
	UCSR1B &= ~(1U << RXCIE1);
    3b5a:	e9 ec       	ldi	r30, 0xC9	; 201
    3b5c:	f0 e0       	ldi	r31, 0x00	; 0
    3b5e:	80 81       	ld	r24, Z
    3b60:	8f 77       	andi	r24, 0x7F	; 127
    3b62:	80 83       	st	Z, r24

	return o_success;
}
    3b64:	81 e0       	ldi	r24, 0x01	; 1
    3b66:	08 95       	ret

00003b68 <micUsart0SetTxInterrupt>:

//Set TXCIEn: TX Complete Interrupt Enable 0
Boolean micUsart0SetTxInterrupt( void )
{
	Boolean o_success = TRUE;
	UCSR0B |= (1U << TXCIE0);
    3b68:	e1 ec       	ldi	r30, 0xC1	; 193
    3b6a:	f0 e0       	ldi	r31, 0x00	; 0
    3b6c:	80 81       	ld	r24, Z
    3b6e:	80 64       	ori	r24, 0x40	; 64
    3b70:	80 83       	st	Z, r24

	return o_success;
}
    3b72:	81 e0       	ldi	r24, 0x01	; 1
    3b74:	08 95       	ret

00003b76 <micUsart1SetTxInterrupt>:
//Set TXCIEn: TX Complete Interrupt Enable 0
Boolean micUsart1SetTxInterrupt( void )
{
	Boolean o_success = TRUE;
	UCSR1B |= (1U << TXCIE1);
    3b76:	e9 ec       	ldi	r30, 0xC9	; 201
    3b78:	f0 e0       	ldi	r31, 0x00	; 0
    3b7a:	80 81       	ld	r24, Z
    3b7c:	80 64       	ori	r24, 0x40	; 64
    3b7e:	80 83       	st	Z, r24

	return o_success;
}
    3b80:	81 e0       	ldi	r24, 0x01	; 1
    3b82:	08 95       	ret

00003b84 <micUsart0ClearTxInterrupt>:

//Clear TXCIEn: TX Complete Interrupt Enable 0
Boolean micUsart0ClearTxInterrupt( void )
{
	Boolean o_success = TRUE;
	UCSR0B &= ~(1U << TXCIE0);
    3b84:	e1 ec       	ldi	r30, 0xC1	; 193
    3b86:	f0 e0       	ldi	r31, 0x00	; 0
    3b88:	80 81       	ld	r24, Z
    3b8a:	8f 7b       	andi	r24, 0xBF	; 191
    3b8c:	80 83       	st	Z, r24

	return o_success;
}
    3b8e:	81 e0       	ldi	r24, 0x01	; 1
    3b90:	08 95       	ret

00003b92 <micUsart1ClearTxInterrupt>:
//Clear TXCIEn: TX Complete Interrupt Enable 0
Boolean micUsart1ClearTxInterrupt( void )
{
	Boolean o_success = TRUE;
	UCSR1B &= ~(1U << TXCIE1);
    3b92:	e9 ec       	ldi	r30, 0xC9	; 201
    3b94:	f0 e0       	ldi	r31, 0x00	; 0
    3b96:	80 81       	ld	r24, Z
    3b98:	8f 7b       	andi	r24, 0xBF	; 191
    3b9a:	80 83       	st	Z, r24

	return o_success;
}
    3b9c:	81 e0       	ldi	r24, 0x01	; 1
    3b9e:	08 95       	ret

00003ba0 <micUsart0SetDataRegisterEmptyInterrupt>:

//Set UDRIEn: USART Data Register Empty Interrupt Enable n
Boolean micUsart0SetDataRegisterEmptyInterrupt( void )
{
	Boolean o_success = TRUE;
	UCSR0B |= (1U << UDRIE0);
    3ba0:	e1 ec       	ldi	r30, 0xC1	; 193
    3ba2:	f0 e0       	ldi	r31, 0x00	; 0
    3ba4:	80 81       	ld	r24, Z
    3ba6:	80 62       	ori	r24, 0x20	; 32
    3ba8:	80 83       	st	Z, r24

	return o_success;
}
    3baa:	81 e0       	ldi	r24, 0x01	; 1
    3bac:	08 95       	ret

00003bae <micUsart1SetDataRegisterEmptyInterrupt>:
//Set UDRIEn: USART Data Register Empty Interrupt Enable n
Boolean micUsart1SetDataRegisterEmptyInterrupt( void )
{
	Boolean o_success = TRUE;
	UCSR1B |= (1U << UDRIE1);
    3bae:	e9 ec       	ldi	r30, 0xC9	; 201
    3bb0:	f0 e0       	ldi	r31, 0x00	; 0
    3bb2:	80 81       	ld	r24, Z
    3bb4:	80 62       	ori	r24, 0x20	; 32
    3bb6:	80 83       	st	Z, r24

	return o_success;
}
    3bb8:	81 e0       	ldi	r24, 0x01	; 1
    3bba:	08 95       	ret

00003bbc <micUsart0ClearDataRegisterEmptyInterrupt>:

//Clear UDRIEn: USART Data Register Empty Interrupt Enable n
Boolean micUsart0ClearDataRegisterEmptyInterrupt( void )
{
	Boolean o_success = TRUE;
	UCSR0B &= ~(1U << UDRIE0);
    3bbc:	e1 ec       	ldi	r30, 0xC1	; 193
    3bbe:	f0 e0       	ldi	r31, 0x00	; 0
    3bc0:	80 81       	ld	r24, Z
    3bc2:	8f 7d       	andi	r24, 0xDF	; 223
    3bc4:	80 83       	st	Z, r24

	return o_success;
}
    3bc6:	81 e0       	ldi	r24, 0x01	; 1
    3bc8:	08 95       	ret

00003bca <micUsart1ClearDataRegisterEmptyInterrupt>:
//Clear UDRIEn: USART Data Register Empty Interrupt Enable n
Boolean micUsart1ClearDataRegisterEmptyInterrupt( void )
{
	Boolean o_success = TRUE;
	UCSR1B &= ~(1U << UDRIE1);
    3bca:	e9 ec       	ldi	r30, 0xC9	; 201
    3bcc:	f0 e0       	ldi	r31, 0x00	; 0
    3bce:	80 81       	ld	r24, Z
    3bd0:	8f 7d       	andi	r24, 0xDF	; 223
    3bd2:	80 83       	st	Z, r24

	return o_success;
}
    3bd4:	81 e0       	ldi	r24, 0x01	; 1
    3bd6:	08 95       	ret

00003bd8 <micUsart0SetSynchronousClockPolarity>:

//Set UCPOLn: Clock Polarity
Boolean micUsart0SetSynchronousClockPolarity( EUsartClockPolarity polarity )
{
	Boolean o_success = TRUE;
	UCSR0C = (UCSR0C & ~(1U << UCPOL0)) | (polarity & (1U << UCPOL0));
    3bd8:	e2 ec       	ldi	r30, 0xC2	; 194
    3bda:	f0 e0       	ldi	r31, 0x00	; 0
    3bdc:	90 81       	ld	r25, Z
    3bde:	81 70       	andi	r24, 0x01	; 1
    3be0:	9e 7f       	andi	r25, 0xFE	; 254
    3be2:	89 2b       	or	r24, r25
    3be4:	80 83       	st	Z, r24
  
	return o_success;
}
    3be6:	81 e0       	ldi	r24, 0x01	; 1
    3be8:	08 95       	ret

00003bea <micUsart1SetSynchronousClockPolarity>:
//Set UCPOLn: Clock Polarity
Boolean micUsart1SetSynchronousClockPolarity( EUsartClockPolarity polarity )
{
	Boolean o_success = TRUE;
	UCSR1C = (UCSR1C & ~(1U << UCPOL1)) | (polarity & (1U << UCPOL1));
    3bea:	ea ec       	ldi	r30, 0xCA	; 202
    3bec:	f0 e0       	ldi	r31, 0x00	; 0
    3bee:	90 81       	ld	r25, Z
    3bf0:	81 70       	andi	r24, 0x01	; 1
    3bf2:	9e 7f       	andi	r25, 0xFE	; 254
    3bf4:	89 2b       	or	r24, r25
    3bf6:	80 83       	st	Z, r24
  
	return o_success;
}
    3bf8:	81 e0       	ldi	r24, 0x01	; 1
    3bfa:	08 95       	ret

00003bfc <micUsart0SetBaudRateAsynchronousNormalMode>:
}

//Get the MPCMn: Multi-processor Communication Mode
Boolean micUsart0GetMultiProcessorMode( void )
{
	return ( UCSR0A & ( 1U << MPCM0 ) );
    3bfc:	20 91 c0 00 	lds	r18, 0x00C0
//Set UBRRn: Baud Rate Asynchronous Normal mode (U2Xn = 0)
Boolean micUsart0SetBaudRateAsynchronousNormalMode( EUsartBaudRate baudrate )
{
	Boolean o_success = FALSE;
	
	if( FALSE == micUsart0GetMultiProcessorMode( ) )
    3c00:	20 fd       	sbrc	r18, 0
    3c02:	26 c0       	rjmp	.+76     	; 0x3c50 <micUsart0SetBaudRateAsynchronousNormalMode+0x54>
}

//Get the U2Xn: Double the USART Transmission Speed
EUsartSpeedMode micUsart0GetSpeedMode( void )
{
	return ( UCSR0A & ( 1U << U2X0 ) );	
    3c04:	20 91 c0 00 	lds	r18, 0x00C0
{
	Boolean o_success = FALSE;
	
	if( FALSE == micUsart0GetMultiProcessorMode( ) )
	{
		if( E_USART_SPEED_NORMAL == micUsart0GetSpeedMode( ) )
    3c08:	21 fd       	sbrc	r18, 1
    3c0a:	20 c0       	rjmp	.+64     	; 0x3c4c <micUsart0SetBaudRateAsynchronousNormalMode+0x50>
		{
			UBRR0 = ( CONF_FOSC_HZ / ( 16 * baudrate ) ) - 1 ; 
    3c0c:	9b 01       	movw	r18, r22
    3c0e:	ac 01       	movw	r20, r24
    3c10:	22 0f       	add	r18, r18
    3c12:	33 1f       	adc	r19, r19
    3c14:	44 1f       	adc	r20, r20
    3c16:	55 1f       	adc	r21, r21
    3c18:	22 0f       	add	r18, r18
    3c1a:	33 1f       	adc	r19, r19
    3c1c:	44 1f       	adc	r20, r20
    3c1e:	55 1f       	adc	r21, r21
    3c20:	22 0f       	add	r18, r18
    3c22:	33 1f       	adc	r19, r19
    3c24:	44 1f       	adc	r20, r20
    3c26:	55 1f       	adc	r21, r21
    3c28:	22 0f       	add	r18, r18
    3c2a:	33 1f       	adc	r19, r19
    3c2c:	44 1f       	adc	r20, r20
    3c2e:	55 1f       	adc	r21, r21
    3c30:	60 e0       	ldi	r22, 0x00	; 0
    3c32:	74 e2       	ldi	r23, 0x24	; 36
    3c34:	84 ef       	ldi	r24, 0xF4	; 244
    3c36:	90 e0       	ldi	r25, 0x00	; 0
    3c38:	0e 94 19 1f 	call	0x3e32	; 0x3e32 <__udivmodsi4>
    3c3c:	21 50       	subi	r18, 0x01	; 1
    3c3e:	30 40       	sbci	r19, 0x00	; 0
    3c40:	30 93 c5 00 	sts	0x00C5, r19
    3c44:	20 93 c4 00 	sts	0x00C4, r18
			o_success = TRUE;
    3c48:	81 e0       	ldi	r24, 0x01	; 1
    3c4a:	08 95       	ret
}

//Set UBRRn: Baud Rate Asynchronous Normal mode (U2Xn = 0)
Boolean micUsart0SetBaudRateAsynchronousNormalMode( EUsartBaudRate baudrate )
{
	Boolean o_success = FALSE;
    3c4c:	80 e0       	ldi	r24, 0x00	; 0
			o_success = TRUE;
		}
	}	
	
	return o_success;
}	
    3c4e:	08 95       	ret
}

//Set UBRRn: Baud Rate Asynchronous Normal mode (U2Xn = 0)
Boolean micUsart0SetBaudRateAsynchronousNormalMode( EUsartBaudRate baudrate )
{
	Boolean o_success = FALSE;
    3c50:	80 e0       	ldi	r24, 0x00	; 0
    3c52:	08 95       	ret

00003c54 <micUsart1SetBaudRateAsynchronousNormalMode>:
	return ( UCSR0A & ( 1U << MPCM0 ) );
}
//Get the MPCMn: Multi-processor Communication Mode
Boolean micUsart1GetMultiProcessorMode( void )
{
	return ( UCSR1A & ( 1U << MPCM1 ) );
    3c54:	20 91 c8 00 	lds	r18, 0x00C8
//Set UBRRn: Baud Rate Asynchronous Normal mode (U2Xn = 0)
Boolean micUsart1SetBaudRateAsynchronousNormalMode( EUsartBaudRate baudrate )
{
	Boolean o_success = FALSE;
	
	if( FALSE == micUsart1GetMultiProcessorMode( ) )
    3c58:	20 fd       	sbrc	r18, 0
    3c5a:	26 c0       	rjmp	.+76     	; 0x3ca8 <micUsart1SetBaudRateAsynchronousNormalMode+0x54>
	return ( UCSR0A & ( 1U << U2X0 ) );	
}
//Get the U2Xn: Double the USART Transmission Speed
EUsartSpeedMode micUsart1GetSpeedMode( void )
{
	return ( UCSR1A & ( 1U << U2X1 ) );	
    3c5c:	20 91 c8 00 	lds	r18, 0x00C8
{
	Boolean o_success = FALSE;
	
	if( FALSE == micUsart1GetMultiProcessorMode( ) )
	{
		if( E_USART_SPEED_NORMAL == micUsart1GetSpeedMode( ) )
    3c60:	21 fd       	sbrc	r18, 1
    3c62:	20 c0       	rjmp	.+64     	; 0x3ca4 <micUsart1SetBaudRateAsynchronousNormalMode+0x50>
		{
			UBRR1 = ( CONF_FOSC_HZ / ( 16 * baudrate ) ) - 1 ; 
    3c64:	9b 01       	movw	r18, r22
    3c66:	ac 01       	movw	r20, r24
    3c68:	22 0f       	add	r18, r18
    3c6a:	33 1f       	adc	r19, r19
    3c6c:	44 1f       	adc	r20, r20
    3c6e:	55 1f       	adc	r21, r21
    3c70:	22 0f       	add	r18, r18
    3c72:	33 1f       	adc	r19, r19
    3c74:	44 1f       	adc	r20, r20
    3c76:	55 1f       	adc	r21, r21
    3c78:	22 0f       	add	r18, r18
    3c7a:	33 1f       	adc	r19, r19
    3c7c:	44 1f       	adc	r20, r20
    3c7e:	55 1f       	adc	r21, r21
    3c80:	22 0f       	add	r18, r18
    3c82:	33 1f       	adc	r19, r19
    3c84:	44 1f       	adc	r20, r20
    3c86:	55 1f       	adc	r21, r21
    3c88:	60 e0       	ldi	r22, 0x00	; 0
    3c8a:	74 e2       	ldi	r23, 0x24	; 36
    3c8c:	84 ef       	ldi	r24, 0xF4	; 244
    3c8e:	90 e0       	ldi	r25, 0x00	; 0
    3c90:	0e 94 19 1f 	call	0x3e32	; 0x3e32 <__udivmodsi4>
    3c94:	21 50       	subi	r18, 0x01	; 1
    3c96:	30 40       	sbci	r19, 0x00	; 0
    3c98:	30 93 cd 00 	sts	0x00CD, r19
    3c9c:	20 93 cc 00 	sts	0x00CC, r18
			o_success = TRUE;
    3ca0:	81 e0       	ldi	r24, 0x01	; 1
    3ca2:	08 95       	ret
	return o_success;
}	
//Set UBRRn: Baud Rate Asynchronous Normal mode (U2Xn = 0)
Boolean micUsart1SetBaudRateAsynchronousNormalMode( EUsartBaudRate baudrate )
{
	Boolean o_success = FALSE;
    3ca4:	80 e0       	ldi	r24, 0x00	; 0
			o_success = TRUE;
		}
	}	
	
	return o_success;
}	
    3ca6:	08 95       	ret
	return o_success;
}	
//Set UBRRn: Baud Rate Asynchronous Normal mode (U2Xn = 0)
Boolean micUsart1SetBaudRateAsynchronousNormalMode( EUsartBaudRate baudrate )
{
	Boolean o_success = FALSE;
    3ca8:	80 e0       	ldi	r24, 0x00	; 0
    3caa:	08 95       	ret

00003cac <micUsart0SetBaudRateAsynchronousDoubleSpeedMode>:
}

//Get the MPCMn: Multi-processor Communication Mode
Boolean micUsart0GetMultiProcessorMode( void )
{
	return ( UCSR0A & ( 1U << MPCM0 ) );
    3cac:	20 91 c0 00 	lds	r18, 0x00C0
//Set UBRRn: Baud Rate Asynchronous Double Speed mode (U2Xn = 1)
Boolean micUsart0SetBaudRateAsynchronousDoubleSpeedMode( EUsartBaudRate baudrate )
{	
	Boolean o_success = FALSE;
	
	if( FALSE == micUsart0GetMultiProcessorMode( ) )
    3cb0:	20 fd       	sbrc	r18, 0
    3cb2:	22 c0       	rjmp	.+68     	; 0x3cf8 <micUsart0SetBaudRateAsynchronousDoubleSpeedMode+0x4c>
}

//Get the U2Xn: Double the USART Transmission Speed
EUsartSpeedMode micUsart0GetSpeedMode( void )
{
	return ( UCSR0A & ( 1U << U2X0 ) );	
    3cb4:	20 91 c0 00 	lds	r18, 0x00C0
{	
	Boolean o_success = FALSE;
	
	if( FALSE == micUsart0GetMultiProcessorMode( ) )
	{
		if( E_USART_SPEED_HIGH_SPEED == micUsart0GetSpeedMode( ) )
    3cb8:	21 fd       	sbrc	r18, 1
    3cba:	02 c0       	rjmp	.+4      	; 0x3cc0 <micUsart0SetBaudRateAsynchronousDoubleSpeedMode+0x14>
}	

//Set UBRRn: Baud Rate Asynchronous Double Speed mode (U2Xn = 1)
Boolean micUsart0SetBaudRateAsynchronousDoubleSpeedMode( EUsartBaudRate baudrate )
{	
	Boolean o_success = FALSE;
    3cbc:	80 e0       	ldi	r24, 0x00	; 0
		
		}	
	}
	
	return o_success;
}
    3cbe:	08 95       	ret
	
	if( FALSE == micUsart0GetMultiProcessorMode( ) )
	{
		if( E_USART_SPEED_HIGH_SPEED == micUsart0GetSpeedMode( ) )
		{
			UBRR0 = ( CONF_FOSC_HZ / ( 8 * baudrate ) ) - 1 ; 
    3cc0:	9b 01       	movw	r18, r22
    3cc2:	ac 01       	movw	r20, r24
    3cc4:	22 0f       	add	r18, r18
    3cc6:	33 1f       	adc	r19, r19
    3cc8:	44 1f       	adc	r20, r20
    3cca:	55 1f       	adc	r21, r21
    3ccc:	22 0f       	add	r18, r18
    3cce:	33 1f       	adc	r19, r19
    3cd0:	44 1f       	adc	r20, r20
    3cd2:	55 1f       	adc	r21, r21
    3cd4:	22 0f       	add	r18, r18
    3cd6:	33 1f       	adc	r19, r19
    3cd8:	44 1f       	adc	r20, r20
    3cda:	55 1f       	adc	r21, r21
    3cdc:	60 e0       	ldi	r22, 0x00	; 0
    3cde:	74 e2       	ldi	r23, 0x24	; 36
    3ce0:	84 ef       	ldi	r24, 0xF4	; 244
    3ce2:	90 e0       	ldi	r25, 0x00	; 0
    3ce4:	0e 94 19 1f 	call	0x3e32	; 0x3e32 <__udivmodsi4>
    3ce8:	21 50       	subi	r18, 0x01	; 1
    3cea:	30 40       	sbci	r19, 0x00	; 0
    3cec:	30 93 c5 00 	sts	0x00C5, r19
    3cf0:	20 93 c4 00 	sts	0x00C4, r18
			o_success = TRUE;
    3cf4:	81 e0       	ldi	r24, 0x01	; 1
    3cf6:	08 95       	ret
}	

//Set UBRRn: Baud Rate Asynchronous Double Speed mode (U2Xn = 1)
Boolean micUsart0SetBaudRateAsynchronousDoubleSpeedMode( EUsartBaudRate baudrate )
{	
	Boolean o_success = FALSE;
    3cf8:	80 e0       	ldi	r24, 0x00	; 0
    3cfa:	08 95       	ret

00003cfc <micUsart1SetBaudRateAsynchronousDoubleSpeedMode>:
	return ( UCSR0A & ( 1U << MPCM0 ) );
}
//Get the MPCMn: Multi-processor Communication Mode
Boolean micUsart1GetMultiProcessorMode( void )
{
	return ( UCSR1A & ( 1U << MPCM1 ) );
    3cfc:	20 91 c8 00 	lds	r18, 0x00C8
//Set UBRRn: Baud Rate Asynchronous Double Speed mode (U2Xn = 1)
Boolean micUsart1SetBaudRateAsynchronousDoubleSpeedMode( EUsartBaudRate baudrate )
{	
	Boolean o_success = FALSE;
	
	if( FALSE == micUsart1GetMultiProcessorMode( ) )
    3d00:	20 fd       	sbrc	r18, 0
    3d02:	22 c0       	rjmp	.+68     	; 0x3d48 <micUsart1SetBaudRateAsynchronousDoubleSpeedMode+0x4c>
	return ( UCSR0A & ( 1U << U2X0 ) );	
}
//Get the U2Xn: Double the USART Transmission Speed
EUsartSpeedMode micUsart1GetSpeedMode( void )
{
	return ( UCSR1A & ( 1U << U2X1 ) );	
    3d04:	20 91 c8 00 	lds	r18, 0x00C8
{	
	Boolean o_success = FALSE;
	
	if( FALSE == micUsart1GetMultiProcessorMode( ) )
	{
		if( E_USART_SPEED_HIGH_SPEED == micUsart1GetSpeedMode( ) )
    3d08:	21 fd       	sbrc	r18, 1
    3d0a:	02 c0       	rjmp	.+4      	; 0x3d10 <micUsart1SetBaudRateAsynchronousDoubleSpeedMode+0x14>
	return o_success;
}
//Set UBRRn: Baud Rate Asynchronous Double Speed mode (U2Xn = 1)
Boolean micUsart1SetBaudRateAsynchronousDoubleSpeedMode( EUsartBaudRate baudrate )
{	
	Boolean o_success = FALSE;
    3d0c:	80 e0       	ldi	r24, 0x00	; 0
		
		}	
	}
	
	return o_success;
}
    3d0e:	08 95       	ret
	
	if( FALSE == micUsart1GetMultiProcessorMode( ) )
	{
		if( E_USART_SPEED_HIGH_SPEED == micUsart1GetSpeedMode( ) )
		{
			UBRR1 = ( CONF_FOSC_HZ / ( 8 * baudrate ) ) - 1 ; 
    3d10:	9b 01       	movw	r18, r22
    3d12:	ac 01       	movw	r20, r24
    3d14:	22 0f       	add	r18, r18
    3d16:	33 1f       	adc	r19, r19
    3d18:	44 1f       	adc	r20, r20
    3d1a:	55 1f       	adc	r21, r21
    3d1c:	22 0f       	add	r18, r18
    3d1e:	33 1f       	adc	r19, r19
    3d20:	44 1f       	adc	r20, r20
    3d22:	55 1f       	adc	r21, r21
    3d24:	22 0f       	add	r18, r18
    3d26:	33 1f       	adc	r19, r19
    3d28:	44 1f       	adc	r20, r20
    3d2a:	55 1f       	adc	r21, r21
    3d2c:	60 e0       	ldi	r22, 0x00	; 0
    3d2e:	74 e2       	ldi	r23, 0x24	; 36
    3d30:	84 ef       	ldi	r24, 0xF4	; 244
    3d32:	90 e0       	ldi	r25, 0x00	; 0
    3d34:	0e 94 19 1f 	call	0x3e32	; 0x3e32 <__udivmodsi4>
    3d38:	21 50       	subi	r18, 0x01	; 1
    3d3a:	30 40       	sbci	r19, 0x00	; 0
    3d3c:	30 93 cd 00 	sts	0x00CD, r19
    3d40:	20 93 cc 00 	sts	0x00CC, r18
			o_success = TRUE;
    3d44:	81 e0       	ldi	r24, 0x01	; 1
    3d46:	08 95       	ret
	return o_success;
}
//Set UBRRn: Baud Rate Asynchronous Double Speed mode (U2Xn = 1)
Boolean micUsart1SetBaudRateAsynchronousDoubleSpeedMode( EUsartBaudRate baudrate )
{	
	Boolean o_success = FALSE;
    3d48:	80 e0       	ldi	r24, 0x00	; 0
    3d4a:	08 95       	ret

00003d4c <micUsart0SetBaudRateSynchronousMasterMode>:
}

//Get the MPCMn: Multi-processor Communication Mode
Boolean micUsart0GetMultiProcessorMode( void )
{
	return ( UCSR0A & ( 1U << MPCM0 ) );
    3d4c:	20 91 c0 00 	lds	r18, 0x00C0
//Set UBRRn: Baud Rate Synchronous Master mode
Boolean micUsart0SetBaudRateSynchronousMasterMode( EUsartBaudRate baudrate )
{	
	Boolean o_success = FALSE;
	
	if( TRUE == micUsart0GetMultiProcessorMode( ) )
    3d50:	20 fd       	sbrc	r18, 0
    3d52:	02 c0       	rjmp	.+4      	; 0x3d58 <micUsart0SetBaudRateSynchronousMasterMode+0xc>
}

//Set UBRRn: Baud Rate Synchronous Master mode
Boolean micUsart0SetBaudRateSynchronousMasterMode( EUsartBaudRate baudrate )
{	
	Boolean o_success = FALSE;
    3d54:	80 e0       	ldi	r24, 0x00	; 0
		UBRR0 = ( CONF_FOSC_HZ / ( 2 * baudrate ) ) - 1 ; 
		o_success = TRUE;
	}
	
	return o_success;
}
    3d56:	08 95       	ret
{	
	Boolean o_success = FALSE;
	
	if( TRUE == micUsart0GetMultiProcessorMode( ) )
	{
		UBRR0 = ( CONF_FOSC_HZ / ( 2 * baudrate ) ) - 1 ; 
    3d58:	9b 01       	movw	r18, r22
    3d5a:	ac 01       	movw	r20, r24
    3d5c:	22 0f       	add	r18, r18
    3d5e:	33 1f       	adc	r19, r19
    3d60:	44 1f       	adc	r20, r20
    3d62:	55 1f       	adc	r21, r21
    3d64:	60 e0       	ldi	r22, 0x00	; 0
    3d66:	74 e2       	ldi	r23, 0x24	; 36
    3d68:	84 ef       	ldi	r24, 0xF4	; 244
    3d6a:	90 e0       	ldi	r25, 0x00	; 0
    3d6c:	0e 94 19 1f 	call	0x3e32	; 0x3e32 <__udivmodsi4>
    3d70:	21 50       	subi	r18, 0x01	; 1
    3d72:	30 40       	sbci	r19, 0x00	; 0
    3d74:	30 93 c5 00 	sts	0x00C5, r19
    3d78:	20 93 c4 00 	sts	0x00C4, r18
		o_success = TRUE;
    3d7c:	81 e0       	ldi	r24, 0x01	; 1
    3d7e:	08 95       	ret

00003d80 <micUsart1SetBaudRateSynchronousMasterMode>:
	return ( UCSR0A & ( 1U << MPCM0 ) );
}
//Get the MPCMn: Multi-processor Communication Mode
Boolean micUsart1GetMultiProcessorMode( void )
{
	return ( UCSR1A & ( 1U << MPCM1 ) );
    3d80:	20 91 c8 00 	lds	r18, 0x00C8
//Set UBRRn: Baud Rate Synchronous Master mode
Boolean micUsart1SetBaudRateSynchronousMasterMode( EUsartBaudRate baudrate )
{	
	Boolean o_success = FALSE;
	
	if( TRUE == micUsart1GetMultiProcessorMode( ) )
    3d84:	20 fd       	sbrc	r18, 0
    3d86:	02 c0       	rjmp	.+4      	; 0x3d8c <micUsart1SetBaudRateSynchronousMasterMode+0xc>
	return o_success;
}
//Set UBRRn: Baud Rate Synchronous Master mode
Boolean micUsart1SetBaudRateSynchronousMasterMode( EUsartBaudRate baudrate )
{	
	Boolean o_success = FALSE;
    3d88:	80 e0       	ldi	r24, 0x00	; 0
		UBRR1 = ( CONF_FOSC_HZ / ( 2 * baudrate ) ) - 1 ; 
		o_success = TRUE;
	}
	
	return o_success;
    3d8a:	08 95       	ret
{	
	Boolean o_success = FALSE;
	
	if( TRUE == micUsart1GetMultiProcessorMode( ) )
	{
		UBRR1 = ( CONF_FOSC_HZ / ( 2 * baudrate ) ) - 1 ; 
    3d8c:	9b 01       	movw	r18, r22
    3d8e:	ac 01       	movw	r20, r24
    3d90:	22 0f       	add	r18, r18
    3d92:	33 1f       	adc	r19, r19
    3d94:	44 1f       	adc	r20, r20
    3d96:	55 1f       	adc	r21, r21
    3d98:	60 e0       	ldi	r22, 0x00	; 0
    3d9a:	74 e2       	ldi	r23, 0x24	; 36
    3d9c:	84 ef       	ldi	r24, 0xF4	; 244
    3d9e:	90 e0       	ldi	r25, 0x00	; 0
    3da0:	0e 94 19 1f 	call	0x3e32	; 0x3e32 <__udivmodsi4>
    3da4:	21 50       	subi	r18, 0x01	; 1
    3da6:	30 40       	sbci	r19, 0x00	; 0
    3da8:	30 93 cd 00 	sts	0x00CD, r19
    3dac:	20 93 cc 00 	sts	0x00CC, r18
		o_success = TRUE;
    3db0:	81 e0       	ldi	r24, 0x01	; 1
    3db2:	08 95       	ret

00003db4 <__mulsi3>:
    3db4:	62 9f       	mul	r22, r18
    3db6:	d0 01       	movw	r26, r0
    3db8:	73 9f       	mul	r23, r19
    3dba:	f0 01       	movw	r30, r0
    3dbc:	82 9f       	mul	r24, r18
    3dbe:	e0 0d       	add	r30, r0
    3dc0:	f1 1d       	adc	r31, r1
    3dc2:	64 9f       	mul	r22, r20
    3dc4:	e0 0d       	add	r30, r0
    3dc6:	f1 1d       	adc	r31, r1
    3dc8:	92 9f       	mul	r25, r18
    3dca:	f0 0d       	add	r31, r0
    3dcc:	83 9f       	mul	r24, r19
    3dce:	f0 0d       	add	r31, r0
    3dd0:	74 9f       	mul	r23, r20
    3dd2:	f0 0d       	add	r31, r0
    3dd4:	65 9f       	mul	r22, r21
    3dd6:	f0 0d       	add	r31, r0
    3dd8:	99 27       	eor	r25, r25
    3dda:	72 9f       	mul	r23, r18
    3ddc:	b0 0d       	add	r27, r0
    3dde:	e1 1d       	adc	r30, r1
    3de0:	f9 1f       	adc	r31, r25
    3de2:	63 9f       	mul	r22, r19
    3de4:	b0 0d       	add	r27, r0
    3de6:	e1 1d       	adc	r30, r1
    3de8:	f9 1f       	adc	r31, r25
    3dea:	bd 01       	movw	r22, r26
    3dec:	cf 01       	movw	r24, r30
    3dee:	11 24       	eor	r1, r1
    3df0:	08 95       	ret

00003df2 <__udivmodqi4>:
    3df2:	99 1b       	sub	r25, r25
    3df4:	79 e0       	ldi	r23, 0x09	; 9
    3df6:	04 c0       	rjmp	.+8      	; 0x3e00 <__udivmodqi4_ep>

00003df8 <__udivmodqi4_loop>:
    3df8:	99 1f       	adc	r25, r25
    3dfa:	96 17       	cp	r25, r22
    3dfc:	08 f0       	brcs	.+2      	; 0x3e00 <__udivmodqi4_ep>
    3dfe:	96 1b       	sub	r25, r22

00003e00 <__udivmodqi4_ep>:
    3e00:	88 1f       	adc	r24, r24
    3e02:	7a 95       	dec	r23
    3e04:	c9 f7       	brne	.-14     	; 0x3df8 <__udivmodqi4_loop>
    3e06:	80 95       	com	r24
    3e08:	08 95       	ret

00003e0a <__udivmodhi4>:
    3e0a:	aa 1b       	sub	r26, r26
    3e0c:	bb 1b       	sub	r27, r27
    3e0e:	51 e1       	ldi	r21, 0x11	; 17
    3e10:	07 c0       	rjmp	.+14     	; 0x3e20 <__udivmodhi4_ep>

00003e12 <__udivmodhi4_loop>:
    3e12:	aa 1f       	adc	r26, r26
    3e14:	bb 1f       	adc	r27, r27
    3e16:	a6 17       	cp	r26, r22
    3e18:	b7 07       	cpc	r27, r23
    3e1a:	10 f0       	brcs	.+4      	; 0x3e20 <__udivmodhi4_ep>
    3e1c:	a6 1b       	sub	r26, r22
    3e1e:	b7 0b       	sbc	r27, r23

00003e20 <__udivmodhi4_ep>:
    3e20:	88 1f       	adc	r24, r24
    3e22:	99 1f       	adc	r25, r25
    3e24:	5a 95       	dec	r21
    3e26:	a9 f7       	brne	.-22     	; 0x3e12 <__udivmodhi4_loop>
    3e28:	80 95       	com	r24
    3e2a:	90 95       	com	r25
    3e2c:	bc 01       	movw	r22, r24
    3e2e:	cd 01       	movw	r24, r26
    3e30:	08 95       	ret

00003e32 <__udivmodsi4>:
    3e32:	a1 e2       	ldi	r26, 0x21	; 33
    3e34:	1a 2e       	mov	r1, r26
    3e36:	aa 1b       	sub	r26, r26
    3e38:	bb 1b       	sub	r27, r27
    3e3a:	fd 01       	movw	r30, r26
    3e3c:	0d c0       	rjmp	.+26     	; 0x3e58 <__udivmodsi4_ep>

00003e3e <__udivmodsi4_loop>:
    3e3e:	aa 1f       	adc	r26, r26
    3e40:	bb 1f       	adc	r27, r27
    3e42:	ee 1f       	adc	r30, r30
    3e44:	ff 1f       	adc	r31, r31
    3e46:	a2 17       	cp	r26, r18
    3e48:	b3 07       	cpc	r27, r19
    3e4a:	e4 07       	cpc	r30, r20
    3e4c:	f5 07       	cpc	r31, r21
    3e4e:	20 f0       	brcs	.+8      	; 0x3e58 <__udivmodsi4_ep>
    3e50:	a2 1b       	sub	r26, r18
    3e52:	b3 0b       	sbc	r27, r19
    3e54:	e4 0b       	sbc	r30, r20
    3e56:	f5 0b       	sbc	r31, r21

00003e58 <__udivmodsi4_ep>:
    3e58:	66 1f       	adc	r22, r22
    3e5a:	77 1f       	adc	r23, r23
    3e5c:	88 1f       	adc	r24, r24
    3e5e:	99 1f       	adc	r25, r25
    3e60:	1a 94       	dec	r1
    3e62:	69 f7       	brne	.-38     	; 0x3e3e <__udivmodsi4_loop>
    3e64:	60 95       	com	r22
    3e66:	70 95       	com	r23
    3e68:	80 95       	com	r24
    3e6a:	90 95       	com	r25
    3e6c:	9b 01       	movw	r18, r22
    3e6e:	ac 01       	movw	r20, r24
    3e70:	bd 01       	movw	r22, r26
    3e72:	cf 01       	movw	r24, r30
    3e74:	08 95       	ret

00003e76 <_exit>:
    3e76:	f8 94       	cli

00003e78 <__stop_program>:
    3e78:	ff cf       	rjmp	.-2      	; 0x3e78 <__stop_program>
