Archive member included because of file (symbol)

c:/program files (x86)/atmel/atmel studio 6.0/extensions/atmel/avrgcc/3.4.1.95/avrtoolchain/bin/../lib/gcc/avr/4.6.2/avr51\libgcc.a(_mulsi3.o)
                              Drv/drv_timer.o (__mulsi3)
c:/program files (x86)/atmel/atmel studio 6.0/extensions/atmel/avrgcc/3.4.1.95/avrtoolchain/bin/../lib/gcc/avr/4.6.2/avr51\libgcc.a(_udivmodhi4.o)
                              Ctrl/ctrl_ultrason.o (__udivmodhi4)
c:/program files (x86)/atmel/atmel studio 6.0/extensions/atmel/avrgcc/3.4.1.95/avrtoolchain/bin/../lib/gcc/avr/4.6.2/avr51\libgcc.a(_udivmodsi4.o)
                              Drv/drv_timer.o (__udivmodsi4)
c:/program files (x86)/atmel/atmel studio 6.0/extensions/atmel/avrgcc/3.4.1.95/avrtoolchain/bin/../lib/gcc/avr/4.6.2/avr51\libgcc.a(_exit.o)
                              c:/program files (x86)/atmel/atmel studio 6.0/extensions/atmel/avrgcc/3.4.1.95/avrtoolchain/bin/../lib/gcc/avr/4.6.2/../../../../avr/lib/avr51/crtm1284p.o (exit)
c:/program files (x86)/atmel/atmel studio 6.0/extensions/atmel/avrgcc/3.4.1.95/avrtoolchain/bin/../lib/gcc/avr/4.6.2/avr51\libgcc.a(_copy_data.o)
                              Ctrl/ctrl_eye.o (__do_copy_data)
c:/program files (x86)/atmel/atmel studio 6.0/extensions/atmel/avrgcc/3.4.1.95/avrtoolchain/bin/../lib/gcc/avr/4.6.2/avr51\libgcc.a(_clear_bss.o)
                              Ctrl/ctrl_eye.o (__do_clear_bss)

Allocating common symbols
Common symbol       size              file

MesLeds             0x28              Drv/drv_led.o
MesTimer            0x9               Drv/drv_timer.o
i_message_from_body
                    0x32              Ctrl/ctrl_uart_protocole.o
in_message_0        0x32              Drv/drv_uart.o
buff_uart_0         0x32              Drv/drv_uart.o

Memory Configuration

Name             Origin             Length             Attributes
text             0x00000000         0x00020000         xr
data             0x00800100         0x0000ff00         rw !x
eeprom           0x00810000         0x00010000         rw !x
fuse             0x00820000         0x00000400         rw !x
lock             0x00830000         0x00000400         rw !x
signature        0x00840000         0x00000400         rw !x
*default*        0x00000000         0xffffffff

Linker script and memory map

Address of section .data set to 0x800100
LOAD c:/program files (x86)/atmel/atmel studio 6.0/extensions/atmel/avrgcc/3.4.1.95/avrtoolchain/bin/../lib/gcc/avr/4.6.2/../../../../avr/lib/avr51/crtm1284p.o
LOAD Ctrl/ctrl_eye.o
LOAD Ctrl/ctrl_light.o
LOAD Ctrl/ctrl_uart_protocole.o
LOAD Ctrl/ctrl_ultrason.o
LOAD Drv/drv_adc.o
LOAD Drv/drv_event.o
LOAD Drv/drv_i2c_ultrason.o
LOAD Drv/drv_interrupt.o
LOAD Drv/drv_led.o
LOAD Drv/drv_timer.o
LOAD Drv/drv_twi.o
LOAD Drv/drv_uart.o
LOAD Mic/mic_adc.o
LOAD Mic/mic_interrupt.o
LOAD Mic/mic_io_ports.o
LOAD Mic/mic_power_management.o
LOAD Mic/mic_system_clock.o
LOAD Mic/mic_system_control.o
LOAD Mic/mic_timer_0.o
LOAD Mic/mic_usart.o
LOAD Robot_head.o
LOAD Tools/tools_string.o
START GROUP
LOAD c:/program files (x86)/atmel/atmel studio 6.0/extensions/atmel/avrgcc/3.4.1.95/avrtoolchain/bin/../lib/gcc/avr/4.6.2/../../../../avr/lib/avr51\libm.a
END GROUP
                0x00004000                __stack = 0x4000
LOAD c:/program files (x86)/atmel/atmel studio 6.0/extensions/atmel/avrgcc/3.4.1.95/avrtoolchain/bin/../lib/gcc/avr/4.6.2/avr51\libgcc.a
LOAD c:/program files (x86)/atmel/atmel studio 6.0/extensions/atmel/avrgcc/3.4.1.95/avrtoolchain/bin/../lib/gcc/avr/4.6.2/../../../../avr/lib/avr51\libc.a
LOAD c:/program files (x86)/atmel/atmel studio 6.0/extensions/atmel/avrgcc/3.4.1.95/avrtoolchain/bin/../lib/gcc/avr/4.6.2/avr51\libgcc.a

.hash
 *(.hash)

.dynsym
 *(.dynsym)

.dynstr
 *(.dynstr)

.gnu.version
 *(.gnu.version)

.gnu.version_d
 *(.gnu.version_d)

.gnu.version_r
 *(.gnu.version_r)

.rel.init
 *(.rel.init)

.rela.init
 *(.rela.init)

.rel.text
 *(.rel.text)
 *(.rel.text.*)
 *(.rel.gnu.linkonce.t*)

.rela.text
 *(.rela.text)
 *(.rela.text.*)
 *(.rela.gnu.linkonce.t*)

.rel.fini
 *(.rel.fini)

.rela.fini
 *(.rela.fini)

.rel.rodata
 *(.rel.rodata)
 *(.rel.rodata.*)
 *(.rel.gnu.linkonce.r*)

.rela.rodata
 *(.rela.rodata)
 *(.rela.rodata.*)
 *(.rela.gnu.linkonce.r*)

.rel.data
 *(.rel.data)
 *(.rel.data.*)
 *(.rel.gnu.linkonce.d*)

.rela.data
 *(.rela.data)
 *(.rela.data.*)
 *(.rela.gnu.linkonce.d*)

.rel.ctors
 *(.rel.ctors)

.rela.ctors
 *(.rela.ctors)

.rel.dtors
 *(.rel.dtors)

.rela.dtors
 *(.rela.dtors)

.rel.got
 *(.rel.got)

.rela.got
 *(.rela.got)

.rel.bss
 *(.rel.bss)

.rela.bss
 *(.rela.bss)

.rel.plt
 *(.rel.plt)

.rela.plt
 *(.rela.plt)

.text           0x00000000     0x26ca
 *(.vectors)
 .vectors       0x00000000       0x8c c:/program files (x86)/atmel/atmel studio 6.0/extensions/atmel/avrgcc/3.4.1.95/avrtoolchain/bin/../lib/gcc/avr/4.6.2/../../../../avr/lib/avr51/crtm1284p.o
                0x00000000                __vector_default
                0x00000000                __vectors
 *(.vectors)
 *(.progmem.gcc*)
 *(.progmem*)
                0x0000008c                . = ALIGN (0x2)
                0x0000008c                __trampolines_start = .
 *(.trampolines)
 .trampolines   0x0000008c        0x0 linker stubs
 *(.trampolines*)
                0x0000008c                __trampolines_end = .
 *(.jumptables)
 *(.jumptables*)
 *(.lowtext)
 *(.lowtext*)
                0x0000008c                __ctors_start = .
 *(.ctors)
                0x0000008c                __ctors_end = .
                0x0000008c                __dtors_start = .
 *(.dtors)
                0x0000008c                __dtors_end = .
 SORT(*)(.ctors)
 SORT(*)(.dtors)
 *(.init0)
 .init0         0x0000008c        0x0 c:/program files (x86)/atmel/atmel studio 6.0/extensions/atmel/avrgcc/3.4.1.95/avrtoolchain/bin/../lib/gcc/avr/4.6.2/../../../../avr/lib/avr51/crtm1284p.o
                0x0000008c                __init
 *(.init0)
 *(.init1)
 *(.init1)
 *(.init2)
 .init2         0x0000008c        0xc c:/program files (x86)/atmel/atmel studio 6.0/extensions/atmel/avrgcc/3.4.1.95/avrtoolchain/bin/../lib/gcc/avr/4.6.2/../../../../avr/lib/avr51/crtm1284p.o
 *(.init2)
 *(.init3)
 *(.init3)
 *(.init4)
 .init4         0x00000098       0x1c c:/program files (x86)/atmel/atmel studio 6.0/extensions/atmel/avrgcc/3.4.1.95/avrtoolchain/bin/../lib/gcc/avr/4.6.2/avr51\libgcc.a(_copy_data.o)
                0x00000098                __do_copy_data
 .init4         0x000000b4       0x10 c:/program files (x86)/atmel/atmel studio 6.0/extensions/atmel/avrgcc/3.4.1.95/avrtoolchain/bin/../lib/gcc/avr/4.6.2/avr51\libgcc.a(_clear_bss.o)
                0x000000b4                __do_clear_bss
 *(.init4)
 *(.init5)
 *(.init5)
 *(.init6)
 *(.init6)
 *(.init7)
 *(.init7)
 *(.init8)
 *(.init8)
 *(.init9)
 .init9         0x000000c4        0x8 c:/program files (x86)/atmel/atmel studio 6.0/extensions/atmel/avrgcc/3.4.1.95/avrtoolchain/bin/../lib/gcc/avr/4.6.2/../../../../avr/lib/avr51/crtm1284p.o
 *(.init9)
 *(.text)
 .text          0x000000cc        0x4 c:/program files (x86)/atmel/atmel studio 6.0/extensions/atmel/avrgcc/3.4.1.95/avrtoolchain/bin/../lib/gcc/avr/4.6.2/../../../../avr/lib/avr51/crtm1284p.o
                0x000000cc                __vector_22
                0x000000cc                __vector_28
                0x000000cc                __vector_1
                0x000000cc                __vector_32
                0x000000cc                __vector_34
                0x000000cc                __vector_24
                0x000000cc                __vector_12
                0x000000cc                __bad_interrupt
                0x000000cc                __vector_6
                0x000000cc                __vector_31
                0x000000cc                __vector_3
                0x000000cc                __vector_23
                0x000000cc                __vector_30
                0x000000cc                __vector_25
                0x000000cc                __vector_11
                0x000000cc                __vector_13
                0x000000cc                __vector_17
                0x000000cc                __vector_19
                0x000000cc                __vector_7
                0x000000cc                __vector_27
                0x000000cc                __vector_5
                0x000000cc                __vector_33
                0x000000cc                __vector_4
                0x000000cc                __vector_9
                0x000000cc                __vector_2
                0x000000cc                __vector_21
                0x000000cc                __vector_15
                0x000000cc                __vector_29
                0x000000cc                __vector_8
                0x000000cc                __vector_26
                0x000000cc                __vector_14
                0x000000cc                __vector_10
                0x000000cc                __vector_18
 .text          0x000000d0        0x0 Ctrl/ctrl_eye.o
 .text          0x000000d0        0x0 Ctrl/ctrl_light.o
 .text          0x000000d0        0x0 Ctrl/ctrl_uart_protocole.o
 .text          0x000000d0        0x0 Ctrl/ctrl_ultrason.o
 .text          0x000000d0        0x0 Drv/drv_adc.o
 .text          0x000000d0        0x0 Drv/drv_event.o
 .text          0x000000d0        0x0 Drv/drv_i2c_ultrason.o
 .text          0x000000d0        0x0 Drv/drv_interrupt.o
 .text          0x000000d0        0x0 Drv/drv_led.o
 .text          0x000000d0        0x0 Drv/drv_timer.o
 .text          0x000000d0        0x0 Drv/drv_twi.o
 .text          0x000000d0        0x0 Drv/drv_uart.o
 .text          0x000000d0        0x0 Mic/mic_adc.o
 .text          0x000000d0        0x0 Mic/mic_interrupt.o
 .text          0x000000d0        0x0 Mic/mic_io_ports.o
 .text          0x000000d0        0x0 Mic/mic_power_management.o
 .text          0x000000d0        0x0 Mic/mic_system_clock.o
 .text          0x000000d0        0x0 Mic/mic_system_control.o
 .text          0x000000d0        0x0 Mic/mic_timer_0.o
 .text          0x000000d0        0x0 Mic/mic_usart.o
 .text          0x000000d0        0x0 Robot_head.o
 .text          0x000000d0        0x0 Tools/tools_string.o
 .text          0x000000d0        0x0 c:/program files (x86)/atmel/atmel studio 6.0/extensions/atmel/avrgcc/3.4.1.95/avrtoolchain/bin/../lib/gcc/avr/4.6.2/avr51\libgcc.a(_mulsi3.o)
 .text          0x000000d0        0x0 c:/program files (x86)/atmel/atmel studio 6.0/extensions/atmel/avrgcc/3.4.1.95/avrtoolchain/bin/../lib/gcc/avr/4.6.2/avr51\libgcc.a(_udivmodhi4.o)
 .text          0x000000d0        0x0 c:/program files (x86)/atmel/atmel studio 6.0/extensions/atmel/avrgcc/3.4.1.95/avrtoolchain/bin/../lib/gcc/avr/4.6.2/avr51\libgcc.a(_udivmodsi4.o)
 .text          0x000000d0        0x0 c:/program files (x86)/atmel/atmel studio 6.0/extensions/atmel/avrgcc/3.4.1.95/avrtoolchain/bin/../lib/gcc/avr/4.6.2/avr51\libgcc.a(_exit.o)
 .text          0x000000d0        0x0 c:/program files (x86)/atmel/atmel studio 6.0/extensions/atmel/avrgcc/3.4.1.95/avrtoolchain/bin/../lib/gcc/avr/4.6.2/avr51\libgcc.a(_copy_data.o)
 .text          0x000000d0        0x0 c:/program files (x86)/atmel/atmel studio 6.0/extensions/atmel/avrgcc/3.4.1.95/avrtoolchain/bin/../lib/gcc/avr/4.6.2/avr51\libgcc.a(_clear_bss.o)
                0x000000d0                . = ALIGN (0x2)
 *(.text.*)
 .text.CtrlEye  0x000000d0        0x6 Ctrl/ctrl_eye.o
                0x000000d0                CtrlEye
 .text.CtrlEyeState
                0x000000d6       0x34 Ctrl/ctrl_eye.o
                0x000000d6                CtrlEyeState
 .text.CtrlEyeToggle
                0x0000010a       0x18 Ctrl/ctrl_eye.o
                0x0000010a                CtrlEyeToggle
 .text.CtrlEyeLeftBlink
                0x00000122       0x12 Ctrl/ctrl_eye.o
                0x00000122                CtrlEyeLeftBlink
 .text.CtrlEyeRightBlink
                0x00000134       0x12 Ctrl/ctrl_eye.o
                0x00000134                CtrlEyeRightBlink
 .text.CtrlEyeBlink
                0x00000146       0x28 Ctrl/ctrl_eye.o
                0x00000146                CtrlEyeBlink
 .text.CtrlEyeBlinkSpeed
                0x0000016e       0x30 Ctrl/ctrl_eye.o
                0x0000016e                CtrlEyeBlinkSpeed
 .text.CtrlEyeHeartBeat
                0x0000019e       0x2c Ctrl/ctrl_eye.o
                0x0000019e                CtrlEyeHeartBeat
 .text.CtrlEyeDispatcher
                0x000001ca       0x3a Ctrl/ctrl_eye.o
                0x000001ca                CtrlEyeDispatcher
 .text.CtrlLight
                0x00000204       0x2a Ctrl/ctrl_light.o
                0x00000204                CtrlLight
 .text.CtrlLightSendUartLightMesure
                0x0000022e       0x5c Ctrl/ctrl_light.o
                0x0000022e                CtrlLightSendUartLightMesure
 .text.CtrlLightDispatcher
                0x0000028a       0xaa Ctrl/ctrl_light.o
                0x0000028a                CtrlLightDispatcher
 .text.CtrlUartProtocole
                0x00000334        0x2 Ctrl/ctrl_uart_protocole.o
                0x00000334                CtrlUartProtocole
 .text.CtrlUartProtocoleDispatcher
                0x00000336       0xaa Ctrl/ctrl_uart_protocole.o
                0x00000336                CtrlUartProtocoleDispatcher
 .text.CtrlUartProtocoleValidAscii
                0x000003e0       0x98 Ctrl/ctrl_uart_protocole.o
                0x000003e0                CtrlUartProtocoleValidAscii
 .text.CtrlUltraSon
                0x00000478       0x12 Ctrl/ctrl_ultrason.o
                0x00000478                CtrlUltraSon
 .text.CtrlUltraSonReadMesure
                0x0000048a        0xa Ctrl/ctrl_ultrason.o
                0x0000048a                CtrlUltraSonReadMesure
 .text.CtrlUltraSendUartProximity
                0x00000494       0x4e Ctrl/ctrl_ultrason.o
                0x00000494                CtrlUltraSendUartProximity
 .text.CtrlUltraSonDispatcher
                0x000004e2      0x110 Ctrl/ctrl_ultrason.o
                0x000004e2                CtrlUltraSonDispatcher
 .text.DrvAdc   0x000005f2        0xe Drv/drv_adc.o
                0x000005f2                DrvAdc
 .text.DrvAdcReadChannel
                0x00000600       0x18 Drv/drv_adc.o
                0x00000600                DrvAdcReadChannel
 .text.DrvEvent
                0x00000618        0xa Drv/drv_event.o
                0x00000618                DrvEvent
 .text.DrvEventKillEvent
                0x00000622       0x1e Drv/drv_event.o
                0x00000622                DrvEventKillEvent
 .text.DrvEventGetEvent
                0x00000640        0xa Drv/drv_event.o
                0x00000640                DrvEventGetEvent
 .text.DrvEventTestEvent
                0x0000064a       0x12 Drv/drv_event.o
                0x0000064a                DrvEventTestEvent
 .text.DrvEventAddEvent
                0x0000065c       0x1e Drv/drv_event.o
                0x0000065c                DrvEventAddEvent
 .text.DrvI2CUltraSon
                0x0000067a        0x2 Drv/drv_i2c_ultrason.o
                0x0000067a                DrvI2CUltraSon
 .text.DrvI2CUltraSonTransmit
                0x0000067c       0xfe Drv/drv_i2c_ultrason.o
                0x0000067c                DrvI2CUltraSonTransmit
 .text.DrvI2CUltraSonRead
                0x0000077a      0x176 Drv/drv_i2c_ultrason.o
                0x0000077a                DrvI2CUltraSonRead
 .text.DrvInterruptClearAllInterrupts
                0x000008f0        0x4 Drv/drv_interrupt.o
                0x000008f0                DrvInterruptClearAllInterrupts
 .text.DrvInterruptSetAllInterrupts
                0x000008f4        0x4 Drv/drv_interrupt.o
                0x000008f4                DrvInterruptSetAllInterrupts
 .text.DrvLedOn
                0x000008f8       0x82 Drv/drv_led.o
                0x000008f8                DrvLedOn
 .text.DrvLedOff
                0x0000097a       0x82 Drv/drv_led.o
                0x0000097a                DrvLedOff
 .text.DrvLed   0x000009fc       0xc0 Drv/drv_led.o
                0x000009fc                DrvLed
 .text.DrvLedFlash_ISR
                0x00000abc      0x13e Drv/drv_led.o
 .text.DrvLedToggle
                0x00000bfa       0x2c Drv/drv_led.o
                0x00000bfa                DrvLedToggle
 .text.DrvLedFlash
                0x00000c26      0x154 Drv/drv_led.o
                0x00000c26                DrvLedFlash
 .text.DrvLedDirectFlash
                0x00000d7a      0x12c Drv/drv_led.o
                0x00000d7a                DrvLedDirectFlash
 .text.DrvTimerPlayTimer
                0x00000ea6       0x36 Drv/drv_timer.o
                0x00000ea6                DrvTimerPlayTimer
 .text.DrvTimerPauseTimer
                0x00000edc       0x1e Drv/drv_timer.o
                0x00000edc                DrvTimerPauseTimer
 .text.DrvTimerStopTimer
                0x00000efa       0x30 Drv/drv_timer.o
                0x00000efa                DrvTimerStopTimer
 .text.DrvTimerResetTimer
                0x00000f2a       0x20 Drv/drv_timer.o
                0x00000f2a                DrvTimerResetTimer
 .text.DrvTimerDelayTimer
                0x00000f4a       0x22 Drv/drv_timer.o
                0x00000f4a                DrvTimerDelayTimer
 .text.DrvTimerComputeOCR
                0x00000f6c       0xec Drv/drv_timer.o
                0x00000f6c                DrvTimerComputeOCR
 .text.DrvTimerInitSystemTimer
                0x00001058       0x4c Drv/drv_timer.o
                0x00001058                DrvTimerInitSystemTimer
 .text.DrvTimer
                0x000010a4       0x12 Drv/drv_timer.o
                0x000010a4                DrvTimer
 .text.__vector_16
                0x000010b6       0xf0 Drv/drv_timer.o
                0x000010b6                __vector_16
 .text.DrvTwi   0x000011a6       0x12 Drv/drv_twi.o
                0x000011a6                DrvTwi
 .text.DrvTwiStop
                0x000011b8        0x8 Drv/drv_twi.o
                0x000011b8                DrvTwiStop
 .text.WaitTransmissionI2C
                0x000011c0       0x1c Drv/drv_twi.o
                0x000011c0                WaitTransmissionI2C
 .text.DrvTwiRead
                0x000011dc       0x2e Drv/drv_twi.o
                0x000011dc                DrvTwiRead
 .text.DrvTwiReadNak
                0x0000120a        0x8 Drv/drv_twi.o
                0x0000120a                DrvTwiReadNak
 .text.DrvTwiReadAck
                0x00001212        0x8 Drv/drv_twi.o
                0x00001212                DrvTwiReadAck
 .text.DrvTwiWrite
                0x0000121a       0x10 Drv/drv_twi.o
                0x0000121a                DrvTwiWrite
 .text.DrvTwiRepStart
                0x0000122a       0x28 Drv/drv_twi.o
                0x0000122a                DrvTwiRepStart
 .text.DrvTwiReadToBuf
                0x00001252       0x4e Drv/drv_twi.o
                0x00001252                DrvTwiReadToBuf
 .text.DrvTwiReadRegBuf
                0x000012a0       0x34 Drv/drv_twi.o
                0x000012a0                DrvTwiReadRegBuf
 .text.DrvTwiWriteReg
                0x000012d4       0x24 Drv/drv_twi.o
                0x000012d4                DrvTwiWriteReg
 .text.DrvTwiReadReg
                0x000012f8       0x20 Drv/drv_twi.o
                0x000012f8                DrvTwiReadReg
 .text.DrvUart  0x00001318       0x66 Drv/drv_uart.o
                0x00001318                DrvUart
 .text.DrvUartDirectSendBytes
                0x0000137e       0x64 Drv/drv_uart.o
                0x0000137e                DrvUartDirectSendBytes
 .text.DrvUartSendByte
                0x000013e2       0x30 Drv/drv_uart.o
                0x000013e2                DrvUartSendByte
 .text.DrvUart0ReadMessage
                0x00001412       0x3c Drv/drv_uart.o
                0x00001412                DrvUart0ReadMessage
 .text.DrvUartSetPtrfctReceiveComplete
                0x0000144e       0x1c Drv/drv_uart.o
                0x0000144e                DrvUartSetPtrfctReceiveComplete
 .text.__vector_20
                0x0000146a       0xd0 Drv/drv_uart.o
                0x0000146a                __vector_20
 .text.micAdcSetReferenceSelectionBits
                0x0000153a       0x12 Mic/mic_adc.o
                0x0000153a                micAdcSetReferenceSelectionBits
 .text.micAdcSetLeftAdjustResult
                0x0000154c        0xe Mic/mic_adc.o
                0x0000154c                micAdcSetLeftAdjustResult
 .text.micAdcGetLeftAdjustResult
                0x0000155a        0x8 Mic/mic_adc.o
                0x0000155a                micAdcGetLeftAdjustResult
 .text.micAdcClearLeftAdjustResult
                0x00001562        0xe Mic/mic_adc.o
                0x00001562                micAdcClearLeftAdjustResult
 .text.micAdcSetAnalogChannelandGainSelectionBits
                0x00001570       0x12 Mic/mic_adc.o
                0x00001570                micAdcSetAnalogChannelandGainSelectionBits
 .text.micAdcGetAnalogChannelandGainSelectionBits
                0x00001582        0xc Mic/mic_adc.o
                0x00001582                micAdcGetAnalogChannelandGainSelectionBits
 .text.micAdcSetAdcEnable
                0x0000158e        0xe Mic/mic_adc.o
                0x0000158e                micAdcSetAdcEnable
 .text.micAdcSetAdcDisable
                0x0000159c        0xe Mic/mic_adc.o
                0x0000159c                micAdcSetAdcDisable
 .text.micAdcSetStartConversion
                0x000015aa        0xe Mic/mic_adc.o
                0x000015aa                micAdcSetStartConversion
 .text.micAdcSetAutoTriggerEnable
                0x000015b8        0xe Mic/mic_adc.o
                0x000015b8                micAdcSetAutoTriggerEnable
 .text.micAdcSetAutoTriggerDisable
                0x000015c6        0xe Mic/mic_adc.o
                0x000015c6                micAdcSetAutoTriggerDisable
 .text.micAdcClearConversionCompletedFlag
                0x000015d4       0x10 Mic/mic_adc.o
                0x000015d4                micAdcClearConversionCompletedFlag
 .text.micAdcSetInterrupt
                0x000015e4        0xe Mic/mic_adc.o
                0x000015e4                micAdcSetInterrupt
 .text.micAdcClearInterrupt
                0x000015f2        0xe Mic/mic_adc.o
                0x000015f2                micAdcClearInterrupt
 .text.micAdcSetPrescalerSelectBits
                0x00001600       0x12 Mic/mic_adc.o
                0x00001600                micAdcSetPrescalerSelectBits
 .text.micAdcSetAutoTriggerSource
                0x00001612       0x12 Mic/mic_adc.o
                0x00001612                micAdcSetAutoTriggerSource
 .text.micAdcReadData8
                0x00001624       0x14 Mic/mic_adc.o
                0x00001624                micAdcReadData8
 .text.micAdcReadData16
                0x00001638        0xa Mic/mic_adc.o
                0x00001638                micAdcReadData16
 .text.micInterruptMasterControlUnitInterruptVectorSelect
                0x00001642       0x16 Mic/mic_interrupt.o
                0x00001642                micInterruptMasterControlUnitInterruptVectorSelect
 .text.micInterruptMasterControlUnitInterruptVectorChangeEnable
                0x00001658       0x16 Mic/mic_interrupt.o
                0x00001658                micInterruptMasterControlUnitInterruptVectorChangeEnable
 .text.micInterruptSenseControlBits0
                0x0000166e        0xe Mic/mic_interrupt.o
                0x0000166e                micInterruptSenseControlBits0
 .text.micInterruptSenseControlBits1
                0x0000167c        0xe Mic/mic_interrupt.o
                0x0000167c                micInterruptSenseControlBits1
 .text.micInterruptSenseControlBits2
                0x0000168a        0xe Mic/mic_interrupt.o
                0x0000168a                micInterruptSenseControlBits2
 .text.micInterruptExternalInterruptRequestEnable0
                0x00001698        0xe Mic/mic_interrupt.o
                0x00001698                micInterruptExternalInterruptRequestEnable0
 .text.micInterruptExternalInterruptRequestEnable1
                0x000016a6        0xe Mic/mic_interrupt.o
                0x000016a6                micInterruptExternalInterruptRequestEnable1
 .text.micInterruptExternalInterruptRequestEnable2
                0x000016b4        0xe Mic/mic_interrupt.o
                0x000016b4                micInterruptExternalInterruptRequestEnable2
 .text.micInterruptExternalInterruptFlags0
                0x000016c2        0xe Mic/mic_interrupt.o
                0x000016c2                micInterruptExternalInterruptFlags0
 .text.micInterruptExternalInterruptFlags1
                0x000016d0        0xe Mic/mic_interrupt.o
                0x000016d0                micInterruptExternalInterruptFlags1
 .text.micInterruptExternalInterruptFlags2
                0x000016de        0xe Mic/mic_interrupt.o
                0x000016de                micInterruptExternalInterruptFlags2
 .text.micInterruptPinChangeInterruptEnable0
                0x000016ec       0x1e Mic/mic_interrupt.o
                0x000016ec                micInterruptPinChangeInterruptEnable0
 .text.micInterruptPinChangeInterruptEnable1
                0x0000170a       0x1e Mic/mic_interrupt.o
                0x0000170a                micInterruptPinChangeInterruptEnable1
 .text.micInterruptPinChangeInterruptEnable2
                0x00001728       0x1e Mic/mic_interrupt.o
                0x00001728                micInterruptPinChangeInterruptEnable2
 .text.micInterruptPinChangeInterruptEnable3
                0x00001746       0x1e Mic/mic_interrupt.o
                0x00001746                micInterruptPinChangeInterruptEnable3
 .text.micInterruptPinChangeInterruptFlag0
                0x00001764        0xe Mic/mic_interrupt.o
                0x00001764                micInterruptPinChangeInterruptFlag0
 .text.micInterruptPinChangeInterruptFlag1
                0x00001772        0xe Mic/mic_interrupt.o
                0x00001772                micInterruptPinChangeInterruptFlag1
 .text.micInterruptPinChangeInterruptFlag2
                0x00001780        0xe Mic/mic_interrupt.o
                0x00001780                micInterruptPinChangeInterruptFlag2
 .text.micInterruptPinChangeInterruptFlag3
                0x0000178e        0xe Mic/mic_interrupt.o
                0x0000178e                micInterruptPinChangeInterruptFlag3
 .text.micInterruptPinChangeEnableMask3
                0x0000179c        0xe Mic/mic_interrupt.o
                0x0000179c                micInterruptPinChangeEnableMask3
 .text.micInterruptPinChangeEnableMask2
                0x000017aa        0xe Mic/mic_interrupt.o
                0x000017aa                micInterruptPinChangeEnableMask2
 .text.micInterruptPinChangeEnableMask1
                0x000017b8        0xe Mic/mic_interrupt.o
                0x000017b8                micInterruptPinChangeEnableMask1
 .text.micInterruptPinChangeEnableMask0
                0x000017c6        0xe Mic/mic_interrupt.o
                0x000017c6                micInterruptPinChangeEnableMask0
 .text.micIoPortsConfigureToToggleLevel
                0x000017d4       0x8a Mic/mic_io_ports.o
                0x000017d4                micIoPortsConfigureToToggleLevel
 .text.micIoPortsMasterControlUnitPullUpDisable
                0x0000185e       0x16 Mic/mic_io_ports.o
                0x0000185e                micIoPortsMasterControlUnitPullUpDisable
 .text.micIoPortsDataRegisterA
                0x00001874       0x3c Mic/mic_io_ports.o
                0x00001874                micIoPortsDataRegisterA
 .text.micIoPortsReadDataRegisterA
                0x000018b0        0x4 Mic/mic_io_ports.o
                0x000018b0                micIoPortsReadDataRegisterA
 .text.micIoPortsDirectionRegisterA
                0x000018b4       0x3c Mic/mic_io_ports.o
                0x000018b4                micIoPortsDirectionRegisterA
 .text.micIoPortsInputPinsAddressA
                0x000018f0       0x3c Mic/mic_io_ports.o
                0x000018f0                micIoPortsInputPinsAddressA
 .text.micIoPortsDataRegisterB
                0x0000192c       0x3c Mic/mic_io_ports.o
                0x0000192c                micIoPortsDataRegisterB
 .text.micIoPortsReadDataRegisterB
                0x00001968        0x4 Mic/mic_io_ports.o
                0x00001968                micIoPortsReadDataRegisterB
 .text.micIoPortsDirectionRegisterB
                0x0000196c       0x3c Mic/mic_io_ports.o
                0x0000196c                micIoPortsDirectionRegisterB
 .text.micIoPortsInputPinsAddressB
                0x000019a8       0x3c Mic/mic_io_ports.o
                0x000019a8                micIoPortsInputPinsAddressB
 .text.micIoPortsDataRegisterC
                0x000019e4       0x3c Mic/mic_io_ports.o
                0x000019e4                micIoPortsDataRegisterC
 .text.micIoPortsReadDataRegisterC
                0x00001a20        0x4 Mic/mic_io_ports.o
                0x00001a20                micIoPortsReadDataRegisterC
 .text.micIoPortsDirectionRegisterC
                0x00001a24       0x3c Mic/mic_io_ports.o
                0x00001a24                micIoPortsDirectionRegisterC
 .text.micIoPortsInputPinsAddressC
                0x00001a60       0x3c Mic/mic_io_ports.o
                0x00001a60                micIoPortsInputPinsAddressC
 .text.micIoPortsDataRegisterD
                0x00001a9c       0x3c Mic/mic_io_ports.o
                0x00001a9c                micIoPortsDataRegisterD
 .text.micIoPortsDataRegister
                0x00001ad8       0x3a Mic/mic_io_ports.o
                0x00001ad8                micIoPortsDataRegister
 .text.micIoPortsConfigureToHighLevel
                0x00001b12       0x1a Mic/mic_io_ports.o
                0x00001b12                micIoPortsConfigureToHighLevel
 .text.micIoPortsConfigureToLowLevel
                0x00001b2c       0x1a Mic/mic_io_ports.o
                0x00001b2c                micIoPortsConfigureToLowLevel
 .text.micIoPortsReadDataRegisterD
                0x00001b46        0x4 Mic/mic_io_ports.o
                0x00001b46                micIoPortsReadDataRegisterD
 .text.micIoPortsDirectionRegisterD
                0x00001b4a       0x3c Mic/mic_io_ports.o
                0x00001b4a                micIoPortsDirectionRegisterD
 .text.micIoPortsDirectionRegister
                0x00001b86       0x3a Mic/mic_io_ports.o
                0x00001b86                micIoPortsDirectionRegister
 .text.micIoPortsConfigureInput
                0x00001bc0       0x4c Mic/mic_io_ports.o
                0x00001bc0                micIoPortsConfigureInput
 .text.micIoPortsConfigureOutput
                0x00001c0c       0x1a Mic/mic_io_ports.o
                0x00001c0c                micIoPortsConfigureOutput
 .text.micIoPortsInputPinsAddressD
                0x00001c26       0x3c Mic/mic_io_ports.o
                0x00001c26                micIoPortsInputPinsAddressD
 .text.micIoPortsInputPinsAddress
                0x00001c62       0x3a Mic/mic_io_ports.o
                0x00001c62                micIoPortsInputPinsAddress
 .text.micPowerMangementSleepMode
                0x00001c9c        0xa Mic/mic_power_management.o
                0x00001c9c                micPowerMangementSleepMode
 .text.micPowerMangementSleepEnable
                0x00001ca6       0x16 Mic/mic_power_management.o
                0x00001ca6                micPowerMangementSleepEnable
 .text.micPowerMangementMasterControlUnitBrownOutVoltageSleep
                0x00001cbc       0x16 Mic/mic_power_management.o
                0x00001cbc                micPowerMangementMasterControlUnitBrownOutVoltageSleep
 .text.micPowerMangementMasterControlUnitBrownOutVoltageSleepEnable
                0x00001cd2       0x16 Mic/mic_power_management.o
                0x00001cd2                micPowerMangementMasterControlUnitBrownOutVoltageSleepEnable
 .text.micPowerMangementPowerReductionTWI
                0x00001ce8       0x1e Mic/mic_power_management.o
                0x00001ce8                micPowerMangementPowerReductionTWI
 .text.micPowerMangementPowerReductionTimerCounter2
                0x00001d06       0x1e Mic/mic_power_management.o
                0x00001d06                micPowerMangementPowerReductionTimerCounter2
 .text.micPowerMangementPowerReductionTimerCounter0
                0x00001d24       0x1e Mic/mic_power_management.o
                0x00001d24                micPowerMangementPowerReductionTimerCounter0
 .text.micPowerMangementPowerReductionUSART1
                0x00001d42       0x1e Mic/mic_power_management.o
                0x00001d42                micPowerMangementPowerReductionUSART1
 .text.micPowerMangementPowerReductionTimerCounter1
                0x00001d60       0x1e Mic/mic_power_management.o
                0x00001d60                micPowerMangementPowerReductionTimerCounter1
 .text.micPowerMangementPowerReductionSPI
                0x00001d7e       0x1e Mic/mic_power_management.o
                0x00001d7e                micPowerMangementPowerReductionSPI
 .text.micPowerMangementPowerReductionUSART0
                0x00001d9c       0x1e Mic/mic_power_management.o
                0x00001d9c                micPowerMangementPowerReductionUSART0
 .text.micPowerMangementPowerReductionADC
                0x00001dba       0x1e Mic/mic_power_management.o
                0x00001dba                micPowerMangementPowerReductionADC
 .text.micSystemClockOscillatorCalibrationValue
                0x00001dd8        0x8 Mic/mic_system_clock.o
                0x00001dd8                micSystemClockOscillatorCalibrationValue
 .text.micSystemClockPrescalerChangeEnable
                0x00001de0       0x1e Mic/mic_system_clock.o
                0x00001de0                micSystemClockPrescalerChangeEnable
 .text.micSystemClockPrescalerSelectBits
                0x00001dfe       0x10 Mic/mic_system_clock.o
                0x00001dfe                micSystemClockPrescalerSelectBits
 .text.micSystemControlMasterControlUnitJtagResetFlag
                0x00001e0e        0x6 Mic/mic_system_control.o
                0x00001e0e                micSystemControlMasterControlUnitJtagResetFlag
 .text.micSystemControlMasterControlUnitWatchdogResetFlag
                0x00001e14        0x6 Mic/mic_system_control.o
                0x00001e14                micSystemControlMasterControlUnitWatchdogResetFlag
 .text.micSystemControlMasterControlUnitBrownOutResetFlag
                0x00001e1a        0x6 Mic/mic_system_control.o
                0x00001e1a                micSystemControlMasterControlUnitBrownOutResetFlag
 .text.micSystemControlMasterControlUnitExternalResetFlag
                0x00001e20        0x6 Mic/mic_system_control.o
                0x00001e20                micSystemControlMasterControlUnitExternalResetFlag
 .text.micSystemControlMasterControlUnitPowerOnResetFlag
                0x00001e26        0x6 Mic/mic_system_control.o
                0x00001e26                micSystemControlMasterControlUnitPowerOnResetFlag
 .text.micSystemControlWatchdogTimerControlWatchdogFlag
                0x00001e2c        0x8 Mic/mic_system_control.o
                0x00001e2c                micSystemControlWatchdogTimerControlWatchdogFlag
 .text.micSystemControlWatchdogTimerControlWatchdogInterruptEnable
                0x00001e34       0x1e Mic/mic_system_control.o
                0x00001e34                micSystemControlWatchdogTimerControlWatchdogInterruptEnable
 .text.micSystemControlWatchdogTimerControlWatchdogChangeEnable
                0x00001e52        0x8 Mic/mic_system_control.o
                0x00001e52                micSystemControlWatchdogTimerControlWatchdogChangeEnable
 .text.micSystemControlWatchdogTimerControlWatchdogSystemResetEnable
                0x00001e5a       0x1e Mic/mic_system_control.o
                0x00001e5a                micSystemControlWatchdogTimerControlWatchdogSystemResetEnable
 .text.micSystemControlWatchdogTimerControlWatchdogTimerPrescaler
                0x00001e78        0xe Mic/mic_system_control.o
                0x00001e78                micSystemControlWatchdogTimerControlWatchdogTimerPrescaler
 .text.micTimer0CompareMatchOutputAMode
                0x00001e86        0xe Mic/mic_timer_0.o
                0x00001e86                micTimer0CompareMatchOutputAMode
 .text.micTimer0CompareMatchOutputBMode
                0x00001e94        0xe Mic/mic_timer_0.o
                0x00001e94                micTimer0CompareMatchOutputBMode
 .text.micTimer0WaveformGenerationMode
                0x00001ea2       0x3a Mic/mic_timer_0.o
                0x00001ea2                micTimer0WaveformGenerationMode
 .text.micTimer0ForceOutputCompareA
                0x00001edc        0xc Mic/mic_timer_0.o
                0x00001edc                micTimer0ForceOutputCompareA
 .text.micTimer0SetClockDivision
                0x00001ee8        0xc Mic/mic_timer_0.o
                0x00001ee8                micTimer0SetClockDivision
 .text.micTimer0SetTimerCounterRegister
                0x00001ef4        0x4 Mic/mic_timer_0.o
                0x00001ef4                micTimer0SetTimerCounterRegister
 .text.micTimer0GetTimerCounterRegister
                0x00001ef8        0x4 Mic/mic_timer_0.o
                0x00001ef8                micTimer0GetTimerCounterRegister
 .text.micTimer0SetOutputCompareRegisterA
                0x00001efc        0x4 Mic/mic_timer_0.o
                0x00001efc                micTimer0SetOutputCompareRegisterA
 .text.micTimer0GetOutputCompareRegisterA
                0x00001f00        0x4 Mic/mic_timer_0.o
                0x00001f00                micTimer0GetOutputCompareRegisterA
 .text.micTimer0SetOutputCompareRegisterB
                0x00001f04        0x4 Mic/mic_timer_0.o
                0x00001f04                micTimer0SetOutputCompareRegisterB
 .text.micTimer0GetOutputCompareRegisterB
                0x00001f08        0x4 Mic/mic_timer_0.o
                0x00001f08                micTimer0GetOutputCompareRegisterB
 .text.micTimer0SetTimerCounterInterrupt
                0x00001f0c        0xe Mic/mic_timer_0.o
                0x00001f0c                micTimer0SetTimerCounterInterrupt
 .text.micTimer0ClearTimerCounterInterrupt
                0x00001f1a       0x10 Mic/mic_timer_0.o
                0x00001f1a                micTimer0ClearTimerCounterInterrupt
 .text.micTimer0ClearTimerCounterInterruptFlagRegister
                0x00001f2a       0x10 Mic/mic_timer_0.o
                0x00001f2a                micTimer0ClearTimerCounterInterruptFlagRegister
 .text.micUsart0SetIODataRegister
                0x00001f3a        0x8 Mic/mic_usart.o
                0x00001f3a                micUsart0SetIODataRegister
 .text.micUsart1SetIODataRegister
                0x00001f42        0x8 Mic/mic_usart.o
                0x00001f42                micUsart1SetIODataRegister
 .text.micUsart0GetIODataRegister
                0x00001f4a        0x6 Mic/mic_usart.o
                0x00001f4a                micUsart0GetIODataRegister
 .text.micUsart1GetIODataRegister
                0x00001f50        0x6 Mic/mic_usart.o
                0x00001f50                micUsart1GetIODataRegister
 .text.micUsart0GetRegisterEmpty
                0x00001f56        0x8 Mic/mic_usart.o
                0x00001f56                micUsart0GetRegisterEmpty
 .text.micUsart1GetRegisterEmpty
                0x00001f5e        0x8 Mic/mic_usart.o
                0x00001f5e                micUsart1GetRegisterEmpty
 .text.micUsart0GetError
                0x00001f66        0xc Mic/mic_usart.o
                0x00001f66                micUsart0GetError
 .text.micUsart1GetError
                0x00001f72        0xc Mic/mic_usart.o
                0x00001f72                micUsart1GetError
 .text.micUsart0SetSpeedMode
                0x00001f7e       0x1a Mic/mic_usart.o
                0x00001f7e                micUsart0SetSpeedMode
 .text.micUsart1SetSpeedMode
                0x00001f98       0x1a Mic/mic_usart.o
                0x00001f98                micUsart1SetSpeedMode
 .text.micUsart0GetSpeedMode
                0x00001fb2        0xc Mic/mic_usart.o
                0x00001fb2                micUsart0GetSpeedMode
 .text.micUsart1GetSpeedMode
                0x00001fbe        0xc Mic/mic_usart.o
                0x00001fbe                micUsart1GetSpeedMode
 .text.micUsart0SetMultiProcessorMode
                0x00001fca        0xe Mic/mic_usart.o
                0x00001fca                micUsart0SetMultiProcessorMode
 .text.micUsart1SetMultiProcessorMode
                0x00001fd8        0xe Mic/mic_usart.o
                0x00001fd8                micUsart1SetMultiProcessorMode
 .text.micUsart0GetMultiProcessorMode
                0x00001fe6        0x8 Mic/mic_usart.o
                0x00001fe6                micUsart0GetMultiProcessorMode
 .text.micUsart1GetMultiProcessorMode
                0x00001fee        0x8 Mic/mic_usart.o
                0x00001fee                micUsart1GetMultiProcessorMode
 .text.micUsart0GetReceiptCompleted
                0x00001ff6        0x8 Mic/mic_usart.o
                0x00001ff6                micUsart0GetReceiptCompleted
 .text.micUsart1GetReceiptCompleted
                0x00001ffe        0x8 Mic/mic_usart.o
                0x00001ffe                micUsart1GetReceiptCompleted
 .text.micUsart0SetTransmitCompleted
                0x00002006        0xe Mic/mic_usart.o
                0x00002006                micUsart0SetTransmitCompleted
 .text.micUsart1SetTransmitCompleted
                0x00002014        0xe Mic/mic_usart.o
                0x00002014                micUsart1SetTransmitCompleted
 .text.micUsart0GetTransmitCompleted
                0x00002022        0x8 Mic/mic_usart.o
                0x00002022                micUsart0GetTransmitCompleted
 .text.micUsart1GetTransmitCompleted
                0x0000202a        0x8 Mic/mic_usart.o
                0x0000202a                micUsart1GetTransmitCompleted
 .text.micUsart0GetDataRegisterEmpty
                0x00002032        0x8 Mic/mic_usart.o
                0x00002032                micUsart0GetDataRegisterEmpty
 .text.micUsart1GetDataRegisterEmpty
                0x0000203a        0x8 Mic/mic_usart.o
                0x0000203a                micUsart1GetDataRegisterEmpty
 .text.micUsart0SetTransmitterEnable
                0x00002042        0xe Mic/mic_usart.o
                0x00002042                micUsart0SetTransmitterEnable
 .text.micUsart1SetTransmitterEnable
                0x00002050        0xe Mic/mic_usart.o
                0x00002050                micUsart1SetTransmitterEnable
 .text.micUsart0SetTransmitterDisable
                0x0000205e        0xe Mic/mic_usart.o
                0x0000205e                micUsart0SetTransmitterDisable
 .text.micUsart1SetTransmitterDisable
                0x0000206c        0xe Mic/mic_usart.o
                0x0000206c                micUsart1SetTransmitterDisable
 .text.micUsart0SetReceiverEnable
                0x0000207a        0xe Mic/mic_usart.o
                0x0000207a                micUsart0SetReceiverEnable
 .text.micUsart1SetReceiverEnable
                0x00002088        0xe Mic/mic_usart.o
                0x00002088                micUsart1SetReceiverEnable
 .text.micUsart0SetReceiverDisable
                0x00002096        0xe Mic/mic_usart.o
                0x00002096                micUsart0SetReceiverDisable
 .text.micUsart1SetReceiverDisable
                0x000020a4        0xe Mic/mic_usart.o
                0x000020a4                micUsart1SetReceiverDisable
 .text.micUsart0SetDataSize
                0x000020b2       0x24 Mic/mic_usart.o
                0x000020b2                micUsart0SetDataSize
 .text.micUsart1SetDataSize
                0x000020d6       0x24 Mic/mic_usart.o
                0x000020d6                micUsart1SetDataSize
 .text.micUsart0SetParityMode
                0x000020fa       0x12 Mic/mic_usart.o
                0x000020fa                micUsart0SetParityMode
 .text.micUsart1SetParityMode
                0x0000210c       0x12 Mic/mic_usart.o
                0x0000210c                micUsart1SetParityMode
 .text.micUsart0SetStopBits
                0x0000211e       0x12 Mic/mic_usart.o
                0x0000211e                micUsart0SetStopBits
 .text.micUsart1SetStopBits
                0x00002130       0x12 Mic/mic_usart.o
                0x00002130                micUsart1SetStopBits
 .text.micUsart0SetRxInterrupt
                0x00002142        0xe Mic/mic_usart.o
                0x00002142                micUsart0SetRxInterrupt
 .text.micUsart1SetRxInterrupt
                0x00002150        0xe Mic/mic_usart.o
                0x00002150                micUsart1SetRxInterrupt
 .text.micUsart0ClearRxInterrupt
                0x0000215e        0xe Mic/mic_usart.o
                0x0000215e                micUsart0ClearRxInterrupt
 .text.micUsart1ClearRxInterrupt
                0x0000216c        0xe Mic/mic_usart.o
                0x0000216c                micUsart1ClearRxInterrupt
 .text.micUsart0SetTxInterrupt
                0x0000217a        0xe Mic/mic_usart.o
                0x0000217a                micUsart0SetTxInterrupt
 .text.micUsart1SetTxInterrupt
                0x00002188        0xe Mic/mic_usart.o
                0x00002188                micUsart1SetTxInterrupt
 .text.micUsart0ClearTxInterrupt
                0x00002196        0xe Mic/mic_usart.o
                0x00002196                micUsart0ClearTxInterrupt
 .text.micUsart1ClearTxInterrupt
                0x000021a4        0xe Mic/mic_usart.o
                0x000021a4                micUsart1ClearTxInterrupt
 .text.micUsart0SetDataRegisterEmptyInterrupt
                0x000021b2        0xe Mic/mic_usart.o
                0x000021b2                micUsart0SetDataRegisterEmptyInterrupt
 .text.micUsart1SetDataRegisterEmptyInterrupt
                0x000021c0        0xe Mic/mic_usart.o
                0x000021c0                micUsart1SetDataRegisterEmptyInterrupt
 .text.micUsart0ClearDataRegisterEmptyInterrupt
                0x000021ce        0xe Mic/mic_usart.o
                0x000021ce                micUsart0ClearDataRegisterEmptyInterrupt
 .text.micUsart1ClearDataRegisterEmptyInterrupt
                0x000021dc        0xe Mic/mic_usart.o
                0x000021dc                micUsart1ClearDataRegisterEmptyInterrupt
 .text.micUsart0SetSynchronousClockPolarity
                0x000021ea       0x12 Mic/mic_usart.o
                0x000021ea                micUsart0SetSynchronousClockPolarity
 .text.micUsart1SetSynchronousClockPolarity
                0x000021fc       0x12 Mic/mic_usart.o
                0x000021fc                micUsart1SetSynchronousClockPolarity
 .text.micUsart0SetBaudRateAsynchronousNormalMode
                0x0000220e       0x6c Mic/mic_usart.o
                0x0000220e                micUsart0SetBaudRateAsynchronousNormalMode
 .text.micUsart1SetBaudRateAsynchronousNormalMode
                0x0000227a       0x6c Mic/mic_usart.o
                0x0000227a                micUsart1SetBaudRateAsynchronousNormalMode
 .text.micUsart0SetBaudRateAsynchronousDoubleSpeedMode
                0x000022e6       0x66 Mic/mic_usart.o
                0x000022e6                micUsart0SetBaudRateAsynchronousDoubleSpeedMode
 .text.micUsart1SetBaudRateAsynchronousDoubleSpeedMode
                0x0000234c       0x66 Mic/mic_usart.o
                0x0000234c                micUsart1SetBaudRateAsynchronousDoubleSpeedMode
 .text.micUsart0SetBaudRateSynchronousMasterMode
                0x000023b2       0x48 Mic/mic_usart.o
                0x000023b2                micUsart0SetBaudRateSynchronousMasterMode
 .text.micUsart1SetBaudRateSynchronousMasterMode
                0x000023fa       0x48 Mic/mic_usart.o
                0x000023fa                micUsart1SetBaudRateSynchronousMasterMode
 .text.main     0x00002442       0x94 Robot_head.o
                0x00002442                main
 .text.TlsStringSearchChar
                0x000024d6       0x2a Tools/tools_string.o
                0x000024d6                TlsStringSearchChar
 .text.TlsStringConvertByteToAscii
                0x00002500       0x12 Tools/tools_string.o
                0x00002500                TlsStringConvertByteToAscii
 .text.TlsStringConvertBytesToAscii
                0x00002512       0xd2 Tools/tools_string.o
                0x00002512                TlsStringConvertBytesToAscii
 .text.TlsStringConvertAsciiToByte
                0x000025e4       0x38 Tools/tools_string.o
                0x000025e4                TlsStringConvertAsciiToByte
 .text.libgcc   0x0000261c       0x3e c:/program files (x86)/atmel/atmel studio 6.0/extensions/atmel/avrgcc/3.4.1.95/avrtoolchain/bin/../lib/gcc/avr/4.6.2/avr51\libgcc.a(_mulsi3.o)
                0x0000261c                __mulsi3
 .text.libgcc   0x0000265a       0x28 c:/program files (x86)/atmel/atmel studio 6.0/extensions/atmel/avrgcc/3.4.1.95/avrtoolchain/bin/../lib/gcc/avr/4.6.2/avr51\libgcc.a(_udivmodhi4.o)
                0x0000265a                __udivmodhi4
 .text.libgcc   0x00002682       0x44 c:/program files (x86)/atmel/atmel studio 6.0/extensions/atmel/avrgcc/3.4.1.95/avrtoolchain/bin/../lib/gcc/avr/4.6.2/avr51\libgcc.a(_udivmodsi4.o)
                0x00002682                __udivmodsi4
 .text.libgcc   0x000026c6        0x0 c:/program files (x86)/atmel/atmel studio 6.0/extensions/atmel/avrgcc/3.4.1.95/avrtoolchain/bin/../lib/gcc/avr/4.6.2/avr51\libgcc.a(_exit.o)
 .text.libgcc   0x000026c6        0x0 c:/program files (x86)/atmel/atmel studio 6.0/extensions/atmel/avrgcc/3.4.1.95/avrtoolchain/bin/../lib/gcc/avr/4.6.2/avr51\libgcc.a(_copy_data.o)
 .text.libgcc   0x000026c6        0x0 c:/program files (x86)/atmel/atmel studio 6.0/extensions/atmel/avrgcc/3.4.1.95/avrtoolchain/bin/../lib/gcc/avr/4.6.2/avr51\libgcc.a(_clear_bss.o)
                0x000026c6                . = ALIGN (0x2)
 *(.fini9)
 .fini9         0x000026c6        0x0 c:/program files (x86)/atmel/atmel studio 6.0/extensions/atmel/avrgcc/3.4.1.95/avrtoolchain/bin/../lib/gcc/avr/4.6.2/avr51\libgcc.a(_exit.o)
                0x000026c6                _exit
                0x000026c6                exit
 *(.fini9)
 *(.fini8)
 *(.fini8)
 *(.fini7)
 *(.fini7)
 *(.fini6)
 *(.fini6)
 *(.fini5)
 *(.fini5)
 *(.fini4)
 *(.fini4)
 *(.fini3)
 *(.fini3)
 *(.fini2)
 *(.fini2)
 *(.fini1)
 *(.fini1)
 *(.fini0)
 .fini0         0x000026c6        0x4 c:/program files (x86)/atmel/atmel studio 6.0/extensions/atmel/avrgcc/3.4.1.95/avrtoolchain/bin/../lib/gcc/avr/4.6.2/avr51\libgcc.a(_exit.o)
 *(.fini0)
                0x000026ca                _etext = .

.data           0x00800100        0x4 load address 0x000026ca
                0x00800100                PROVIDE (__data_start, .)
 *(.data)
 .data          0x00800100        0x0 c:/program files (x86)/atmel/atmel studio 6.0/extensions/atmel/avrgcc/3.4.1.95/avrtoolchain/bin/../lib/gcc/avr/4.6.2/../../../../avr/lib/avr51/crtm1284p.o
 .data          0x00800100        0x0 Ctrl/ctrl_eye.o
 .data          0x00800100        0x0 Ctrl/ctrl_light.o
 .data          0x00800100        0x0 Ctrl/ctrl_uart_protocole.o
 .data          0x00800100        0x0 Ctrl/ctrl_ultrason.o
 .data          0x00800100        0x0 Drv/drv_adc.o
 .data          0x00800100        0x0 Drv/drv_event.o
 .data          0x00800100        0x0 Drv/drv_i2c_ultrason.o
 .data          0x00800100        0x0 Drv/drv_interrupt.o
 .data          0x00800100        0x4 Drv/drv_led.o
                0x00800100                led_pin_name
 .data          0x00800104        0x0 Drv/drv_timer.o
 .data          0x00800104        0x0 Drv/drv_twi.o
 .data          0x00800104        0x0 Drv/drv_uart.o
 .data          0x00800104        0x0 Mic/mic_adc.o
 .data          0x00800104        0x0 Mic/mic_interrupt.o
 .data          0x00800104        0x0 Mic/mic_io_ports.o
 .data          0x00800104        0x0 Mic/mic_power_management.o
 .data          0x00800104        0x0 Mic/mic_system_clock.o
 .data          0x00800104        0x0 Mic/mic_system_control.o
 .data          0x00800104        0x0 Mic/mic_timer_0.o
 .data          0x00800104        0x0 Mic/mic_usart.o
 .data          0x00800104        0x0 Robot_head.o
 .data          0x00800104        0x0 Tools/tools_string.o
 .data          0x00800104        0x0 c:/program files (x86)/atmel/atmel studio 6.0/extensions/atmel/avrgcc/3.4.1.95/avrtoolchain/bin/../lib/gcc/avr/4.6.2/avr51\libgcc.a(_mulsi3.o)
 .data          0x00800104        0x0 c:/program files (x86)/atmel/atmel studio 6.0/extensions/atmel/avrgcc/3.4.1.95/avrtoolchain/bin/../lib/gcc/avr/4.6.2/avr51\libgcc.a(_udivmodhi4.o)
 .data          0x00800104        0x0 c:/program files (x86)/atmel/atmel studio 6.0/extensions/atmel/avrgcc/3.4.1.95/avrtoolchain/bin/../lib/gcc/avr/4.6.2/avr51\libgcc.a(_udivmodsi4.o)
 .data          0x00800104        0x0 c:/program files (x86)/atmel/atmel studio 6.0/extensions/atmel/avrgcc/3.4.1.95/avrtoolchain/bin/../lib/gcc/avr/4.6.2/avr51\libgcc.a(_exit.o)
 .data          0x00800104        0x0 c:/program files (x86)/atmel/atmel studio 6.0/extensions/atmel/avrgcc/3.4.1.95/avrtoolchain/bin/../lib/gcc/avr/4.6.2/avr51\libgcc.a(_copy_data.o)
 .data          0x00800104        0x0 c:/program files (x86)/atmel/atmel studio 6.0/extensions/atmel/avrgcc/3.4.1.95/avrtoolchain/bin/../lib/gcc/avr/4.6.2/avr51\libgcc.a(_clear_bss.o)
 *(.data*)
 *(.rodata)
 *(.rodata*)
 *(.gnu.linkonce.d*)
                0x00800104                . = ALIGN (0x2)
                0x00800104                _edata = .
                0x00800104                PROVIDE (__data_end, .)

.bss            0x00800104       0xe5
                0x00800104                PROVIDE (__bss_start, .)
 *(.bss)
 .bss           0x00800104        0x0 c:/program files (x86)/atmel/atmel studio 6.0/extensions/atmel/avrgcc/3.4.1.95/avrtoolchain/bin/../lib/gcc/avr/4.6.2/../../../../avr/lib/avr51/crtm1284p.o
 .bss           0x00800104        0x1 Ctrl/ctrl_eye.o
                0x00800104                hearbeat_enable
 .bss           0x00800105        0xa Ctrl/ctrl_light.o
                0x00800105                nb_ldr_mesures
                0x00800107                mesure_ldr_droite_moy
                0x00800109                mesure_ldr_gauche_moy
                0x0080010b                mesure_ldr_droite
                0x0080010d                mesure_ldr_gauche
 .bss           0x0080010f        0x1 Ctrl/ctrl_uart_protocole.o
                0x0080010f                i_message_len_from_body
 .bss           0x00800110        0x3 Ctrl/ctrl_ultrason.o
                0x00800110                us_mesure
                0x00800112                send_pulse
 .bss           0x00800113        0x0 Drv/drv_adc.o
 .bss           0x00800113        0x2 Drv/drv_event.o
 .bss           0x00800115        0x2 Drv/drv_i2c_ultrason.o
 .bss           0x00800117        0x0 Drv/drv_interrupt.o
 .bss           0x00800117        0x0 Drv/drv_led.o
 .bss           0x00800117        0x2 Drv/drv_timer.o
                0x00800117                timeout_s
                0x00800118                timeout_ms
 .bss           0x00800119        0x0 Drv/drv_twi.o
 .bss           0x00800119        0x7 Drv/drv_uart.o
                0x00800119                start_frame_uart_0
                0x0080011a                ptr_buff_uart_0
                0x0080011b                in_message_len_0
                0x0080011c                loc_ptrfct_Isr_Callback_Uart1_RX
                0x0080011e                loc_ptrfct_Isr_Callback_Uart0_RX
 .bss           0x00800120        0x0 Mic/mic_adc.o
 .bss           0x00800120        0x0 Mic/mic_interrupt.o
 .bss           0x00800120        0x0 Mic/mic_io_ports.o
 .bss           0x00800120        0x0 Mic/mic_power_management.o
 .bss           0x00800120        0x0 Mic/mic_system_clock.o
 .bss           0x00800120        0x0 Mic/mic_system_control.o
 .bss           0x00800120        0x0 Mic/mic_timer_0.o
 .bss           0x00800120        0x0 Mic/mic_usart.o
 .bss           0x00800120        0x2 Robot_head.o
 .bss           0x00800122        0x0 Tools/tools_string.o
 .bss           0x00800122        0x0 c:/program files (x86)/atmel/atmel studio 6.0/extensions/atmel/avrgcc/3.4.1.95/avrtoolchain/bin/../lib/gcc/avr/4.6.2/avr51\libgcc.a(_mulsi3.o)
 .bss           0x00800122        0x0 c:/program files (x86)/atmel/atmel studio 6.0/extensions/atmel/avrgcc/3.4.1.95/avrtoolchain/bin/../lib/gcc/avr/4.6.2/avr51\libgcc.a(_udivmodhi4.o)
 .bss           0x00800122        0x0 c:/program files (x86)/atmel/atmel studio 6.0/extensions/atmel/avrgcc/3.4.1.95/avrtoolchain/bin/../lib/gcc/avr/4.6.2/avr51\libgcc.a(_udivmodsi4.o)
 .bss           0x00800122        0x0 c:/program files (x86)/atmel/atmel studio 6.0/extensions/atmel/avrgcc/3.4.1.95/avrtoolchain/bin/../lib/gcc/avr/4.6.2/avr51\libgcc.a(_exit.o)
 .bss           0x00800122        0x0 c:/program files (x86)/atmel/atmel studio 6.0/extensions/atmel/avrgcc/3.4.1.95/avrtoolchain/bin/../lib/gcc/avr/4.6.2/avr51\libgcc.a(_copy_data.o)
 .bss           0x00800122        0x0 c:/program files (x86)/atmel/atmel studio 6.0/extensions/atmel/avrgcc/3.4.1.95/avrtoolchain/bin/../lib/gcc/avr/4.6.2/avr51\libgcc.a(_clear_bss.o)
 *(.bss*)
 *(COMMON)
 COMMON         0x00800122       0x32 Ctrl/ctrl_uart_protocole.o
                0x00800122                i_message_from_body
 COMMON         0x00800154       0x28 Drv/drv_led.o
                0x00800154                MesLeds
 COMMON         0x0080017c        0x9 Drv/drv_timer.o
                0x0080017c                MesTimer
 COMMON         0x00800185       0x64 Drv/drv_uart.o
                0x00800185                in_message_0
                0x008001b7                buff_uart_0
                0x008001e9                PROVIDE (__bss_end, .)
                0x000026ca                __data_load_start = LOADADDR (.data)
                0x000026ce                __data_load_end = (__data_load_start + SIZEOF (.data))

.noinit         0x008001e9        0x0
                0x008001e9                PROVIDE (__noinit_start, .)
 *(.noinit*)
                0x008001e9                PROVIDE (__noinit_end, .)
                0x008001e9                _end = .
                0x008001e9                PROVIDE (__heap_start, .)

.eeprom         0x00810000        0x0
 *(.eeprom*)
                0x00810000                __eeprom_end = .

.fuse
 *(.fuse)
 *(.lfuse)
 *(.hfuse)
 *(.efuse)

.lock
 *(.lock*)

.signature
 *(.signature*)

.stab           0x00000000      0x6cc
 *(.stab)
 .stab          0x00000000      0x6cc c:/program files (x86)/atmel/atmel studio 6.0/extensions/atmel/avrgcc/3.4.1.95/avrtoolchain/bin/../lib/gcc/avr/4.6.2/../../../../avr/lib/avr51/crtm1284p.o

.stabstr        0x00000000       0x85
 *(.stabstr)
 .stabstr       0x00000000       0x85 c:/program files (x86)/atmel/atmel studio 6.0/extensions/atmel/avrgcc/3.4.1.95/avrtoolchain/bin/../lib/gcc/avr/4.6.2/../../../../avr/lib/avr51/crtm1284p.o

.stab.excl
 *(.stab.excl)

.stab.exclstr
 *(.stab.exclstr)

.stab.index
 *(.stab.index)

.stab.indexstr
 *(.stab.indexstr)

.comment
 *(.comment)

.debug
 *(.debug)

.line
 *(.line)

.debug_srcinfo
 *(.debug_srcinfo)

.debug_sfnames
 *(.debug_sfnames)

.debug_aranges  0x00000000      0xa18
 *(.debug_aranges)
 .debug_aranges
                0x00000000       0x60 Ctrl/ctrl_eye.o
 .debug_aranges
                0x00000060       0x30 Ctrl/ctrl_light.o
 .debug_aranges
                0x00000090       0x30 Ctrl/ctrl_uart_protocole.o
 .debug_aranges
                0x000000c0       0x38 Ctrl/ctrl_ultrason.o
 .debug_aranges
                0x000000f8       0x28 Drv/drv_adc.o
 .debug_aranges
                0x00000120       0x40 Drv/drv_event.o
 .debug_aranges
                0x00000160       0x30 Drv/drv_i2c_ultrason.o
 .debug_aranges
                0x00000190       0x28 Drv/drv_interrupt.o
 .debug_aranges
                0x000001b8       0x50 Drv/drv_led.o
 .debug_aranges
                0x00000208       0x60 Drv/drv_timer.o
 .debug_aranges
                0x00000268       0x78 Drv/drv_twi.o
 .debug_aranges
                0x000002e0       0x48 Drv/drv_uart.o
 .debug_aranges
                0x00000328       0xa8 Mic/mic_adc.o
 .debug_aranges
                0x000003d0       0xd0 Mic/mic_interrupt.o
 .debug_aranges
                0x000004a0       0xe0 Mic/mic_io_ports.o
 .debug_aranges
                0x00000580       0x78 Mic/mic_power_management.o
 .debug_aranges
                0x000005f8       0x30 Mic/mic_system_clock.o
 .debug_aranges
                0x00000628       0x68 Mic/mic_system_control.o
 .debug_aranges
                0x00000690       0x88 Mic/mic_timer_0.o
 .debug_aranges
                0x00000718      0x1e8 Mic/mic_usart.o
 .debug_aranges
                0x00000900       0x20 Robot_head.o
 .debug_aranges
                0x00000920       0x38 Tools/tools_string.o
 .debug_aranges
                0x00000958       0x20 c:/program files (x86)/atmel/atmel studio 6.0/extensions/atmel/avrgcc/3.4.1.95/avrtoolchain/bin/../lib/gcc/avr/4.6.2/avr51\libgcc.a(_mulsi3.o)
 .debug_aranges
                0x00000978       0x20 c:/program files (x86)/atmel/atmel studio 6.0/extensions/atmel/avrgcc/3.4.1.95/avrtoolchain/bin/../lib/gcc/avr/4.6.2/avr51\libgcc.a(_udivmodhi4.o)
 .debug_aranges
                0x00000998       0x20 c:/program files (x86)/atmel/atmel studio 6.0/extensions/atmel/avrgcc/3.4.1.95/avrtoolchain/bin/../lib/gcc/avr/4.6.2/avr51\libgcc.a(_udivmodsi4.o)
 .debug_aranges
                0x000009b8       0x20 c:/program files (x86)/atmel/atmel studio 6.0/extensions/atmel/avrgcc/3.4.1.95/avrtoolchain/bin/../lib/gcc/avr/4.6.2/avr51\libgcc.a(_exit.o)
 .debug_aranges
                0x000009d8       0x20 c:/program files (x86)/atmel/atmel studio 6.0/extensions/atmel/avrgcc/3.4.1.95/avrtoolchain/bin/../lib/gcc/avr/4.6.2/avr51\libgcc.a(_copy_data.o)
 .debug_aranges
                0x000009f8       0x20 c:/program files (x86)/atmel/atmel studio 6.0/extensions/atmel/avrgcc/3.4.1.95/avrtoolchain/bin/../lib/gcc/avr/4.6.2/avr51\libgcc.a(_clear_bss.o)

.debug_pubnames
 *(.debug_pubnames)

.debug_info     0x00000000     0x5263
 *(.debug_info)
 .debug_info    0x00000000      0x26c Ctrl/ctrl_eye.o
 .debug_info    0x0000026c      0x271 Ctrl/ctrl_light.o
 .debug_info    0x000004dd      0x1d4 Ctrl/ctrl_uart_protocole.o
 .debug_info    0x000006b1      0x1f0 Ctrl/ctrl_ultrason.o
 .debug_info    0x000008a1      0x1d5 Drv/drv_adc.o
 .debug_info    0x00000a76      0x179 Drv/drv_event.o
 .debug_info    0x00000bef      0x142 Drv/drv_i2c_ultrason.o
 .debug_info    0x00000d31       0x97 Drv/drv_interrupt.o
 .debug_info    0x00000dc8      0x474 Drv/drv_led.o
 .debug_info    0x0000123c      0x47e Drv/drv_timer.o
 .debug_info    0x000016ba      0x2f4 Drv/drv_twi.o
 .debug_info    0x000019ae      0x3e6 Drv/drv_uart.o
 .debug_info    0x00001d94      0x51f Mic/mic_adc.o
 .debug_info    0x000022b3      0x62d Mic/mic_interrupt.o
 .debug_info    0x000028e0      0x874 Mic/mic_io_ports.o
 .debug_info    0x00003154      0x36e Mic/mic_power_management.o
 .debug_info    0x000034c2      0x17f Mic/mic_system_clock.o
 .debug_info    0x00003641      0x2ab Mic/mic_system_control.o
 .debug_info    0x000038ec      0x431 Mic/mic_timer_0.o
 .debug_info    0x00003d1d      0xbb4 Mic/mic_usart.o
 .debug_info    0x000048d1      0x22f Robot_head.o
 .debug_info    0x00004b00      0x22f Tools/tools_string.o
 .debug_info    0x00004d2f       0xde c:/program files (x86)/atmel/atmel studio 6.0/extensions/atmel/avrgcc/3.4.1.95/avrtoolchain/bin/../lib/gcc/avr/4.6.2/avr51\libgcc.a(_mulsi3.o)
 .debug_info    0x00004e0d       0xde c:/program files (x86)/atmel/atmel studio 6.0/extensions/atmel/avrgcc/3.4.1.95/avrtoolchain/bin/../lib/gcc/avr/4.6.2/avr51\libgcc.a(_udivmodhi4.o)
 .debug_info    0x00004eeb       0xde c:/program files (x86)/atmel/atmel studio 6.0/extensions/atmel/avrgcc/3.4.1.95/avrtoolchain/bin/../lib/gcc/avr/4.6.2/avr51\libgcc.a(_udivmodsi4.o)
 .debug_info    0x00004fc9       0xde c:/program files (x86)/atmel/atmel studio 6.0/extensions/atmel/avrgcc/3.4.1.95/avrtoolchain/bin/../lib/gcc/avr/4.6.2/avr51\libgcc.a(_exit.o)
 .debug_info    0x000050a7       0xde c:/program files (x86)/atmel/atmel studio 6.0/extensions/atmel/avrgcc/3.4.1.95/avrtoolchain/bin/../lib/gcc/avr/4.6.2/avr51\libgcc.a(_copy_data.o)
 .debug_info    0x00005185       0xde c:/program files (x86)/atmel/atmel studio 6.0/extensions/atmel/avrgcc/3.4.1.95/avrtoolchain/bin/../lib/gcc/avr/4.6.2/avr51\libgcc.a(_clear_bss.o)
 *(.gnu.linkonce.wi.*)

.debug_abbrev   0x00000000     0x1494
 *(.debug_abbrev)
 .debug_abbrev  0x00000000       0xf3 Ctrl/ctrl_eye.o
 .debug_abbrev  0x000000f3       0xe8 Ctrl/ctrl_light.o
 .debug_abbrev  0x000001db      0x109 Ctrl/ctrl_uart_protocole.o
 .debug_abbrev  0x000002e4      0x139 Ctrl/ctrl_ultrason.o
 .debug_abbrev  0x0000041d       0x9d Drv/drv_adc.o
 .debug_abbrev  0x000004ba       0xc4 Drv/drv_event.o
 .debug_abbrev  0x0000057e       0xbc Drv/drv_i2c_ultrason.o
 .debug_abbrev  0x0000063a       0x43 Drv/drv_interrupt.o
 .debug_abbrev  0x0000067d      0x12b Drv/drv_led.o
 .debug_abbrev  0x000007a8      0x173 Drv/drv_timer.o
 .debug_abbrev  0x0000091b      0x135 Drv/drv_twi.o
 .debug_abbrev  0x00000a50      0x16a Drv/drv_uart.o
 .debug_abbrev  0x00000bba       0xa1 Mic/mic_adc.o
 .debug_abbrev  0x00000c5b       0xae Mic/mic_interrupt.o
 .debug_abbrev  0x00000d09      0x14c Mic/mic_io_ports.o
 .debug_abbrev  0x00000e55       0x9f Mic/mic_power_management.o
 .debug_abbrev  0x00000ef4       0x9f Mic/mic_system_clock.o
 .debug_abbrev  0x00000f93       0x9f Mic/mic_system_control.o
 .debug_abbrev  0x00001032       0xeb Mic/mic_timer_0.o
 .debug_abbrev  0x0000111d      0x12e Mic/mic_usart.o
 .debug_abbrev  0x0000124b       0xdc Robot_head.o
 .debug_abbrev  0x00001327       0xf5 Tools/tools_string.o
 .debug_abbrev  0x0000141c       0x14 c:/program files (x86)/atmel/atmel studio 6.0/extensions/atmel/avrgcc/3.4.1.95/avrtoolchain/bin/../lib/gcc/avr/4.6.2/avr51\libgcc.a(_mulsi3.o)
 .debug_abbrev  0x00001430       0x14 c:/program files (x86)/atmel/atmel studio 6.0/extensions/atmel/avrgcc/3.4.1.95/avrtoolchain/bin/../lib/gcc/avr/4.6.2/avr51\libgcc.a(_udivmodhi4.o)
 .debug_abbrev  0x00001444       0x14 c:/program files (x86)/atmel/atmel studio 6.0/extensions/atmel/avrgcc/3.4.1.95/avrtoolchain/bin/../lib/gcc/avr/4.6.2/avr51\libgcc.a(_udivmodsi4.o)
 .debug_abbrev  0x00001458       0x14 c:/program files (x86)/atmel/atmel studio 6.0/extensions/atmel/avrgcc/3.4.1.95/avrtoolchain/bin/../lib/gcc/avr/4.6.2/avr51\libgcc.a(_exit.o)
 .debug_abbrev  0x0000146c       0x14 c:/program files (x86)/atmel/atmel studio 6.0/extensions/atmel/avrgcc/3.4.1.95/avrtoolchain/bin/../lib/gcc/avr/4.6.2/avr51\libgcc.a(_copy_data.o)
 .debug_abbrev  0x00001480       0x14 c:/program files (x86)/atmel/atmel studio 6.0/extensions/atmel/avrgcc/3.4.1.95/avrtoolchain/bin/../lib/gcc/avr/4.6.2/avr51\libgcc.a(_clear_bss.o)

.debug_line     0x00000000     0x5ed3
 *(.debug_line)
 .debug_line    0x00000000      0x3af Ctrl/ctrl_eye.o
 .debug_line    0x000003af      0x3a9 Ctrl/ctrl_light.o
 .debug_line    0x00000758      0x592 Ctrl/ctrl_uart_protocole.o
 .debug_line    0x00000cea      0x52f Ctrl/ctrl_ultrason.o
 .debug_line    0x00001219      0x314 Drv/drv_adc.o
 .debug_line    0x0000152d      0x31a Drv/drv_event.o
 .debug_line    0x00001847      0x4d0 Drv/drv_i2c_ultrason.o
 .debug_line    0x00001d17      0x2b5 Drv/drv_interrupt.o
 .debug_line    0x00001fcc      0x3ef Drv/drv_led.o
 .debug_line    0x000023bb      0x3d4 Drv/drv_timer.o
 .debug_line    0x0000278f      0x45f Drv/drv_twi.o
 .debug_line    0x00002bee      0x3ee Drv/drv_uart.o
 .debug_line    0x00002fdc      0x3c6 Mic/mic_adc.o
 .debug_line    0x000033a2      0x4ea Mic/mic_interrupt.o
 .debug_line    0x0000388c      0x518 Mic/mic_io_ports.o
 .debug_line    0x00003da4      0x3f6 Mic/mic_power_management.o
 .debug_line    0x0000419a      0x2d8 Mic/mic_system_clock.o
 .debug_line    0x00004472      0x362 Mic/mic_system_control.o
 .debug_line    0x000047d4      0x3ab Mic/mic_timer_0.o
 .debug_line    0x00004b7f      0x708 Mic/mic_usart.o
 .debug_line    0x00005287      0x5a9 Robot_head.o
 .debug_line    0x00005830      0x310 Tools/tools_string.o
 .debug_line    0x00005b40       0xa5 c:/program files (x86)/atmel/atmel studio 6.0/extensions/atmel/avrgcc/3.4.1.95/avrtoolchain/bin/../lib/gcc/avr/4.6.2/avr51\libgcc.a(_mulsi3.o)
 .debug_line    0x00005be5       0x9a c:/program files (x86)/atmel/atmel studio 6.0/extensions/atmel/avrgcc/3.4.1.95/avrtoolchain/bin/../lib/gcc/avr/4.6.2/avr51\libgcc.a(_udivmodhi4.o)
 .debug_line    0x00005c7f       0xa8 c:/program files (x86)/atmel/atmel studio 6.0/extensions/atmel/avrgcc/3.4.1.95/avrtoolchain/bin/../lib/gcc/avr/4.6.2/avr51\libgcc.a(_udivmodsi4.o)
 .debug_line    0x00005d27       0x88 c:/program files (x86)/atmel/atmel studio 6.0/extensions/atmel/avrgcc/3.4.1.95/avrtoolchain/bin/../lib/gcc/avr/4.6.2/avr51\libgcc.a(_exit.o)
 .debug_line    0x00005daf       0x96 c:/program files (x86)/atmel/atmel studio 6.0/extensions/atmel/avrgcc/3.4.1.95/avrtoolchain/bin/../lib/gcc/avr/4.6.2/avr51\libgcc.a(_copy_data.o)
 .debug_line    0x00005e45       0x8e c:/program files (x86)/atmel/atmel studio 6.0/extensions/atmel/avrgcc/3.4.1.95/avrtoolchain/bin/../lib/gcc/avr/4.6.2/avr51\libgcc.a(_clear_bss.o)

.debug_frame    0x00000000     0x13d0
 *(.debug_frame)
 .debug_frame   0x00000000       0xd0 Ctrl/ctrl_eye.o
 .debug_frame   0x000000d0       0x54 Ctrl/ctrl_light.o
 .debug_frame   0x00000124       0x78 Ctrl/ctrl_uart_protocole.o
 .debug_frame   0x0000019c       0x9c Ctrl/ctrl_ultrason.o
 .debug_frame   0x00000238       0x34 Drv/drv_adc.o
 .debug_frame   0x0000026c       0x64 Drv/drv_event.o
 .debug_frame   0x000002d0       0x44 Drv/drv_i2c_ultrason.o
 .debug_frame   0x00000314       0x34 Drv/drv_interrupt.o
 .debug_frame   0x00000348      0x118 Drv/drv_led.o
 .debug_frame   0x00000460      0x130 Drv/drv_timer.o
 .debug_frame   0x00000590      0x144 Drv/drv_twi.o
 .debug_frame   0x000006d4       0xe0 Drv/drv_uart.o
 .debug_frame   0x000007b4      0x134 Mic/mic_adc.o
 .debug_frame   0x000008e8      0x184 Mic/mic_interrupt.o
 .debug_frame   0x00000a6c      0x1b8 Mic/mic_io_ports.o
 .debug_frame   0x00000c24       0xd4 Mic/mic_power_management.o
 .debug_frame   0x00000cf8       0x44 Mic/mic_system_clock.o
 .debug_frame   0x00000d3c       0xb4 Mic/mic_system_control.o
 .debug_frame   0x00000df0       0xf4 Mic/mic_timer_0.o
 .debug_frame   0x00000ee4      0x42c Mic/mic_usart.o
 .debug_frame   0x00001310       0x24 Robot_head.o
 .debug_frame   0x00001334       0x9c Tools/tools_string.o

.debug_str      0x00000000     0x3239
 *(.debug_str)
 .debug_str     0x00000000      0x18d Ctrl/ctrl_eye.o
                                0x1d9 (size before relaxing)
 .debug_str     0x0000018d      0x351 Ctrl/ctrl_light.o
                                0x424 (size before relaxing)
 .debug_str     0x000004de       0xc2 Ctrl/ctrl_uart_protocole.o
                                0x1bf (size before relaxing)
 .debug_str     0x000005a0       0xbc Ctrl/ctrl_ultrason.o
                                0x1b5 (size before relaxing)
 .debug_str     0x0000065c       0xd0 Drv/drv_adc.o
                                0x442 (size before relaxing)
 .debug_str     0x0000072c       0x76 Drv/drv_event.o
                                0x162 (size before relaxing)
 .debug_str     0x000007a2       0x70 Drv/drv_i2c_ultrason.o
                                0x13d (size before relaxing)
 .debug_str     0x00000812       0x53 Drv/drv_interrupt.o
                                0x106 (size before relaxing)
 .debug_str     0x00000865      0x37f Drv/drv_led.o
                                0x49f (size before relaxing)
 .debug_str     0x00000be4      0x34b Drv/drv_timer.o
                                0x48a (size before relaxing)
 .debug_str     0x00000f2f       0xc8 Drv/drv_twi.o
                                0x1a4 (size before relaxing)
 .debug_str     0x00000ff7      0x27f Drv/drv_uart.o
                                0x38c (size before relaxing)
 .debug_str     0x00001276      0x34c Mic/mic_adc.o
                                0x792 (size before relaxing)
 .debug_str     0x000015c2      0x4fe Mic/mic_interrupt.o
                                0x5d8 (size before relaxing)
 .debug_str     0x00001ac0      0x333 Mic/mic_io_ports.o
                                0x62f (size before relaxing)
 .debug_str     0x00001df3      0x29f Mic/mic_power_management.o
                                0x379 (size before relaxing)
 .debug_str     0x00002092      0x12e Mic/mic_system_clock.o
                                0x208 (size before relaxing)
 .debug_str     0x000021c0      0x32b Mic/mic_system_control.o
                                0x415 (size before relaxing)
 .debug_str     0x000024eb      0x352 Mic/mic_timer_0.o
                                0x6d9 (size before relaxing)
 .debug_str     0x0000283d      0x8b5 Mic/mic_usart.o
                                0xae5 (size before relaxing)
 .debug_str     0x000030f2       0x70 Robot_head.o
                                0x352 (size before relaxing)
 .debug_str     0x00003162       0xd7 Tools/tools_string.o
                                0x1b5 (size before relaxing)

.debug_loc      0x00000000     0x2a34
 *(.debug_loc)
 .debug_loc     0x00000000      0x229 Ctrl/ctrl_eye.o
 .debug_loc     0x00000229       0x53 Ctrl/ctrl_light.o
 .debug_loc     0x0000027c      0x163 Ctrl/ctrl_uart_protocole.o
 .debug_loc     0x000003df       0xf6 Ctrl/ctrl_ultrason.o
 .debug_loc     0x000004d5       0x3d Drv/drv_adc.o
 .debug_loc     0x00000512       0x99 Drv/drv_event.o
 .debug_loc     0x000005ab       0x86 Drv/drv_i2c_ultrason.o
 .debug_loc     0x00000631      0x338 Drv/drv_led.o
 .debug_loc     0x00000969      0x37b Drv/drv_timer.o
 .debug_loc     0x00000ce4      0x3e9 Drv/drv_twi.o
 .debug_loc     0x000010cd      0x335 Drv/drv_uart.o
 .debug_loc     0x00001402       0x60 Mic/mic_adc.o
 .debug_loc     0x00001462      0x206 Mic/mic_interrupt.o
 .debug_loc     0x00001668      0x7dc Mic/mic_io_ports.o
 .debug_loc     0x00001e44      0x162 Mic/mic_power_management.o
 .debug_loc     0x00001fa6       0x55 Mic/mic_system_clock.o
 .debug_loc     0x00001ffb       0x54 Mic/mic_system_control.o
 .debug_loc     0x0000204f       0xd0 Mic/mic_timer_0.o
 .debug_loc     0x0000211f      0x5de Mic/mic_usart.o
 .debug_loc     0x000026fd      0x337 Tools/tools_string.o

.debug_macinfo  0x00000000    0xb2e84
 *(.debug_macinfo)
 .debug_macinfo
                0x00000000     0x8640 Ctrl/ctrl_eye.o
 .debug_macinfo
                0x00008640     0x86ac Ctrl/ctrl_light.o
 .debug_macinfo
                0x00010cec     0x8aa4 Ctrl/ctrl_uart_protocole.o
 .debug_macinfo
                0x00019790     0x8a39 Ctrl/ctrl_ultrason.o
 .debug_macinfo
                0x000221c9     0x85f2 Drv/drv_adc.o
 .debug_macinfo
                0x0002a7bb     0x85a8 Drv/drv_event.o
 .debug_macinfo
                0x00032d63     0x893b Drv/drv_i2c_ultrason.o
 .debug_macinfo
                0x0003b69e     0x7a38 Drv/drv_interrupt.o
 .debug_macinfo
                0x000430d6     0x862f Drv/drv_led.o
 .debug_macinfo
                0x0004b705     0x868c Drv/drv_timer.o
 .debug_macinfo
                0x00053d91     0x88aa Drv/drv_twi.o
 .debug_macinfo
                0x0005c63b     0x8624 Drv/drv_uart.o
 .debug_macinfo
                0x00064c5f     0x7a32 Mic/mic_adc.o
 .debug_macinfo
                0x0006c691     0x7a38 Mic/mic_interrupt.o
 .debug_macinfo
                0x000740c9     0x7a6b Mic/mic_io_ports.o
 .debug_macinfo
                0x0007bb34     0x7a3f Mic/mic_power_management.o
 .debug_macinfo
                0x00083573     0x7a3b Mic/mic_system_clock.o
 .debug_macinfo
                0x0008afae     0x7a3d Mic/mic_system_control.o
 .debug_macinfo
                0x000929eb     0x7a36 Mic/mic_timer_0.o
 .debug_macinfo
                0x0009a421     0x8597 Mic/mic_usart.o
 .debug_macinfo
                0x000a29b8     0x8a95 Robot_head.o
 .debug_macinfo
                0x000ab44d     0x7a37 Tools/tools_string.o
OUTPUT(Robot_head.elf elf32-avr)
LOAD linker stubs

.debug_ranges   0x00000000      0x810
 .debug_ranges  0x00000000       0x50 Ctrl/ctrl_eye.o
 .debug_ranges  0x00000050       0x20 Ctrl/ctrl_light.o
 .debug_ranges  0x00000070       0x20 Ctrl/ctrl_uart_protocole.o
 .debug_ranges  0x00000090       0x28 Ctrl/ctrl_ultrason.o
 .debug_ranges  0x000000b8       0x18 Drv/drv_adc.o
 .debug_ranges  0x000000d0       0x30 Drv/drv_event.o
 .debug_ranges  0x00000100       0x20 Drv/drv_i2c_ultrason.o
 .debug_ranges  0x00000120       0x18 Drv/drv_interrupt.o
 .debug_ranges  0x00000138       0x40 Drv/drv_led.o
 .debug_ranges  0x00000178       0x50 Drv/drv_timer.o
 .debug_ranges  0x000001c8       0x68 Drv/drv_twi.o
 .debug_ranges  0x00000230       0x38 Drv/drv_uart.o
 .debug_ranges  0x00000268       0x98 Mic/mic_adc.o
 .debug_ranges  0x00000300       0xc0 Mic/mic_interrupt.o
 .debug_ranges  0x000003c0       0xd0 Mic/mic_io_ports.o
 .debug_ranges  0x00000490       0x68 Mic/mic_power_management.o
 .debug_ranges  0x000004f8       0x20 Mic/mic_system_clock.o
 .debug_ranges  0x00000518       0x58 Mic/mic_system_control.o
 .debug_ranges  0x00000570       0x78 Mic/mic_timer_0.o
 .debug_ranges  0x000005e8      0x1d8 Mic/mic_usart.o
 .debug_ranges  0x000007c0       0x10 Robot_head.o
 .debug_ranges  0x000007d0       0x40 Tools/tools_string.o
